
trust.elf:     file format elf32-littlearm


Disassembly of section .text:

20030000 <__text>:
20030000:	e59ff01c 	ldr	pc, [pc, #28]	; 20030024 <vector_ref_tbl>
20030004:	e59ff01c 	ldr	pc, [pc, #28]	; 20030028 <undef_vector>
20030008:	e59ff01c 	ldr	pc, [pc, #28]	; 2003002c <swi_vector>
2003000c:	e59ff01c 	ldr	pc, [pc, #28]	; 20030030 <prefech_vector>
20030010:	e59ff01c 	ldr	pc, [pc, #28]	; 20030034 <data_abort_vector>
20030014:	e59ff008 	ldr	pc, [pc, #8]	; 20030024 <vector_ref_tbl>
20030018:	e59ff018 	ldr	pc, [pc, #24]	; 20030038 <irq_vector>
2003001c:	e59ff018 	ldr	pc, [pc, #24]	; 2003003c <fiq_vector>
20030020:	e59ff018 	ldr	pc, [pc, #24]	; 20030040 <safeg_vector>

20030024 <vector_ref_tbl>:
20030024:	20030044 	.word	0x20030044

20030028 <undef_vector>:
20030028:	20033210 	.word	0x20033210

2003002c <swi_vector>:
2003002c:	2003322c 	.word	0x2003322c

20030030 <prefech_vector>:
20030030:	20033244 	.word	0x20033244

20030034 <data_abort_vector>:
20030034:	20033260 	.word	0x20033260

20030038 <irq_vector>:
20030038:	20032e90 	.word	0x20032e90

2003003c <fiq_vector>:
2003003c:	20032e68 	.word	0x20032e68

20030040 <safeg_vector>:
20030040:	2003327c 	.word	0x2003327c

20030044 <start>:
20030044:	e329f0d3 	msr	CPSR_fc, #211	; 0xd3
20030048:	e59f0050 	ldr	r0, [pc, #80]	; 200300a0 <start_6+0x4>
2003004c:	e590d000 	ldr	sp, [r0]
20030050:	e3a0b000 	mov	fp, #0
20030054:	e3a07000 	mov	r7, #0
20030058:	e59f0044 	ldr	r0, [pc, #68]	; 200300a4 <start_6+0x8>
2003005c:	e3500000 	cmp	r0, #0
20030060:	11a0e00f 	movne	lr, pc
20030064:	11a0f000 	movne	pc, r0

20030068 <start_1>:
20030068:	e59f1038 	ldr	r1, [pc, #56]	; 200300a8 <start_6+0xc>
2003006c:	e59f3038 	ldr	r3, [pc, #56]	; 200300ac <start_6+0x10>
20030070:	e1510003 	cmp	r1, r3
20030074:	2a000004 	bcs	2003008c <start_5>
20030078:	e59f2030 	ldr	r2, [pc, #48]	; 200300b0 <start_6+0x14>

2003007c <start_4>:
2003007c:	e4910004 	ldr	r0, [r1], #4
20030080:	e4820004 	str	r0, [r2], #4
20030084:	e1510003 	cmp	r1, r3
20030088:	3afffffb 	bcc	2003007c <start_4>

2003008c <start_5>:
2003008c:	e59f0020 	ldr	r0, [pc, #32]	; 200300b4 <start_6+0x18>
20030090:	e3500000 	cmp	r0, #0
20030094:	11a0e00f 	movne	lr, pc
20030098:	11a0f000 	movne	pc, r0

2003009c <start_6>:
2003009c:	eb001248 	bl	200349c4 <sta_ker>
200300a0:	2003af48 	.word	0x2003af48
200300a4:	20032e64 	.word	0x20032e64
200300a8:	2003b4d8 	.word	0x2003b4d8
200300ac:	2003b4d8 	.word	0x2003b4d8
200300b0:	2003b4d8 	.word	0x2003b4d8
200300b4:	00000000 	.word	0x00000000

200300b8 <TOPPERS_assert_abort>:
200300b8:	e52db004 	push	{fp}		; (str fp, [sp, #-4]!)
200300bc:	e28db000 	add	fp, sp, #0
200300c0:	eafffffe 	b	200300c0 <TOPPERS_assert_abort+0x8>

200300c4 <_syslog_3>:
200300c4:	e92d4800 	push	{fp, lr}
200300c8:	e28db004 	add	fp, sp, #4
200300cc:	e24dd040 	sub	sp, sp, #64	; 0x40
200300d0:	e50b0038 	str	r0, [fp, #-56]	; 0xffffffc8
200300d4:	e50b103c 	str	r1, [fp, #-60]	; 0xffffffc4
200300d8:	e50b2040 	str	r2, [fp, #-64]	; 0xffffffc0
200300dc:	e50b3044 	str	r3, [fp, #-68]	; 0xffffffbc
200300e0:	e51b303c 	ldr	r3, [fp, #-60]	; 0xffffffc4
200300e4:	e50b3034 	str	r3, [fp, #-52]	; 0xffffffcc
200300e8:	e51b3040 	ldr	r3, [fp, #-64]	; 0xffffffc0
200300ec:	e50b302c 	str	r3, [fp, #-44]	; 0xffffffd4
200300f0:	e51b3044 	ldr	r3, [fp, #-68]	; 0xffffffbc
200300f4:	e50b3028 	str	r3, [fp, #-40]	; 0xffffffd8
200300f8:	e59b3004 	ldr	r3, [fp, #4]
200300fc:	e50b3024 	str	r3, [fp, #-36]	; 0xffffffdc
20030100:	e24b3034 	sub	r3, fp, #52	; 0x34
20030104:	e51b0038 	ldr	r0, [fp, #-56]	; 0xffffffc8
20030108:	e1a01003 	mov	r1, r3
2003010c:	eb00013c 	bl	20030604 <syslog_wri_log>
20030110:	e24bd004 	sub	sp, fp, #4
20030114:	e8bd8800 	pop	{fp, pc}

20030118 <safeg_switch_to_nt>:
20030118:	e52db004 	push	{fp}		; (str fp, [sp, #-4]!)
2003011c:	e28db000 	add	fp, sp, #0
20030120:	e24dd00c 	sub	sp, sp, #12
20030124:	e50b0008 	str	r0, [fp, #-8]
20030128:	e51b3008 	ldr	r3, [fp, #-8]
2003012c:	e3a02000 	mov	r2, #0
20030130:	e5832000 	str	r2, [r3]
20030134:	ea000000 	b	2003013c <safeg_switch_to_nt+0x24>
20030138:	e1a00000 	nop			; (mov r0, r0)
2003013c:	e51b3008 	ldr	r3, [fp, #-8]
20030140:	e3a00000 	mov	r0, #0
20030144:	e1a01003 	mov	r1, r3
20030148:	e1600070 	smc	0
2003014c:	e51b3008 	ldr	r3, [fp, #-8]
20030150:	e5933000 	ldr	r3, [r3]
20030154:	e3530000 	cmp	r3, #0
20030158:	0afffff6 	beq	20030138 <safeg_switch_to_nt+0x20>
2003015c:	e28bd000 	add	sp, fp, #0
20030160:	e49db004 	pop	{fp}		; (ldr fp, [sp], #4)
20030164:	e12fff1e 	bx	lr

20030168 <svc_perror>:
20030168:	e92d4800 	push	{fp, lr}
2003016c:	e28db004 	add	fp, sp, #4
20030170:	e24dd018 	sub	sp, sp, #24
20030174:	e50b0008 	str	r0, [fp, #-8]
20030178:	e50b100c 	str	r1, [fp, #-12]
2003017c:	e50b2010 	str	r2, [fp, #-16]
20030180:	e50b3014 	str	r3, [fp, #-20]	; 0xffffffec
20030184:	e51b3014 	ldr	r3, [fp, #-20]	; 0xffffffec
20030188:	e3530000 	cmp	r3, #0
2003018c:	aa000006 	bge	200301ac <svc_perror+0x44>
20030190:	e51b3014 	ldr	r3, [fp, #-20]	; 0xffffffec
20030194:	e58d3000 	str	r3, [sp]
20030198:	e3a00003 	mov	r0, #3
2003019c:	e51b1008 	ldr	r1, [fp, #-8]
200301a0:	e51b200c 	ldr	r2, [fp, #-12]
200301a4:	e51b3010 	ldr	r3, [fp, #-16]
200301a8:	eb000a40 	bl	20032ab0 <t_perror>
200301ac:	e24bd004 	sub	sp, fp, #4
200301b0:	e8bd8800 	pop	{fp, pc}

200301b4 <task>:
200301b4:	e92d4800 	push	{fp, lr}
200301b8:	e28db004 	add	fp, sp, #4
200301bc:	e24dd028 	sub	sp, sp, #40	; 0x28
200301c0:	e50b0020 	str	r0, [fp, #-32]	; 0xffffffe0
200301c4:	e51b3020 	ldr	r3, [fp, #-32]	; 0xffffffe0
200301c8:	e50b300c 	str	r3, [fp, #-12]
200301cc:	e30a3aa4 	movw	r3, #43684	; 0xaaa4
200301d0:	e3423003 	movt	r3, #8195	; 0x2003
200301d4:	e24bc018 	sub	ip, fp, #24
200301d8:	e8930007 	ldm	r3, {r0, r1, r2}
200301dc:	e88c0007 	stm	ip, {r0, r1, r2}
200301e0:	e30c3000 	movw	r3, #49152	; 0xc000
200301e4:	e3423003 	movt	r3, #8195	; 0x2003
200301e8:	e5933000 	ldr	r3, [r3]
200301ec:	e2832001 	add	r2, r3, #1
200301f0:	e30c3000 	movw	r3, #49152	; 0xc000
200301f4:	e3423003 	movt	r3, #8195	; 0x2003
200301f8:	e5832000 	str	r2, [r3]
200301fc:	e30c3000 	movw	r3, #49152	; 0xc000
20030200:	e3423003 	movt	r3, #8195	; 0x2003
20030204:	e5933000 	ldr	r3, [r3]
20030208:	e51b200c 	ldr	r2, [fp, #-12]
2003020c:	e2421001 	sub	r1, r2, #1
20030210:	e3e02013 	mvn	r2, #19
20030214:	e1a01101 	lsl	r1, r1, #2
20030218:	e24b0004 	sub	r0, fp, #4
2003021c:	e0801001 	add	r1, r0, r1
20030220:	e0812002 	add	r2, r1, r2
20030224:	e5922000 	ldr	r2, [r2]
20030228:	e58d2000 	str	r2, [sp]
2003022c:	e3a00005 	mov	r0, #5
20030230:	e30a1938 	movw	r1, #43320	; 0xa938
20030234:	e3421003 	movt	r1, #8195	; 0x2003
20030238:	e51b200c 	ldr	r2, [fp, #-12]
2003023c:	eb000938 	bl	20032724 <syslog>
20030240:	e3a03000 	mov	r3, #0
20030244:	e50b3008 	str	r3, [fp, #-8]
20030248:	ea000002 	b	20030258 <task+0xa4>
2003024c:	e51b3008 	ldr	r3, [fp, #-8]
20030250:	e2833001 	add	r3, r3, #1
20030254:	e50b3008 	str	r3, [fp, #-8]
20030258:	e51b2008 	ldr	r2, [fp, #-8]
2003025c:	e302370f 	movw	r3, #9999	; 0x270f
20030260:	e1520003 	cmp	r2, r3
20030264:	dafffff8 	ble	2003024c <task+0x98>
20030268:	e24bd004 	sub	sp, fp, #4
2003026c:	e8bd8800 	pop	{fp, pc}

20030270 <btask>:
20030270:	e92d4800 	push	{fp, lr}
20030274:	e28db004 	add	fp, sp, #4
20030278:	e24dd010 	sub	sp, sp, #16
2003027c:	e50b0010 	str	r0, [fp, #-16]
20030280:	e24b300c 	sub	r3, fp, #12
20030284:	e1a00003 	mov	r0, r3
20030288:	ebffffa2 	bl	20030118 <safeg_switch_to_nt>
2003028c:	e3a00005 	mov	r0, #5
20030290:	e30a1958 	movw	r1, #43352	; 0xa958
20030294:	e3421003 	movt	r1, #8195	; 0x2003
20030298:	eb000921 	bl	20032724 <syslog>
2003029c:	e24bd004 	sub	sp, fp, #4
200302a0:	e8bd8800 	pop	{fp, pc}

200302a4 <cyclic_handler>:
200302a4:	e92d4800 	push	{fp, lr}
200302a8:	e28db004 	add	fp, sp, #4
200302ac:	e24dd008 	sub	sp, sp, #8
200302b0:	e50b0008 	str	r0, [fp, #-8]
200302b4:	e3a00002 	mov	r0, #2
200302b8:	eb001940 	bl	200367c0 <iact_tsk>
200302bc:	e1a03000 	mov	r3, r0
200302c0:	e30a0974 	movw	r0, #43380	; 0xa974
200302c4:	e3420003 	movt	r0, #8195	; 0x2003
200302c8:	e3a0102a 	mov	r1, #42	; 0x2a
200302cc:	e30a2980 	movw	r2, #43392	; 0xa980
200302d0:	e3422003 	movt	r2, #8195	; 0x2003
200302d4:	ebffffa3 	bl	20030168 <svc_perror>
200302d8:	e24bd004 	sub	sp, fp, #4
200302dc:	e8bd8800 	pop	{fp, pc}

200302e0 <main_task>:
200302e0:	e92d4800 	push	{fp, lr}
200302e4:	e28db004 	add	fp, sp, #4
200302e8:	e24dd018 	sub	sp, sp, #24
200302ec:	e50b0010 	str	r0, [fp, #-16]
200302f0:	e3a00000 	mov	r0, #0
200302f4:	e3a010ff 	mov	r1, #255	; 0xff
200302f8:	eb00016f 	bl	200308bc <syslog_msk_log>
200302fc:	e1a03000 	mov	r3, r0
20030300:	e30a0974 	movw	r0, #43380	; 0xa974
20030304:	e3420003 	movt	r0, #8195	; 0x2003
20030308:	e3a01032 	mov	r1, #50	; 0x32
2003030c:	e30a2990 	movw	r2, #43408	; 0xa990
20030310:	e3422003 	movt	r2, #8195	; 0x2003
20030314:	ebffff93 	bl	20030168 <svc_perror>
20030318:	e3a00005 	mov	r0, #5
2003031c:	e30a19b8 	movw	r1, #43448	; 0xa9b8
20030320:	e3421003 	movt	r1, #8195	; 0x2003
20030324:	e51b2010 	ldr	r2, [fp, #-16]
20030328:	eb0008fd 	bl	20032724 <syslog>
2003032c:	e3a00001 	mov	r0, #1
20030330:	eb0001db 	bl	20030aa4 <serial_opn_por>
20030334:	e50b0008 	str	r0, [fp, #-8]
20030338:	e51b3008 	ldr	r3, [fp, #-8]
2003033c:	e3530000 	cmp	r3, #0
20030340:	aa00000d 	bge	2003037c <main_task+0x9c>
20030344:	e51b3008 	ldr	r3, [fp, #-8]
20030348:	e6ef3073 	uxtb	r3, r3
2003034c:	e6af3073 	sxtb	r3, r3
20030350:	e3730029 	cmn	r3, #41	; 0x29
20030354:	0a000008 	beq	2003037c <main_task+0x9c>
20030358:	e51b0008 	ldr	r0, [fp, #-8]
2003035c:	eb0009ee 	bl	20032b1c <itron_strerror>
20030360:	e1a02000 	mov	r2, r0
20030364:	e51b3008 	ldr	r3, [fp, #-8]
20030368:	e1a03443 	asr	r3, r3, #8
2003036c:	e3a00003 	mov	r0, #3
20030370:	e30a19dc 	movw	r1, #43484	; 0xa9dc
20030374:	e3421003 	movt	r1, #8195	; 0x2003
20030378:	eb0008e9 	bl	20032724 <syslog>
2003037c:	e3a00001 	mov	r0, #1
20030380:	e3a01e51 	mov	r1, #1296	; 0x510
20030384:	eb0004a9 	bl	20031630 <serial_ctl_por>
20030388:	e1a03000 	mov	r3, r0
2003038c:	e30a0974 	movw	r0, #43380	; 0xa974
20030390:	e3420003 	movt	r0, #8195	; 0x2003
20030394:	e3a0103e 	mov	r1, #62	; 0x3e
20030398:	e30a2a04 	movw	r2, #43524	; 0xaa04
2003039c:	e3422003 	movt	r2, #8195	; 0x2003
200303a0:	ebffff70 	bl	20030168 <svc_perror>
200303a4:	e3a00001 	mov	r0, #1
200303a8:	eb002245 	bl	20038cc4 <sta_cyc>
200303ac:	e1a03000 	mov	r3, r0
200303b0:	e30a0974 	movw	r0, #43380	; 0xa974
200303b4:	e3420003 	movt	r0, #8195	; 0x2003
200303b8:	e3a01040 	mov	r1, #64	; 0x40
200303bc:	e30a2a4c 	movw	r2, #43596	; 0xaa4c
200303c0:	e3422003 	movt	r2, #8195	; 0x2003
200303c4:	ebffff67 	bl	20030168 <svc_perror>
200303c8:	eb001b78 	bl	200371b0 <slp_tsk>
200303cc:	e1a03000 	mov	r3, r0
200303d0:	e30a0974 	movw	r0, #43380	; 0xa974
200303d4:	e3420003 	movt	r0, #8195	; 0x2003
200303d8:	e3a01047 	mov	r1, #71	; 0x47
200303dc:	e30a2a60 	movw	r2, #43616	; 0xaa60
200303e0:	e3422003 	movt	r2, #8195	; 0x2003
200303e4:	ebffff5f 	bl	20030168 <svc_perror>
200303e8:	e3a00005 	mov	r0, #5
200303ec:	e30a1a6c 	movw	r1, #43628	; 0xaa6c
200303f0:	e3421003 	movt	r1, #8195	; 0x2003
200303f4:	eb0008ca 	bl	20032724 <syslog>
200303f8:	eb001178 	bl	200349e0 <ext_ker>
200303fc:	e1a03000 	mov	r3, r0
20030400:	e30a0974 	movw	r0, #43380	; 0xa974
20030404:	e3420003 	movt	r0, #8195	; 0x2003
20030408:	e3a0104a 	mov	r1, #74	; 0x4a
2003040c:	e30a2a84 	movw	r2, #43652	; 0xaa84
20030410:	e3422003 	movt	r2, #8195	; 0x2003
20030414:	ebffff53 	bl	20030168 <svc_perror>
20030418:	e30a3974 	movw	r3, #43380	; 0xa974
2003041c:	e3423003 	movt	r3, #8195	; 0x2003
20030420:	e30a2a90 	movw	r2, #43664	; 0xaa90
20030424:	e3422003 	movt	r2, #8195	; 0x2003
20030428:	e58d2000 	str	r2, [sp]
2003042c:	e3a00000 	mov	r0, #0
20030430:	e3a01002 	mov	r1, #2
20030434:	e1a02003 	mov	r2, r3
20030438:	e3a0304b 	mov	r3, #75	; 0x4b
2003043c:	ebffff20 	bl	200300c4 <_syslog_3>
20030440:	ebffff1c 	bl	200300b8 <TOPPERS_assert_abort>
20030444:	e24bd004 	sub	sp, fp, #4
20030448:	e8bd8800 	pop	{fp, pc}

2003044c <_syslog_4>:
2003044c:	e92d4800 	push	{fp, lr}
20030450:	e28db004 	add	fp, sp, #4
20030454:	e24dd040 	sub	sp, sp, #64	; 0x40
20030458:	e50b0038 	str	r0, [fp, #-56]	; 0xffffffc8
2003045c:	e50b103c 	str	r1, [fp, #-60]	; 0xffffffc4
20030460:	e50b2040 	str	r2, [fp, #-64]	; 0xffffffc0
20030464:	e50b3044 	str	r3, [fp, #-68]	; 0xffffffbc
20030468:	e51b303c 	ldr	r3, [fp, #-60]	; 0xffffffc4
2003046c:	e50b3034 	str	r3, [fp, #-52]	; 0xffffffcc
20030470:	e51b3040 	ldr	r3, [fp, #-64]	; 0xffffffc0
20030474:	e50b302c 	str	r3, [fp, #-44]	; 0xffffffd4
20030478:	e51b3044 	ldr	r3, [fp, #-68]	; 0xffffffbc
2003047c:	e50b3028 	str	r3, [fp, #-40]	; 0xffffffd8
20030480:	e59b3004 	ldr	r3, [fp, #4]
20030484:	e50b3024 	str	r3, [fp, #-36]	; 0xffffffdc
20030488:	e59b3008 	ldr	r3, [fp, #8]
2003048c:	e50b3020 	str	r3, [fp, #-32]	; 0xffffffe0
20030490:	e24b3034 	sub	r3, fp, #52	; 0x34
20030494:	e51b0038 	ldr	r0, [fp, #-56]	; 0xffffffc8
20030498:	e1a01003 	mov	r1, r3
2003049c:	eb000058 	bl	20030604 <syslog_wri_log>
200304a0:	e24bd004 	sub	sp, fp, #4
200304a4:	e8bd8800 	pop	{fp, pc}

200304a8 <print_banner>:
200304a8:	e92d4800 	push	{fp, lr}
200304ac:	e28db004 	add	fp, sp, #4
200304b0:	e24dd010 	sub	sp, sp, #16
200304b4:	e50b0008 	str	r0, [fp, #-8]
200304b8:	e30a3ab0 	movw	r3, #43696	; 0xaab0
200304bc:	e3423003 	movt	r3, #8195	; 0x2003
200304c0:	e3a02006 	mov	r2, #6
200304c4:	e58d2000 	str	r2, [sp]
200304c8:	e3a02000 	mov	r2, #0
200304cc:	e58d2004 	str	r2, [sp, #4]
200304d0:	e3a00005 	mov	r0, #5
200304d4:	e3a01001 	mov	r1, #1
200304d8:	e1a02003 	mov	r2, r3
200304dc:	e3a03001 	mov	r3, #1
200304e0:	ebffffd9 	bl	2003044c <_syslog_4>
200304e4:	e24bd004 	sub	sp, fp, #4
200304e8:	e8bd8800 	pop	{fp, pc}

200304ec <TOPPERS_disint>:
200304ec:	e92d0810 	push	{r4, fp}
200304f0:	e28db004 	add	fp, sp, #4
200304f4:	e24dd008 	sub	sp, sp, #8
200304f8:	e10f4000 	mrs	r4, CPSR
200304fc:	e50b4008 	str	r4, [fp, #-8]
20030500:	e51b3008 	ldr	r3, [fp, #-8]
20030504:	e20330c0 	and	r3, r3, #192	; 0xc0
20030508:	e50b300c 	str	r3, [fp, #-12]
2003050c:	e51b3008 	ldr	r3, [fp, #-8]
20030510:	e38330c0 	orr	r3, r3, #192	; 0xc0
20030514:	e50b3008 	str	r3, [fp, #-8]
20030518:	e51b3008 	ldr	r3, [fp, #-8]
2003051c:	e129f003 	msr	CPSR_fc, r3
20030520:	e51b300c 	ldr	r3, [fp, #-12]
20030524:	e1a00003 	mov	r0, r3
20030528:	e24bd004 	sub	sp, fp, #4
2003052c:	e8bd0810 	pop	{r4, fp}
20030530:	e12fff1e 	bx	lr

20030534 <TOPPERS_set_fiq_irq>:
20030534:	e92d0810 	push	{r4, fp}
20030538:	e28db004 	add	fp, sp, #4
2003053c:	e24dd010 	sub	sp, sp, #16
20030540:	e50b0010 	str	r0, [fp, #-16]
20030544:	e10f4000 	mrs	r4, CPSR
20030548:	e50b4008 	str	r4, [fp, #-8]
2003054c:	e51b3008 	ldr	r3, [fp, #-8]
20030550:	e3c330c0 	bic	r3, r3, #192	; 0xc0
20030554:	e50b3008 	str	r3, [fp, #-8]
20030558:	e51b3010 	ldr	r3, [fp, #-16]
2003055c:	e20330c0 	and	r3, r3, #192	; 0xc0
20030560:	e51b2008 	ldr	r2, [fp, #-8]
20030564:	e1823003 	orr	r3, r2, r3
20030568:	e50b3008 	str	r3, [fp, #-8]
2003056c:	e51b3008 	ldr	r3, [fp, #-8]
20030570:	e129f003 	msr	CPSR_fc, r3
20030574:	e24bd004 	sub	sp, fp, #4
20030578:	e8bd0810 	pop	{r4, fp}
2003057c:	e12fff1e 	bx	lr

20030580 <syslog_initialize>:
20030580:	e52db004 	push	{fp}		; (str fp, [sp, #-4]!)
20030584:	e28db000 	add	fp, sp, #0
20030588:	e24dd00c 	sub	sp, sp, #12
2003058c:	e50b0008 	str	r0, [fp, #-8]
20030590:	e30c3604 	movw	r3, #50692	; 0xc604
20030594:	e3423003 	movt	r3, #8195	; 0x2003
20030598:	e3a02000 	mov	r2, #0
2003059c:	e5832000 	str	r2, [r3]
200305a0:	e30c360c 	movw	r3, #50700	; 0xc60c
200305a4:	e3423003 	movt	r3, #8195	; 0x2003
200305a8:	e3a02000 	mov	r2, #0
200305ac:	e5832000 	str	r2, [r3]
200305b0:	e30c360c 	movw	r3, #50700	; 0xc60c
200305b4:	e3423003 	movt	r3, #8195	; 0x2003
200305b8:	e5932000 	ldr	r2, [r3]
200305bc:	e30c3608 	movw	r3, #50696	; 0xc608
200305c0:	e3423003 	movt	r3, #8195	; 0x2003
200305c4:	e5832000 	str	r2, [r3]
200305c8:	e30c3610 	movw	r3, #50704	; 0xc610
200305cc:	e3423003 	movt	r3, #8195	; 0x2003
200305d0:	e3a02000 	mov	r2, #0
200305d4:	e5832000 	str	r2, [r3]
200305d8:	e30c3614 	movw	r3, #50708	; 0xc614
200305dc:	e3423003 	movt	r3, #8195	; 0x2003
200305e0:	e3a02000 	mov	r2, #0
200305e4:	e5832000 	str	r2, [r3]
200305e8:	e30c3618 	movw	r3, #50712	; 0xc618
200305ec:	e3423003 	movt	r3, #8195	; 0x2003
200305f0:	e3a02000 	mov	r2, #0
200305f4:	e5832000 	str	r2, [r3]
200305f8:	e28bd000 	add	sp, fp, #0
200305fc:	e49db004 	pop	{fp}		; (ldr fp, [sp], #4)
20030600:	e12fff1e 	bx	lr

20030604 <syslog_wri_log>:
20030604:	e92d4800 	push	{fp, lr}
20030608:	e28db004 	add	fp, sp, #4
2003060c:	e24dd010 	sub	sp, sp, #16
20030610:	e50b0010 	str	r0, [fp, #-16]
20030614:	e50b1014 	str	r1, [fp, #-20]	; 0xffffffec
20030618:	ebffffb3 	bl	200304ec <TOPPERS_disint>
2003061c:	e50b0008 	str	r0, [fp, #-8]
20030620:	e30430a0 	movw	r3, #16544	; 0x40a0
20030624:	e3423005 	movt	r3, #8197	; 0x2005
20030628:	e5932000 	ldr	r2, [r3]
2003062c:	e51b3014 	ldr	r3, [fp, #-20]	; 0xffffffec
20030630:	e5832004 	str	r2, [r3, #4]
20030634:	e51b3010 	ldr	r3, [fp, #-16]
20030638:	e3a02001 	mov	r2, #1
2003063c:	e1a02312 	lsl	r2, r2, r3
20030640:	e30c3614 	movw	r3, #50708	; 0xc614
20030644:	e3423003 	movt	r3, #8195	; 0x2003
20030648:	e5933000 	ldr	r3, [r3]
2003064c:	e0023003 	and	r3, r2, r3
20030650:	e3530000 	cmp	r3, #0
20030654:	0a00003c 	beq	2003074c <syslog_wri_log+0x148>
20030658:	e30c360c 	movw	r3, #50700	; 0xc60c
2003065c:	e3423003 	movt	r3, #8195	; 0x2003
20030660:	e5931000 	ldr	r1, [r3]
20030664:	e30c2004 	movw	r2, #49156	; 0xc004
20030668:	e3422003 	movt	r2, #8195	; 0x2003
2003066c:	e1a03001 	mov	r3, r1
20030670:	e1a03083 	lsl	r3, r3, #1
20030674:	e0833001 	add	r3, r3, r1
20030678:	e1a03203 	lsl	r3, r3, #4
2003067c:	e0822003 	add	r2, r2, r3
20030680:	e51b3014 	ldr	r3, [fp, #-20]	; 0xffffffec
20030684:	e1a0c002 	mov	ip, r2
20030688:	e1a0e003 	mov	lr, r3
2003068c:	e8be000f 	ldm	lr!, {r0, r1, r2, r3}
20030690:	e8ac000f 	stmia	ip!, {r0, r1, r2, r3}
20030694:	e8be000f 	ldm	lr!, {r0, r1, r2, r3}
20030698:	e8ac000f 	stmia	ip!, {r0, r1, r2, r3}
2003069c:	e89e000f 	ldm	lr, {r0, r1, r2, r3}
200306a0:	e88c000f 	stm	ip, {r0, r1, r2, r3}
200306a4:	e30c360c 	movw	r3, #50700	; 0xc60c
200306a8:	e3423003 	movt	r3, #8195	; 0x2003
200306ac:	e5933000 	ldr	r3, [r3]
200306b0:	e2832001 	add	r2, r3, #1
200306b4:	e30c360c 	movw	r3, #50700	; 0xc60c
200306b8:	e3423003 	movt	r3, #8195	; 0x2003
200306bc:	e5832000 	str	r2, [r3]
200306c0:	e30c360c 	movw	r3, #50700	; 0xc60c
200306c4:	e3423003 	movt	r3, #8195	; 0x2003
200306c8:	e5933000 	ldr	r3, [r3]
200306cc:	e353001f 	cmp	r3, #31
200306d0:	9a000003 	bls	200306e4 <syslog_wri_log+0xe0>
200306d4:	e30c360c 	movw	r3, #50700	; 0xc60c
200306d8:	e3423003 	movt	r3, #8195	; 0x2003
200306dc:	e3a02000 	mov	r2, #0
200306e0:	e5832000 	str	r2, [r3]
200306e4:	e30c3604 	movw	r3, #50692	; 0xc604
200306e8:	e3423003 	movt	r3, #8195	; 0x2003
200306ec:	e5933000 	ldr	r3, [r3]
200306f0:	e353001f 	cmp	r3, #31
200306f4:	8a000007 	bhi	20030718 <syslog_wri_log+0x114>
200306f8:	e30c3604 	movw	r3, #50692	; 0xc604
200306fc:	e3423003 	movt	r3, #8195	; 0x2003
20030700:	e5933000 	ldr	r3, [r3]
20030704:	e2832001 	add	r2, r3, #1
20030708:	e30c3604 	movw	r3, #50692	; 0xc604
2003070c:	e3423003 	movt	r3, #8195	; 0x2003
20030710:	e5832000 	str	r2, [r3]
20030714:	ea00000c 	b	2003074c <syslog_wri_log+0x148>
20030718:	e30c360c 	movw	r3, #50700	; 0xc60c
2003071c:	e3423003 	movt	r3, #8195	; 0x2003
20030720:	e5932000 	ldr	r2, [r3]
20030724:	e30c3608 	movw	r3, #50696	; 0xc608
20030728:	e3423003 	movt	r3, #8195	; 0x2003
2003072c:	e5832000 	str	r2, [r3]
20030730:	e30c3610 	movw	r3, #50704	; 0xc610
20030734:	e3423003 	movt	r3, #8195	; 0x2003
20030738:	e5933000 	ldr	r3, [r3]
2003073c:	e2832001 	add	r2, r3, #1
20030740:	e30c3610 	movw	r3, #50704	; 0xc610
20030744:	e3423003 	movt	r3, #8195	; 0x2003
20030748:	e5832000 	str	r2, [r3]
2003074c:	e30c3618 	movw	r3, #50712	; 0xc618
20030750:	e3423003 	movt	r3, #8195	; 0x2003
20030754:	e5933000 	ldr	r3, [r3]
20030758:	e1e02003 	mvn	r2, r3
2003075c:	e51b3010 	ldr	r3, [fp, #-16]
20030760:	e3a01001 	mov	r1, #1
20030764:	e1a03311 	lsl	r3, r1, r3
20030768:	e0023003 	and	r3, r2, r3
2003076c:	e3530000 	cmp	r3, #0
20030770:	0a000005 	beq	2003078c <syslog_wri_log+0x188>
20030774:	e51b0014 	ldr	r0, [fp, #-20]	; 0xffffffec
20030778:	e3031858 	movw	r1, #14424	; 0x3858
2003077c:	e3421003 	movt	r1, #8195	; 0x2003
20030780:	eb0007b5 	bl	2003265c <syslog_print>
20030784:	e3a0000a 	mov	r0, #10
20030788:	eb000c32 	bl	20033858 <target_fput_log>
2003078c:	e51b0008 	ldr	r0, [fp, #-8]
20030790:	ebffff67 	bl	20030534 <TOPPERS_set_fiq_irq>
20030794:	e3a03000 	mov	r3, #0
20030798:	e1a00003 	mov	r0, r3
2003079c:	e24bd004 	sub	sp, fp, #4
200307a0:	e8bd8800 	pop	{fp, pc}

200307a4 <syslog_rea_log>:
200307a4:	e92d4800 	push	{fp, lr}
200307a8:	e28db004 	add	fp, sp, #4
200307ac:	e24dd010 	sub	sp, sp, #16
200307b0:	e50b0010 	str	r0, [fp, #-16]
200307b4:	ebffff4c 	bl	200304ec <TOPPERS_disint>
200307b8:	e50b000c 	str	r0, [fp, #-12]
200307bc:	e30c3604 	movw	r3, #50692	; 0xc604
200307c0:	e3423003 	movt	r3, #8195	; 0x2003
200307c4:	e5933000 	ldr	r3, [r3]
200307c8:	e3530000 	cmp	r3, #0
200307cc:	0a000032 	beq	2003089c <syslog_rea_log+0xf8>
200307d0:	e30c3608 	movw	r3, #50696	; 0xc608
200307d4:	e3423003 	movt	r3, #8195	; 0x2003
200307d8:	e5931000 	ldr	r1, [r3]
200307dc:	e51b0010 	ldr	r0, [fp, #-16]
200307e0:	e30c2004 	movw	r2, #49156	; 0xc004
200307e4:	e3422003 	movt	r2, #8195	; 0x2003
200307e8:	e1a03001 	mov	r3, r1
200307ec:	e1a03083 	lsl	r3, r3, #1
200307f0:	e0833001 	add	r3, r3, r1
200307f4:	e1a03203 	lsl	r3, r3, #4
200307f8:	e0823003 	add	r3, r2, r3
200307fc:	e1a0c000 	mov	ip, r0
20030800:	e1a0e003 	mov	lr, r3
20030804:	e8be000f 	ldm	lr!, {r0, r1, r2, r3}
20030808:	e8ac000f 	stmia	ip!, {r0, r1, r2, r3}
2003080c:	e8be000f 	ldm	lr!, {r0, r1, r2, r3}
20030810:	e8ac000f 	stmia	ip!, {r0, r1, r2, r3}
20030814:	e89e000f 	ldm	lr, {r0, r1, r2, r3}
20030818:	e88c000f 	stm	ip, {r0, r1, r2, r3}
2003081c:	e30c3604 	movw	r3, #50692	; 0xc604
20030820:	e3423003 	movt	r3, #8195	; 0x2003
20030824:	e5933000 	ldr	r3, [r3]
20030828:	e2432001 	sub	r2, r3, #1
2003082c:	e30c3604 	movw	r3, #50692	; 0xc604
20030830:	e3423003 	movt	r3, #8195	; 0x2003
20030834:	e5832000 	str	r2, [r3]
20030838:	e30c3608 	movw	r3, #50696	; 0xc608
2003083c:	e3423003 	movt	r3, #8195	; 0x2003
20030840:	e5933000 	ldr	r3, [r3]
20030844:	e2832001 	add	r2, r3, #1
20030848:	e30c3608 	movw	r3, #50696	; 0xc608
2003084c:	e3423003 	movt	r3, #8195	; 0x2003
20030850:	e5832000 	str	r2, [r3]
20030854:	e30c3608 	movw	r3, #50696	; 0xc608
20030858:	e3423003 	movt	r3, #8195	; 0x2003
2003085c:	e5933000 	ldr	r3, [r3]
20030860:	e353001f 	cmp	r3, #31
20030864:	9a000003 	bls	20030878 <syslog_rea_log+0xd4>
20030868:	e30c3608 	movw	r3, #50696	; 0xc608
2003086c:	e3423003 	movt	r3, #8195	; 0x2003
20030870:	e3a02000 	mov	r2, #0
20030874:	e5832000 	str	r2, [r3]
20030878:	e30c3610 	movw	r3, #50704	; 0xc610
2003087c:	e3423003 	movt	r3, #8195	; 0x2003
20030880:	e5933000 	ldr	r3, [r3]
20030884:	e50b3008 	str	r3, [fp, #-8]
20030888:	e30c3610 	movw	r3, #50704	; 0xc610
2003088c:	e3423003 	movt	r3, #8195	; 0x2003
20030890:	e3a02000 	mov	r2, #0
20030894:	e5832000 	str	r2, [r3]
20030898:	ea000001 	b	200308a4 <syslog_rea_log+0x100>
2003089c:	e3e03028 	mvn	r3, #40	; 0x28
200308a0:	e50b3008 	str	r3, [fp, #-8]
200308a4:	e51b000c 	ldr	r0, [fp, #-12]
200308a8:	ebffff21 	bl	20030534 <TOPPERS_set_fiq_irq>
200308ac:	e51b3008 	ldr	r3, [fp, #-8]
200308b0:	e1a00003 	mov	r0, r3
200308b4:	e24bd004 	sub	sp, fp, #4
200308b8:	e8bd8800 	pop	{fp, pc}

200308bc <syslog_msk_log>:
200308bc:	e52db004 	push	{fp}		; (str fp, [sp, #-4]!)
200308c0:	e28db000 	add	fp, sp, #0
200308c4:	e24dd00c 	sub	sp, sp, #12
200308c8:	e50b0008 	str	r0, [fp, #-8]
200308cc:	e50b100c 	str	r1, [fp, #-12]
200308d0:	e30c3614 	movw	r3, #50708	; 0xc614
200308d4:	e3423003 	movt	r3, #8195	; 0x2003
200308d8:	e51b2008 	ldr	r2, [fp, #-8]
200308dc:	e5832000 	str	r2, [r3]
200308e0:	e51b300c 	ldr	r3, [fp, #-12]
200308e4:	e1e02003 	mvn	r2, r3
200308e8:	e30c3618 	movw	r3, #50712	; 0xc618
200308ec:	e3423003 	movt	r3, #8195	; 0x2003
200308f0:	e5832000 	str	r2, [r3]
200308f4:	e3a03000 	mov	r3, #0
200308f8:	e1a00003 	mov	r0, r3
200308fc:	e28bd000 	add	sp, fp, #0
20030900:	e49db004 	pop	{fp}		; (ldr fp, [sp], #4)
20030904:	e12fff1e 	bx	lr

20030908 <syslog_ref_log>:
20030908:	e92d4800 	push	{fp, lr}
2003090c:	e28db004 	add	fp, sp, #4
20030910:	e24dd010 	sub	sp, sp, #16
20030914:	e50b0010 	str	r0, [fp, #-16]
20030918:	ebfffef3 	bl	200304ec <TOPPERS_disint>
2003091c:	e50b0008 	str	r0, [fp, #-8]
20030920:	e30c3604 	movw	r3, #50692	; 0xc604
20030924:	e3423003 	movt	r3, #8195	; 0x2003
20030928:	e5932000 	ldr	r2, [r3]
2003092c:	e51b3010 	ldr	r3, [fp, #-16]
20030930:	e5832000 	str	r2, [r3]
20030934:	e30c3610 	movw	r3, #50704	; 0xc610
20030938:	e3423003 	movt	r3, #8195	; 0x2003
2003093c:	e5932000 	ldr	r2, [r3]
20030940:	e51b3010 	ldr	r3, [fp, #-16]
20030944:	e5832004 	str	r2, [r3, #4]
20030948:	e30c3614 	movw	r3, #50708	; 0xc614
2003094c:	e3423003 	movt	r3, #8195	; 0x2003
20030950:	e5932000 	ldr	r2, [r3]
20030954:	e51b3010 	ldr	r3, [fp, #-16]
20030958:	e5832008 	str	r2, [r3, #8]
2003095c:	e30c3618 	movw	r3, #50712	; 0xc618
20030960:	e3423003 	movt	r3, #8195	; 0x2003
20030964:	e5933000 	ldr	r3, [r3]
20030968:	e1e02003 	mvn	r2, r3
2003096c:	e51b3010 	ldr	r3, [fp, #-16]
20030970:	e583200c 	str	r2, [r3, #12]
20030974:	e51b0008 	ldr	r0, [fp, #-8]
20030978:	ebfffeed 	bl	20030534 <TOPPERS_set_fiq_irq>
2003097c:	e3a03000 	mov	r3, #0
20030980:	e1a00003 	mov	r0, r3
20030984:	e24bd004 	sub	sp, fp, #4
20030988:	e8bd8800 	pop	{fp, pc}

2003098c <gen_ercd_sys>:
2003098c:	e52db004 	push	{fp}		; (str fp, [sp, #-4]!)
20030990:	e28db000 	add	fp, sp, #0
20030994:	e24dd00c 	sub	sp, sp, #12
20030998:	e50b0008 	str	r0, [fp, #-8]
2003099c:	e51b3008 	ldr	r3, [fp, #-8]
200309a0:	e3a02001 	mov	r2, #1
200309a4:	e583200c 	str	r2, [r3, #12]
200309a8:	e3e03004 	mvn	r3, #4
200309ac:	e1a00003 	mov	r0, r3
200309b0:	e28bd000 	add	sp, fp, #0
200309b4:	e49db004 	pop	{fp}		; (ldr fp, [sp], #4)
200309b8:	e12fff1e 	bx	lr

200309bc <gen_ercd_wait>:
200309bc:	e52db004 	push	{fp}		; (str fp, [sp, #-4]!)
200309c0:	e28db000 	add	fp, sp, #0
200309c4:	e24dd00c 	sub	sp, sp, #12
200309c8:	e50b0008 	str	r0, [fp, #-8]
200309cc:	e50b100c 	str	r1, [fp, #-12]
200309d0:	e51b3008 	ldr	r3, [fp, #-8]
200309d4:	e6ef3073 	uxtb	r3, r3
200309d8:	e6af3073 	sxtb	r3, r3
200309dc:	e3730033 	cmn	r3, #51	; 0x33
200309e0:	0a000001 	beq	200309ec <gen_ercd_wait+0x30>
200309e4:	e3730031 	cmn	r3, #49	; 0x31
200309e8:	1a000001 	bne	200309f4 <gen_ercd_wait+0x38>
200309ec:	e51b3008 	ldr	r3, [fp, #-8]
200309f0:	ea000003 	b	20030a04 <gen_ercd_wait+0x48>
200309f4:	e51b300c 	ldr	r3, [fp, #-12]
200309f8:	e3a02001 	mov	r2, #1
200309fc:	e583200c 	str	r2, [r3, #12]
20030a00:	e3e03004 	mvn	r3, #4
20030a04:	e1a00003 	mov	r0, r3
20030a08:	e28bd000 	add	sp, fp, #0
20030a0c:	e49db004 	pop	{fp}		; (ldr fp, [sp], #4)
20030a10:	e12fff1e 	bx	lr

20030a14 <serial_initialize>:
20030a14:	e52db004 	push	{fp}		; (str fp, [sp, #-4]!)
20030a18:	e28db000 	add	fp, sp, #0
20030a1c:	e24dd014 	sub	sp, sp, #20
20030a20:	e50b0010 	str	r0, [fp, #-16]
20030a24:	e30c3a1c 	movw	r3, #51740	; 0xca1c
20030a28:	e3423003 	movt	r3, #8195	; 0x2003
20030a2c:	e50b300c 	str	r3, [fp, #-12]
20030a30:	e3a03000 	mov	r3, #0
20030a34:	e50b3008 	str	r3, [fp, #-8]
20030a38:	ea000013 	b	20030a8c <serial_initialize+0x78>
20030a3c:	e51b2008 	ldr	r2, [fp, #-8]
20030a40:	e1a03002 	mov	r3, r2
20030a44:	e1a03083 	lsl	r3, r3, #1
20030a48:	e0833002 	add	r3, r3, r2
20030a4c:	e1a03183 	lsl	r3, r3, #3
20030a50:	e1a02003 	mov	r2, r3
20030a54:	e30a3c14 	movw	r3, #44052	; 0xac14
20030a58:	e3423003 	movt	r3, #8195	; 0x2003
20030a5c:	e0822003 	add	r2, r2, r3
20030a60:	e51b300c 	ldr	r3, [fp, #-12]
20030a64:	e5832000 	str	r2, [r3]
20030a68:	e51b300c 	ldr	r3, [fp, #-12]
20030a6c:	e3a02000 	mov	r2, #0
20030a70:	e5832008 	str	r2, [r3, #8]
20030a74:	e51b300c 	ldr	r3, [fp, #-12]
20030a78:	e2833038 	add	r3, r3, #56	; 0x38
20030a7c:	e50b300c 	str	r3, [fp, #-12]
20030a80:	e51b3008 	ldr	r3, [fp, #-8]
20030a84:	e2833001 	add	r3, r3, #1
20030a88:	e50b3008 	str	r3, [fp, #-8]
20030a8c:	e51b3008 	ldr	r3, [fp, #-8]
20030a90:	e3530001 	cmp	r3, #1
20030a94:	9affffe8 	bls	20030a3c <serial_initialize+0x28>
20030a98:	e28bd000 	add	sp, fp, #0
20030a9c:	e49db004 	pop	{fp}		; (ldr fp, [sp], #4)
20030aa0:	e12fff1e 	bx	lr

20030aa4 <serial_opn_por>:
20030aa4:	e92d4800 	push	{fp, lr}
20030aa8:	e28db004 	add	fp, sp, #4
20030aac:	e24dd010 	sub	sp, sp, #16
20030ab0:	e50b0010 	str	r0, [fp, #-16]
20030ab4:	eb002329 	bl	20039760 <sns_dpn>
20030ab8:	e1a03000 	mov	r3, r0
20030abc:	e3530000 	cmp	r3, #0
20030ac0:	0a000001 	beq	20030acc <serial_opn_por+0x28>
20030ac4:	e3e03018 	mvn	r3, #24
20030ac8:	ea00006e 	b	20030c88 <serial_opn_por+0x1e4>
20030acc:	e51b3010 	ldr	r3, [fp, #-16]
20030ad0:	e3530000 	cmp	r3, #0
20030ad4:	da000002 	ble	20030ae4 <serial_opn_por+0x40>
20030ad8:	e51b3010 	ldr	r3, [fp, #-16]
20030adc:	e3530002 	cmp	r3, #2
20030ae0:	da000001 	ble	20030aec <serial_opn_por+0x48>
20030ae4:	e3e03011 	mvn	r3, #17
20030ae8:	ea000066 	b	20030c88 <serial_opn_por+0x1e4>
20030aec:	e51b3010 	ldr	r3, [fp, #-16]
20030af0:	e2432001 	sub	r2, r3, #1
20030af4:	e1a03002 	mov	r3, r2
20030af8:	e1a03183 	lsl	r3, r3, #3
20030afc:	e0623003 	rsb	r3, r2, r3
20030b00:	e1a03183 	lsl	r3, r3, #3
20030b04:	e1a02003 	mov	r2, r3
20030b08:	e30c3a1c 	movw	r3, #51740	; 0xca1c
20030b0c:	e3423003 	movt	r3, #8195	; 0x2003
20030b10:	e0823003 	add	r3, r2, r3
20030b14:	e50b300c 	str	r3, [fp, #-12]
20030b18:	eb0022a1 	bl	200395a4 <dis_dsp>
20030b1c:	e1a03000 	mov	r3, r0
20030b20:	e3530000 	cmp	r3, #0
20030b24:	aa000003 	bge	20030b38 <serial_opn_por+0x94>
20030b28:	e51b000c 	ldr	r0, [fp, #-12]
20030b2c:	ebffff96 	bl	2003098c <gen_ercd_sys>
20030b30:	e50b0008 	str	r0, [fp, #-8]
20030b34:	ea000052 	b	20030c84 <serial_opn_por+0x1e0>
20030b38:	e51b300c 	ldr	r3, [fp, #-12]
20030b3c:	e5933008 	ldr	r3, [r3, #8]
20030b40:	e3530000 	cmp	r3, #0
20030b44:	0a000002 	beq	20030b54 <serial_opn_por+0xb0>
20030b48:	e3e03028 	mvn	r3, #40	; 0x28
20030b4c:	e50b3008 	str	r3, [fp, #-8]
20030b50:	ea000044 	b	20030c68 <serial_opn_por+0x1c4>
20030b54:	e51b300c 	ldr	r3, [fp, #-12]
20030b58:	e3002511 	movw	r2, #1297	; 0x511
20030b5c:	e5832010 	str	r2, [r3, #16]
20030b60:	e51b300c 	ldr	r3, [fp, #-12]
20030b64:	e3a02000 	mov	r2, #0
20030b68:	e5832018 	str	r2, [r3, #24]
20030b6c:	e51b300c 	ldr	r3, [fp, #-12]
20030b70:	e5932018 	ldr	r2, [r3, #24]
20030b74:	e51b300c 	ldr	r3, [fp, #-12]
20030b78:	e5832014 	str	r2, [r3, #20]
20030b7c:	e51b300c 	ldr	r3, [fp, #-12]
20030b80:	e3a02000 	mov	r2, #0
20030b84:	e583201c 	str	r2, [r3, #28]
20030b88:	e51b300c 	ldr	r3, [fp, #-12]
20030b8c:	e3a02000 	mov	r2, #0
20030b90:	e5c32020 	strb	r2, [r3, #32]
20030b94:	e51b300c 	ldr	r3, [fp, #-12]
20030b98:	e3a02000 	mov	r2, #0
20030b9c:	e5832024 	str	r2, [r3, #36]	; 0x24
20030ba0:	e51b300c 	ldr	r3, [fp, #-12]
20030ba4:	e3a02000 	mov	r2, #0
20030ba8:	e583202c 	str	r2, [r3, #44]	; 0x2c
20030bac:	e51b300c 	ldr	r3, [fp, #-12]
20030bb0:	e593202c 	ldr	r2, [r3, #44]	; 0x2c
20030bb4:	e51b300c 	ldr	r3, [fp, #-12]
20030bb8:	e5832028 	str	r2, [r3, #40]	; 0x28
20030bbc:	e51b300c 	ldr	r3, [fp, #-12]
20030bc0:	e3a02000 	mov	r2, #0
20030bc4:	e5832030 	str	r2, [r3, #48]	; 0x30
20030bc8:	e51b300c 	ldr	r3, [fp, #-12]
20030bcc:	e3a02000 	mov	r2, #0
20030bd0:	e5832034 	str	r2, [r3, #52]	; 0x34
20030bd4:	eb00221e 	bl	20039454 <loc_cpu>
20030bd8:	e1a03000 	mov	r3, r0
20030bdc:	e3530000 	cmp	r3, #0
20030be0:	aa000002 	bge	20030bf0 <serial_opn_por+0x14c>
20030be4:	e3e03004 	mvn	r3, #4
20030be8:	e50b3008 	str	r3, [fp, #-8]
20030bec:	ea00001d 	b	20030c68 <serial_opn_por+0x1c4>
20030bf0:	e51b300c 	ldr	r3, [fp, #-12]
20030bf4:	e51b0010 	ldr	r0, [fp, #-16]
20030bf8:	e1a01003 	mov	r1, r3
20030bfc:	eb000c00 	bl	20033c04 <sio_opn_por>
20030c00:	e1a02000 	mov	r2, r0
20030c04:	e51b300c 	ldr	r3, [fp, #-12]
20030c08:	e5832004 	str	r2, [r3, #4]
20030c0c:	e51b300c 	ldr	r3, [fp, #-12]
20030c10:	e5933004 	ldr	r3, [r3, #4]
20030c14:	e1a00003 	mov	r0, r3
20030c18:	e3a01002 	mov	r1, #2
20030c1c:	eb000c4c 	bl	20033d54 <sio_ena_cbr>
20030c20:	e51b300c 	ldr	r3, [fp, #-12]
20030c24:	e3a02001 	mov	r2, #1
20030c28:	e5832008 	str	r2, [r3, #8]
20030c2c:	e51b300c 	ldr	r3, [fp, #-12]
20030c30:	e3a02000 	mov	r2, #0
20030c34:	e583200c 	str	r2, [r3, #12]
20030c38:	eb00222f 	bl	200394fc <unl_cpu>
20030c3c:	e1a03000 	mov	r3, r0
20030c40:	e3530000 	cmp	r3, #0
20030c44:	aa000005 	bge	20030c60 <serial_opn_por+0x1bc>
20030c48:	e51b300c 	ldr	r3, [fp, #-12]
20030c4c:	e3a02001 	mov	r2, #1
20030c50:	e583200c 	str	r2, [r3, #12]
20030c54:	e3e03004 	mvn	r3, #4
20030c58:	e50b3008 	str	r3, [fp, #-8]
20030c5c:	ea000001 	b	20030c68 <serial_opn_por+0x1c4>
20030c60:	e3a03000 	mov	r3, #0
20030c64:	e50b3008 	str	r3, [fp, #-8]
20030c68:	eb00226b 	bl	2003961c <ena_dsp>
20030c6c:	e1a03000 	mov	r3, r0
20030c70:	e3530000 	cmp	r3, #0
20030c74:	aa000002 	bge	20030c84 <serial_opn_por+0x1e0>
20030c78:	e51b000c 	ldr	r0, [fp, #-12]
20030c7c:	ebffff42 	bl	2003098c <gen_ercd_sys>
20030c80:	e50b0008 	str	r0, [fp, #-8]
20030c84:	e51b3008 	ldr	r3, [fp, #-8]
20030c88:	e1a00003 	mov	r0, r3
20030c8c:	e24bd004 	sub	sp, fp, #4
20030c90:	e8bd8800 	pop	{fp, pc}

20030c94 <serial_cls_por>:
20030c94:	e92d4800 	push	{fp, lr}
20030c98:	e28db004 	add	fp, sp, #4
20030c9c:	e24dd018 	sub	sp, sp, #24
20030ca0:	e50b0018 	str	r0, [fp, #-24]	; 0xffffffe8
20030ca4:	e3a03000 	mov	r3, #0
20030ca8:	e50b300c 	str	r3, [fp, #-12]
20030cac:	eb0022ab 	bl	20039760 <sns_dpn>
20030cb0:	e1a03000 	mov	r3, r0
20030cb4:	e3530000 	cmp	r3, #0
20030cb8:	0a000001 	beq	20030cc4 <serial_cls_por+0x30>
20030cbc:	e3e03018 	mvn	r3, #24
20030cc0:	ea000059 	b	20030e2c <serial_cls_por+0x198>
20030cc4:	e51b3018 	ldr	r3, [fp, #-24]	; 0xffffffe8
20030cc8:	e3530000 	cmp	r3, #0
20030ccc:	da000002 	ble	20030cdc <serial_cls_por+0x48>
20030cd0:	e51b3018 	ldr	r3, [fp, #-24]	; 0xffffffe8
20030cd4:	e3530002 	cmp	r3, #2
20030cd8:	da000001 	ble	20030ce4 <serial_cls_por+0x50>
20030cdc:	e3e03011 	mvn	r3, #17
20030ce0:	ea000051 	b	20030e2c <serial_cls_por+0x198>
20030ce4:	e51b3018 	ldr	r3, [fp, #-24]	; 0xffffffe8
20030ce8:	e2432001 	sub	r2, r3, #1
20030cec:	e1a03002 	mov	r3, r2
20030cf0:	e1a03183 	lsl	r3, r3, #3
20030cf4:	e0623003 	rsb	r3, r2, r3
20030cf8:	e1a03183 	lsl	r3, r3, #3
20030cfc:	e1a02003 	mov	r2, r3
20030d00:	e30c3a1c 	movw	r3, #51740	; 0xca1c
20030d04:	e3423003 	movt	r3, #8195	; 0x2003
20030d08:	e0823003 	add	r3, r2, r3
20030d0c:	e50b3010 	str	r3, [fp, #-16]
20030d10:	eb002223 	bl	200395a4 <dis_dsp>
20030d14:	e1a03000 	mov	r3, r0
20030d18:	e3530000 	cmp	r3, #0
20030d1c:	aa000003 	bge	20030d30 <serial_cls_por+0x9c>
20030d20:	e51b0010 	ldr	r0, [fp, #-16]
20030d24:	ebffff18 	bl	2003098c <gen_ercd_sys>
20030d28:	e50b0008 	str	r0, [fp, #-8]
20030d2c:	ea00003d 	b	20030e28 <serial_cls_por+0x194>
20030d30:	e51b3010 	ldr	r3, [fp, #-16]
20030d34:	e5933008 	ldr	r3, [r3, #8]
20030d38:	e3530000 	cmp	r3, #0
20030d3c:	1a000002 	bne	20030d4c <serial_cls_por+0xb8>
20030d40:	e3e03028 	mvn	r3, #40	; 0x28
20030d44:	e50b3008 	str	r3, [fp, #-8]
20030d48:	ea00002f 	b	20030e0c <serial_cls_por+0x178>
20030d4c:	eb0021c0 	bl	20039454 <loc_cpu>
20030d50:	e1a03000 	mov	r3, r0
20030d54:	e3530000 	cmp	r3, #0
20030d58:	aa000001 	bge	20030d64 <serial_cls_por+0xd0>
20030d5c:	e3a03001 	mov	r3, #1
20030d60:	e50b300c 	str	r3, [fp, #-12]
20030d64:	e51b3010 	ldr	r3, [fp, #-16]
20030d68:	e5933004 	ldr	r3, [r3, #4]
20030d6c:	e1a00003 	mov	r0, r3
20030d70:	eb000bca 	bl	20033ca0 <sio_cls_por>
20030d74:	e51b3010 	ldr	r3, [fp, #-16]
20030d78:	e3a02000 	mov	r2, #0
20030d7c:	e5832008 	str	r2, [r3, #8]
20030d80:	eb0021dd 	bl	200394fc <unl_cpu>
20030d84:	e1a03000 	mov	r3, r0
20030d88:	e3530000 	cmp	r3, #0
20030d8c:	aa000001 	bge	20030d98 <serial_cls_por+0x104>
20030d90:	e3a03001 	mov	r3, #1
20030d94:	e50b300c 	str	r3, [fp, #-12]
20030d98:	e51b3010 	ldr	r3, [fp, #-16]
20030d9c:	e5933000 	ldr	r3, [r3]
20030da0:	e5933004 	ldr	r3, [r3, #4]
20030da4:	e1a00003 	mov	r0, r3
20030da8:	eb001e47 	bl	200386cc <ini_sem>
20030dac:	e1a03000 	mov	r3, r0
20030db0:	e3530000 	cmp	r3, #0
20030db4:	aa000001 	bge	20030dc0 <serial_cls_por+0x12c>
20030db8:	e3a03001 	mov	r3, #1
20030dbc:	e50b300c 	str	r3, [fp, #-12]
20030dc0:	e51b3010 	ldr	r3, [fp, #-16]
20030dc4:	e5933000 	ldr	r3, [r3]
20030dc8:	e5933000 	ldr	r3, [r3]
20030dcc:	e1a00003 	mov	r0, r3
20030dd0:	eb001e3d 	bl	200386cc <ini_sem>
20030dd4:	e1a03000 	mov	r3, r0
20030dd8:	e3530000 	cmp	r3, #0
20030ddc:	aa000001 	bge	20030de8 <serial_cls_por+0x154>
20030de0:	e3a03001 	mov	r3, #1
20030de4:	e50b300c 	str	r3, [fp, #-12]
20030de8:	e51b300c 	ldr	r3, [fp, #-12]
20030dec:	e3530000 	cmp	r3, #0
20030df0:	0a000003 	beq	20030e04 <serial_cls_por+0x170>
20030df4:	e51b0010 	ldr	r0, [fp, #-16]
20030df8:	ebfffee3 	bl	2003098c <gen_ercd_sys>
20030dfc:	e50b0008 	str	r0, [fp, #-8]
20030e00:	ea000001 	b	20030e0c <serial_cls_por+0x178>
20030e04:	e3a03000 	mov	r3, #0
20030e08:	e50b3008 	str	r3, [fp, #-8]
20030e0c:	eb002202 	bl	2003961c <ena_dsp>
20030e10:	e1a03000 	mov	r3, r0
20030e14:	e3530000 	cmp	r3, #0
20030e18:	aa000002 	bge	20030e28 <serial_cls_por+0x194>
20030e1c:	e51b0010 	ldr	r0, [fp, #-16]
20030e20:	ebfffed9 	bl	2003098c <gen_ercd_sys>
20030e24:	e50b0008 	str	r0, [fp, #-8]
20030e28:	e51b3008 	ldr	r3, [fp, #-8]
20030e2c:	e1a00003 	mov	r0, r3
20030e30:	e24bd004 	sub	sp, fp, #4
20030e34:	e8bd8800 	pop	{fp, pc}

20030e38 <serial_snd_chr>:
20030e38:	e92d4800 	push	{fp, lr}
20030e3c:	e28db004 	add	fp, sp, #4
20030e40:	e24dd008 	sub	sp, sp, #8
20030e44:	e50b0008 	str	r0, [fp, #-8]
20030e48:	e1a03001 	mov	r3, r1
20030e4c:	e54b3009 	strb	r3, [fp, #-9]
20030e50:	e51b3008 	ldr	r3, [fp, #-8]
20030e54:	e5932004 	ldr	r2, [r3, #4]
20030e58:	e55b3009 	ldrb	r3, [fp, #-9]
20030e5c:	e1a00002 	mov	r0, r2
20030e60:	e1a01003 	mov	r1, r3
20030e64:	eb000ba2 	bl	20033cf4 <sio_snd_chr>
20030e68:	e1a03000 	mov	r3, r0
20030e6c:	e3530000 	cmp	r3, #0
20030e70:	0a000001 	beq	20030e7c <serial_snd_chr+0x44>
20030e74:	e3a03001 	mov	r3, #1
20030e78:	ea000005 	b	20030e94 <serial_snd_chr+0x5c>
20030e7c:	e51b3008 	ldr	r3, [fp, #-8]
20030e80:	e5933004 	ldr	r3, [r3, #4]
20030e84:	e1a00003 	mov	r0, r3
20030e88:	e3a01001 	mov	r1, #1
20030e8c:	eb000bb0 	bl	20033d54 <sio_ena_cbr>
20030e90:	e3a03000 	mov	r3, #0
20030e94:	e1a00003 	mov	r0, r3
20030e98:	e24bd004 	sub	sp, fp, #4
20030e9c:	e8bd8800 	pop	{fp, pc}

20030ea0 <serial_wri_chr>:
20030ea0:	e92d4800 	push	{fp, lr}
20030ea4:	e28db004 	add	fp, sp, #4
20030ea8:	e24dd018 	sub	sp, sp, #24
20030eac:	e50b0018 	str	r0, [fp, #-24]	; 0xffffffe8
20030eb0:	e1a03001 	mov	r3, r1
20030eb4:	e54b3019 	strb	r3, [fp, #-25]	; 0xffffffe7
20030eb8:	e55b3019 	ldrb	r3, [fp, #-25]	; 0xffffffe7
20030ebc:	e353000a 	cmp	r3, #10
20030ec0:	1a00001f 	bne	20030f44 <serial_wri_chr+0xa4>
20030ec4:	e51b3018 	ldr	r3, [fp, #-24]	; 0xffffffe8
20030ec8:	e5933010 	ldr	r3, [r3, #16]
20030ecc:	e2033010 	and	r3, r3, #16
20030ed0:	e3530000 	cmp	r3, #0
20030ed4:	0a00001a 	beq	20030f44 <serial_wri_chr+0xa4>
20030ed8:	e51b0018 	ldr	r0, [fp, #-24]	; 0xffffffe8
20030edc:	e3a0100d 	mov	r1, #13
20030ee0:	ebffffee 	bl	20030ea0 <serial_wri_chr>
20030ee4:	e50b0010 	str	r0, [fp, #-16]
20030ee8:	e51b3010 	ldr	r3, [fp, #-16]
20030eec:	e3530000 	cmp	r3, #0
20030ef0:	aa000002 	bge	20030f00 <serial_wri_chr+0x60>
20030ef4:	e51b3010 	ldr	r3, [fp, #-16]
20030ef8:	e50b300c 	str	r3, [fp, #-12]
20030efc:	ea000059 	b	20031068 <serial_wri_chr+0x1c8>
20030f00:	e51b3010 	ldr	r3, [fp, #-16]
20030f04:	e3530000 	cmp	r3, #0
20030f08:	0a00000d 	beq	20030f44 <serial_wri_chr+0xa4>
20030f0c:	e51b3018 	ldr	r3, [fp, #-24]	; 0xffffffe8
20030f10:	e5933000 	ldr	r3, [r3]
20030f14:	e5933004 	ldr	r3, [r3, #4]
20030f18:	e1a00003 	mov	r0, r3
20030f1c:	eb001d15 	bl	20038378 <wai_sem>
20030f20:	e50b0010 	str	r0, [fp, #-16]
20030f24:	e51b3010 	ldr	r3, [fp, #-16]
20030f28:	e3530000 	cmp	r3, #0
20030f2c:	aa000004 	bge	20030f44 <serial_wri_chr+0xa4>
20030f30:	e51b0010 	ldr	r0, [fp, #-16]
20030f34:	e51b1018 	ldr	r1, [fp, #-24]	; 0xffffffe8
20030f38:	ebfffe9f 	bl	200309bc <gen_ercd_wait>
20030f3c:	e50b000c 	str	r0, [fp, #-12]
20030f40:	ea000048 	b	20031068 <serial_wri_chr+0x1c8>
20030f44:	eb002142 	bl	20039454 <loc_cpu>
20030f48:	e1a03000 	mov	r3, r0
20030f4c:	e3530000 	cmp	r3, #0
20030f50:	aa000003 	bge	20030f64 <serial_wri_chr+0xc4>
20030f54:	e51b0018 	ldr	r0, [fp, #-24]	; 0xffffffe8
20030f58:	ebfffe8b 	bl	2003098c <gen_ercd_sys>
20030f5c:	e50b000c 	str	r0, [fp, #-12]
20030f60:	ea000040 	b	20031068 <serial_wri_chr+0x1c8>
20030f64:	e51b3018 	ldr	r3, [fp, #-24]	; 0xffffffe8
20030f68:	e5933030 	ldr	r3, [r3, #48]	; 0x30
20030f6c:	e3530000 	cmp	r3, #0
20030f70:	1a00000d 	bne	20030fac <serial_wri_chr+0x10c>
20030f74:	e51b3018 	ldr	r3, [fp, #-24]	; 0xffffffe8
20030f78:	e5933034 	ldr	r3, [r3, #52]	; 0x34
20030f7c:	e3530000 	cmp	r3, #0
20030f80:	1a000009 	bne	20030fac <serial_wri_chr+0x10c>
20030f84:	e55b3019 	ldrb	r3, [fp, #-25]	; 0xffffffe7
20030f88:	e51b0018 	ldr	r0, [fp, #-24]	; 0xffffffe8
20030f8c:	e1a01003 	mov	r1, r3
20030f90:	ebffffa8 	bl	20030e38 <serial_snd_chr>
20030f94:	e1a03000 	mov	r3, r0
20030f98:	e3530000 	cmp	r3, #0
20030f9c:	0a000002 	beq	20030fac <serial_wri_chr+0x10c>
20030fa0:	e3a03000 	mov	r3, #0
20030fa4:	e50b3008 	str	r3, [fp, #-8]
20030fa8:	ea000024 	b	20031040 <serial_wri_chr+0x1a0>
20030fac:	e51b3018 	ldr	r3, [fp, #-24]	; 0xffffffe8
20030fb0:	e5933000 	ldr	r3, [r3]
20030fb4:	e5932014 	ldr	r2, [r3, #20]
20030fb8:	e51b3018 	ldr	r3, [fp, #-24]	; 0xffffffe8
20030fbc:	e593302c 	ldr	r3, [r3, #44]	; 0x2c
20030fc0:	e0823003 	add	r3, r2, r3
20030fc4:	e55b2019 	ldrb	r2, [fp, #-25]	; 0xffffffe7
20030fc8:	e5c32000 	strb	r2, [r3]
20030fcc:	e51b3018 	ldr	r3, [fp, #-24]	; 0xffffffe8
20030fd0:	e593302c 	ldr	r3, [r3, #44]	; 0x2c
20030fd4:	e2832001 	add	r2, r3, #1
20030fd8:	e51b3018 	ldr	r3, [fp, #-24]	; 0xffffffe8
20030fdc:	e583202c 	str	r2, [r3, #44]	; 0x2c
20030fe0:	e51b3018 	ldr	r3, [fp, #-24]	; 0xffffffe8
20030fe4:	e593202c 	ldr	r2, [r3, #44]	; 0x2c
20030fe8:	e51b3018 	ldr	r3, [fp, #-24]	; 0xffffffe8
20030fec:	e5933000 	ldr	r3, [r3]
20030ff0:	e5933010 	ldr	r3, [r3, #16]
20030ff4:	e1520003 	cmp	r2, r3
20030ff8:	1a000002 	bne	20031008 <serial_wri_chr+0x168>
20030ffc:	e51b3018 	ldr	r3, [fp, #-24]	; 0xffffffe8
20031000:	e3a02000 	mov	r2, #0
20031004:	e583202c 	str	r2, [r3, #44]	; 0x2c
20031008:	e51b3018 	ldr	r3, [fp, #-24]	; 0xffffffe8
2003100c:	e5933030 	ldr	r3, [r3, #48]	; 0x30
20031010:	e2832001 	add	r2, r3, #1
20031014:	e51b3018 	ldr	r3, [fp, #-24]	; 0xffffffe8
20031018:	e5832030 	str	r2, [r3, #48]	; 0x30
2003101c:	e51b3018 	ldr	r3, [fp, #-24]	; 0xffffffe8
20031020:	e5932030 	ldr	r2, [r3, #48]	; 0x30
20031024:	e51b3018 	ldr	r3, [fp, #-24]	; 0xffffffe8
20031028:	e5933000 	ldr	r3, [r3]
2003102c:	e5933010 	ldr	r3, [r3, #16]
20031030:	e1520003 	cmp	r2, r3
20031034:	13a03000 	movne	r3, #0
20031038:	03a03001 	moveq	r3, #1
2003103c:	e50b3008 	str	r3, [fp, #-8]
20031040:	eb00212d 	bl	200394fc <unl_cpu>
20031044:	e1a03000 	mov	r3, r0
20031048:	e3530000 	cmp	r3, #0
2003104c:	aa000003 	bge	20031060 <serial_wri_chr+0x1c0>
20031050:	e51b0018 	ldr	r0, [fp, #-24]	; 0xffffffe8
20031054:	ebfffe4c 	bl	2003098c <gen_ercd_sys>
20031058:	e50b000c 	str	r0, [fp, #-12]
2003105c:	ea000001 	b	20031068 <serial_wri_chr+0x1c8>
20031060:	e51b3008 	ldr	r3, [fp, #-8]
20031064:	e50b300c 	str	r3, [fp, #-12]
20031068:	e51b300c 	ldr	r3, [fp, #-12]
2003106c:	e1a00003 	mov	r0, r3
20031070:	e24bd004 	sub	sp, fp, #4
20031074:	e8bd8800 	pop	{fp, pc}

20031078 <serial_wri_dat>:
20031078:	e92d4800 	push	{fp, lr}
2003107c:	e28db004 	add	fp, sp, #4
20031080:	e24dd028 	sub	sp, sp, #40	; 0x28
20031084:	e50b0020 	str	r0, [fp, #-32]	; 0xffffffe0
20031088:	e50b1024 	str	r1, [fp, #-36]	; 0xffffffdc
2003108c:	e50b2028 	str	r2, [fp, #-40]	; 0xffffffd8
20031090:	e3a03000 	mov	r3, #0
20031094:	e50b300c 	str	r3, [fp, #-12]
20031098:	eb0021b0 	bl	20039760 <sns_dpn>
2003109c:	e1a03000 	mov	r3, r0
200310a0:	e3530000 	cmp	r3, #0
200310a4:	0a000001 	beq	200310b0 <serial_wri_dat+0x38>
200310a8:	e3e03018 	mvn	r3, #24
200310ac:	ea000061 	b	20031238 <serial_wri_dat+0x1c0>
200310b0:	e51b3020 	ldr	r3, [fp, #-32]	; 0xffffffe0
200310b4:	e3530000 	cmp	r3, #0
200310b8:	da000002 	ble	200310c8 <serial_wri_dat+0x50>
200310bc:	e51b3020 	ldr	r3, [fp, #-32]	; 0xffffffe0
200310c0:	e3530002 	cmp	r3, #2
200310c4:	da000001 	ble	200310d0 <serial_wri_dat+0x58>
200310c8:	e3e03011 	mvn	r3, #17
200310cc:	ea000059 	b	20031238 <serial_wri_dat+0x1c0>
200310d0:	e51b3020 	ldr	r3, [fp, #-32]	; 0xffffffe0
200310d4:	e2432001 	sub	r2, r3, #1
200310d8:	e1a03002 	mov	r3, r2
200310dc:	e1a03183 	lsl	r3, r3, #3
200310e0:	e0623003 	rsb	r3, r2, r3
200310e4:	e1a03183 	lsl	r3, r3, #3
200310e8:	e1a02003 	mov	r2, r3
200310ec:	e30c3a1c 	movw	r3, #51740	; 0xca1c
200310f0:	e3423003 	movt	r3, #8195	; 0x2003
200310f4:	e0823003 	add	r3, r2, r3
200310f8:	e50b3014 	str	r3, [fp, #-20]	; 0xffffffec
200310fc:	e51b3014 	ldr	r3, [fp, #-20]	; 0xffffffec
20031100:	e5933008 	ldr	r3, [r3, #8]
20031104:	e3530000 	cmp	r3, #0
20031108:	1a000001 	bne	20031114 <serial_wri_dat+0x9c>
2003110c:	e3e03028 	mvn	r3, #40	; 0x28
20031110:	ea000048 	b	20031238 <serial_wri_dat+0x1c0>
20031114:	e51b3014 	ldr	r3, [fp, #-20]	; 0xffffffec
20031118:	e593300c 	ldr	r3, [r3, #12]
2003111c:	e3530000 	cmp	r3, #0
20031120:	0a000001 	beq	2003112c <serial_wri_dat+0xb4>
20031124:	e3e03004 	mvn	r3, #4
20031128:	ea000042 	b	20031238 <serial_wri_dat+0x1c0>
2003112c:	e3a03001 	mov	r3, #1
20031130:	e50b3008 	str	r3, [fp, #-8]
20031134:	ea000024 	b	200311cc <serial_wri_dat+0x154>
20031138:	e51b3008 	ldr	r3, [fp, #-8]
2003113c:	e3530000 	cmp	r3, #0
20031140:	0a00000d 	beq	2003117c <serial_wri_dat+0x104>
20031144:	e51b3014 	ldr	r3, [fp, #-20]	; 0xffffffec
20031148:	e5933000 	ldr	r3, [r3]
2003114c:	e5933004 	ldr	r3, [r3, #4]
20031150:	e1a00003 	mov	r0, r3
20031154:	eb001c87 	bl	20038378 <wai_sem>
20031158:	e50b0018 	str	r0, [fp, #-24]	; 0xffffffe8
2003115c:	e51b3018 	ldr	r3, [fp, #-24]	; 0xffffffe8
20031160:	e3530000 	cmp	r3, #0
20031164:	aa000004 	bge	2003117c <serial_wri_dat+0x104>
20031168:	e51b0018 	ldr	r0, [fp, #-24]	; 0xffffffe8
2003116c:	e51b1014 	ldr	r1, [fp, #-20]	; 0xffffffec
20031170:	ebfffe11 	bl	200309bc <gen_ercd_wait>
20031174:	e50b0010 	str	r0, [fp, #-16]
20031178:	ea000028 	b	20031220 <serial_wri_dat+0x1a8>
2003117c:	e51b3024 	ldr	r3, [fp, #-36]	; 0xffffffdc
20031180:	e5d33000 	ldrb	r3, [r3]
20031184:	e51b2024 	ldr	r2, [fp, #-36]	; 0xffffffdc
20031188:	e2822001 	add	r2, r2, #1
2003118c:	e50b2024 	str	r2, [fp, #-36]	; 0xffffffdc
20031190:	e51b0014 	ldr	r0, [fp, #-20]	; 0xffffffec
20031194:	e1a01003 	mov	r1, r3
20031198:	ebffff40 	bl	20030ea0 <serial_wri_chr>
2003119c:	e50b0018 	str	r0, [fp, #-24]	; 0xffffffe8
200311a0:	e51b3018 	ldr	r3, [fp, #-24]	; 0xffffffe8
200311a4:	e3530000 	cmp	r3, #0
200311a8:	aa000002 	bge	200311b8 <serial_wri_dat+0x140>
200311ac:	e51b3018 	ldr	r3, [fp, #-24]	; 0xffffffe8
200311b0:	e50b3010 	str	r3, [fp, #-16]
200311b4:	ea000019 	b	20031220 <serial_wri_dat+0x1a8>
200311b8:	e51b300c 	ldr	r3, [fp, #-12]
200311bc:	e2833001 	add	r3, r3, #1
200311c0:	e50b300c 	str	r3, [fp, #-12]
200311c4:	e51b3018 	ldr	r3, [fp, #-24]	; 0xffffffe8
200311c8:	e50b3008 	str	r3, [fp, #-8]
200311cc:	e51b200c 	ldr	r2, [fp, #-12]
200311d0:	e51b3028 	ldr	r3, [fp, #-40]	; 0xffffffd8
200311d4:	e1520003 	cmp	r2, r3
200311d8:	3affffd6 	bcc	20031138 <serial_wri_dat+0xc0>
200311dc:	e51b3008 	ldr	r3, [fp, #-8]
200311e0:	e3530000 	cmp	r3, #0
200311e4:	1a00000b 	bne	20031218 <serial_wri_dat+0x1a0>
200311e8:	e51b3014 	ldr	r3, [fp, #-20]	; 0xffffffec
200311ec:	e5933000 	ldr	r3, [r3]
200311f0:	e5933004 	ldr	r3, [r3, #4]
200311f4:	e1a00003 	mov	r0, r3
200311f8:	eb001bbf 	bl	200380fc <sig_sem>
200311fc:	e1a03000 	mov	r3, r0
20031200:	e3530000 	cmp	r3, #0
20031204:	aa000003 	bge	20031218 <serial_wri_dat+0x1a0>
20031208:	e51b0014 	ldr	r0, [fp, #-20]	; 0xffffffec
2003120c:	ebfffdde 	bl	2003098c <gen_ercd_sys>
20031210:	e50b0010 	str	r0, [fp, #-16]
20031214:	ea000001 	b	20031220 <serial_wri_dat+0x1a8>
20031218:	e3a03000 	mov	r3, #0
2003121c:	e50b3010 	str	r3, [fp, #-16]
20031220:	e51b300c 	ldr	r3, [fp, #-12]
20031224:	e3530000 	cmp	r3, #0
20031228:	0a000001 	beq	20031234 <serial_wri_dat+0x1bc>
2003122c:	e51b300c 	ldr	r3, [fp, #-12]
20031230:	ea000000 	b	20031238 <serial_wri_dat+0x1c0>
20031234:	e51b3010 	ldr	r3, [fp, #-16]
20031238:	e1a00003 	mov	r0, r3
2003123c:	e24bd004 	sub	sp, fp, #4
20031240:	e8bd8800 	pop	{fp, pc}

20031244 <serial_rea_chr>:
20031244:	e92d4800 	push	{fp, lr}
20031248:	e28db004 	add	fp, sp, #4
2003124c:	e24dd010 	sub	sp, sp, #16
20031250:	e50b0010 	str	r0, [fp, #-16]
20031254:	e50b1014 	str	r1, [fp, #-20]	; 0xffffffec
20031258:	eb00207d 	bl	20039454 <loc_cpu>
2003125c:	e1a03000 	mov	r3, r0
20031260:	e3530000 	cmp	r3, #0
20031264:	aa000003 	bge	20031278 <serial_rea_chr+0x34>
20031268:	e51b0010 	ldr	r0, [fp, #-16]
2003126c:	ebfffdc6 	bl	2003098c <gen_ercd_sys>
20031270:	e50b0008 	str	r0, [fp, #-8]
20031274:	ea000044 	b	2003138c <serial_rea_chr+0x148>
20031278:	e51b3010 	ldr	r3, [fp, #-16]
2003127c:	e5933000 	ldr	r3, [r3]
20031280:	e593200c 	ldr	r2, [r3, #12]
20031284:	e51b3010 	ldr	r3, [fp, #-16]
20031288:	e5933014 	ldr	r3, [r3, #20]
2003128c:	e0823003 	add	r3, r2, r3
20031290:	e5d32000 	ldrb	r2, [r3]
20031294:	e51b3014 	ldr	r3, [fp, #-20]	; 0xffffffec
20031298:	e5c32000 	strb	r2, [r3]
2003129c:	e51b3010 	ldr	r3, [fp, #-16]
200312a0:	e5933014 	ldr	r3, [r3, #20]
200312a4:	e2832001 	add	r2, r3, #1
200312a8:	e51b3010 	ldr	r3, [fp, #-16]
200312ac:	e5832014 	str	r2, [r3, #20]
200312b0:	e51b3010 	ldr	r3, [fp, #-16]
200312b4:	e5932014 	ldr	r2, [r3, #20]
200312b8:	e51b3010 	ldr	r3, [fp, #-16]
200312bc:	e5933000 	ldr	r3, [r3]
200312c0:	e5933008 	ldr	r3, [r3, #8]
200312c4:	e1520003 	cmp	r2, r3
200312c8:	1a000002 	bne	200312d8 <serial_rea_chr+0x94>
200312cc:	e51b3010 	ldr	r3, [fp, #-16]
200312d0:	e3a02000 	mov	r2, #0
200312d4:	e5832014 	str	r2, [r3, #20]
200312d8:	e51b3010 	ldr	r3, [fp, #-16]
200312dc:	e593301c 	ldr	r3, [r3, #28]
200312e0:	e2432001 	sub	r2, r3, #1
200312e4:	e51b3010 	ldr	r3, [fp, #-16]
200312e8:	e583201c 	str	r2, [r3, #28]
200312ec:	e51b3010 	ldr	r3, [fp, #-16]
200312f0:	e593301c 	ldr	r3, [r3, #28]
200312f4:	e3530000 	cmp	r3, #0
200312f8:	13a03000 	movne	r3, #0
200312fc:	03a03001 	moveq	r3, #1
20031300:	e50b300c 	str	r3, [fp, #-12]
20031304:	e51b3010 	ldr	r3, [fp, #-16]
20031308:	e5933024 	ldr	r3, [r3, #36]	; 0x24
2003130c:	e3530000 	cmp	r3, #0
20031310:	0a000013 	beq	20031364 <serial_rea_chr+0x120>
20031314:	e51b3010 	ldr	r3, [fp, #-16]
20031318:	e593201c 	ldr	r2, [r3, #28]
2003131c:	e51b3010 	ldr	r3, [fp, #-16]
20031320:	e5933000 	ldr	r3, [r3]
20031324:	e5933008 	ldr	r3, [r3, #8]
20031328:	e1a030a3 	lsr	r3, r3, #1
2003132c:	e1520003 	cmp	r2, r3
20031330:	8a00000b 	bhi	20031364 <serial_rea_chr+0x120>
20031334:	e51b0010 	ldr	r0, [fp, #-16]
20031338:	e3a01011 	mov	r1, #17
2003133c:	ebfffebd 	bl	20030e38 <serial_snd_chr>
20031340:	e1a03000 	mov	r3, r0
20031344:	e3530000 	cmp	r3, #0
20031348:	1a000002 	bne	20031358 <serial_rea_chr+0x114>
2003134c:	e51b3010 	ldr	r3, [fp, #-16]
20031350:	e3a02011 	mov	r2, #17
20031354:	e5c32020 	strb	r2, [r3, #32]
20031358:	e51b3010 	ldr	r3, [fp, #-16]
2003135c:	e3a02000 	mov	r2, #0
20031360:	e5832024 	str	r2, [r3, #36]	; 0x24
20031364:	eb002064 	bl	200394fc <unl_cpu>
20031368:	e1a03000 	mov	r3, r0
2003136c:	e3530000 	cmp	r3, #0
20031370:	aa000003 	bge	20031384 <serial_rea_chr+0x140>
20031374:	e51b0010 	ldr	r0, [fp, #-16]
20031378:	ebfffd83 	bl	2003098c <gen_ercd_sys>
2003137c:	e50b0008 	str	r0, [fp, #-8]
20031380:	ea000001 	b	2003138c <serial_rea_chr+0x148>
20031384:	e51b300c 	ldr	r3, [fp, #-12]
20031388:	e50b3008 	str	r3, [fp, #-8]
2003138c:	e51b3008 	ldr	r3, [fp, #-8]
20031390:	e1a00003 	mov	r0, r3
20031394:	e24bd004 	sub	sp, fp, #4
20031398:	e8bd8800 	pop	{fp, pc}

2003139c <serial_rea_dat>:
2003139c:	e92d4800 	push	{fp, lr}
200313a0:	e28db004 	add	fp, sp, #4
200313a4:	e24dd028 	sub	sp, sp, #40	; 0x28
200313a8:	e50b0020 	str	r0, [fp, #-32]	; 0xffffffe0
200313ac:	e50b1024 	str	r1, [fp, #-36]	; 0xffffffdc
200313b0:	e50b2028 	str	r2, [fp, #-40]	; 0xffffffd8
200313b4:	e3a03000 	mov	r3, #0
200313b8:	e50b300c 	str	r3, [fp, #-12]
200313bc:	e3a03000 	mov	r3, #0
200313c0:	e54b3019 	strb	r3, [fp, #-25]	; 0xffffffe7
200313c4:	eb0020e5 	bl	20039760 <sns_dpn>
200313c8:	e1a03000 	mov	r3, r0
200313cc:	e3530000 	cmp	r3, #0
200313d0:	0a000001 	beq	200313dc <serial_rea_dat+0x40>
200313d4:	e3e03018 	mvn	r3, #24
200313d8:	ea000091 	b	20031624 <serial_rea_dat+0x288>
200313dc:	e51b3020 	ldr	r3, [fp, #-32]	; 0xffffffe0
200313e0:	e3530000 	cmp	r3, #0
200313e4:	da000002 	ble	200313f4 <serial_rea_dat+0x58>
200313e8:	e51b3020 	ldr	r3, [fp, #-32]	; 0xffffffe0
200313ec:	e3530002 	cmp	r3, #2
200313f0:	da000001 	ble	200313fc <serial_rea_dat+0x60>
200313f4:	e3e03011 	mvn	r3, #17
200313f8:	ea000089 	b	20031624 <serial_rea_dat+0x288>
200313fc:	e51b3020 	ldr	r3, [fp, #-32]	; 0xffffffe0
20031400:	e2432001 	sub	r2, r3, #1
20031404:	e1a03002 	mov	r3, r2
20031408:	e1a03183 	lsl	r3, r3, #3
2003140c:	e0623003 	rsb	r3, r2, r3
20031410:	e1a03183 	lsl	r3, r3, #3
20031414:	e1a02003 	mov	r2, r3
20031418:	e30c3a1c 	movw	r3, #51740	; 0xca1c
2003141c:	e3423003 	movt	r3, #8195	; 0x2003
20031420:	e0823003 	add	r3, r2, r3
20031424:	e50b3014 	str	r3, [fp, #-20]	; 0xffffffec
20031428:	e51b3014 	ldr	r3, [fp, #-20]	; 0xffffffec
2003142c:	e5933008 	ldr	r3, [r3, #8]
20031430:	e3530000 	cmp	r3, #0
20031434:	1a000001 	bne	20031440 <serial_rea_dat+0xa4>
20031438:	e3e03028 	mvn	r3, #40	; 0x28
2003143c:	ea000078 	b	20031624 <serial_rea_dat+0x288>
20031440:	e51b3014 	ldr	r3, [fp, #-20]	; 0xffffffec
20031444:	e593300c 	ldr	r3, [r3, #12]
20031448:	e3530000 	cmp	r3, #0
2003144c:	0a000001 	beq	20031458 <serial_rea_dat+0xbc>
20031450:	e3e03004 	mvn	r3, #4
20031454:	ea000072 	b	20031624 <serial_rea_dat+0x288>
20031458:	e3a03001 	mov	r3, #1
2003145c:	e50b3008 	str	r3, [fp, #-8]
20031460:	ea000054 	b	200315b8 <serial_rea_dat+0x21c>
20031464:	e51b3008 	ldr	r3, [fp, #-8]
20031468:	e3530000 	cmp	r3, #0
2003146c:	0a00000d 	beq	200314a8 <serial_rea_dat+0x10c>
20031470:	e51b3014 	ldr	r3, [fp, #-20]	; 0xffffffec
20031474:	e5933000 	ldr	r3, [r3]
20031478:	e5933000 	ldr	r3, [r3]
2003147c:	e1a00003 	mov	r0, r3
20031480:	eb001bbc 	bl	20038378 <wai_sem>
20031484:	e50b0018 	str	r0, [fp, #-24]	; 0xffffffe8
20031488:	e51b3018 	ldr	r3, [fp, #-24]	; 0xffffffe8
2003148c:	e3530000 	cmp	r3, #0
20031490:	aa000004 	bge	200314a8 <serial_rea_dat+0x10c>
20031494:	e51b0018 	ldr	r0, [fp, #-24]	; 0xffffffe8
20031498:	e51b1014 	ldr	r1, [fp, #-20]	; 0xffffffec
2003149c:	ebfffd46 	bl	200309bc <gen_ercd_wait>
200314a0:	e50b0010 	str	r0, [fp, #-16]
200314a4:	ea000058 	b	2003160c <serial_rea_dat+0x270>
200314a8:	e24b3019 	sub	r3, fp, #25
200314ac:	e51b0014 	ldr	r0, [fp, #-20]	; 0xffffffec
200314b0:	e1a01003 	mov	r1, r3
200314b4:	ebffff62 	bl	20031244 <serial_rea_chr>
200314b8:	e50b0018 	str	r0, [fp, #-24]	; 0xffffffe8
200314bc:	e51b3018 	ldr	r3, [fp, #-24]	; 0xffffffe8
200314c0:	e3530000 	cmp	r3, #0
200314c4:	aa000002 	bge	200314d4 <serial_rea_dat+0x138>
200314c8:	e51b3018 	ldr	r3, [fp, #-24]	; 0xffffffe8
200314cc:	e50b3010 	str	r3, [fp, #-16]
200314d0:	ea00004d 	b	2003160c <serial_rea_dat+0x270>
200314d4:	e55b2019 	ldrb	r2, [fp, #-25]	; 0xffffffe7
200314d8:	e51b3024 	ldr	r3, [fp, #-36]	; 0xffffffdc
200314dc:	e5c32000 	strb	r2, [r3]
200314e0:	e51b3024 	ldr	r3, [fp, #-36]	; 0xffffffdc
200314e4:	e2833001 	add	r3, r3, #1
200314e8:	e50b3024 	str	r3, [fp, #-36]	; 0xffffffdc
200314ec:	e51b300c 	ldr	r3, [fp, #-12]
200314f0:	e2833001 	add	r3, r3, #1
200314f4:	e50b300c 	str	r3, [fp, #-12]
200314f8:	e51b3018 	ldr	r3, [fp, #-24]	; 0xffffffe8
200314fc:	e50b3008 	str	r3, [fp, #-8]
20031500:	e51b3014 	ldr	r3, [fp, #-20]	; 0xffffffec
20031504:	e5933010 	ldr	r3, [r3, #16]
20031508:	e2033001 	and	r3, r3, #1
2003150c:	e6ef3073 	uxtb	r3, r3
20031510:	e3530000 	cmp	r3, #0
20031514:	0a000027 	beq	200315b8 <serial_rea_dat+0x21c>
20031518:	e51b3014 	ldr	r3, [fp, #-20]	; 0xffffffec
2003151c:	e5933000 	ldr	r3, [r3]
20031520:	e5933004 	ldr	r3, [r3, #4]
20031524:	e1a00003 	mov	r0, r3
20031528:	eb001b92 	bl	20038378 <wai_sem>
2003152c:	e50b0018 	str	r0, [fp, #-24]	; 0xffffffe8
20031530:	e51b3018 	ldr	r3, [fp, #-24]	; 0xffffffe8
20031534:	e3530000 	cmp	r3, #0
20031538:	aa000004 	bge	20031550 <serial_rea_dat+0x1b4>
2003153c:	e51b0018 	ldr	r0, [fp, #-24]	; 0xffffffe8
20031540:	e51b1014 	ldr	r1, [fp, #-20]	; 0xffffffec
20031544:	ebfffd1c 	bl	200309bc <gen_ercd_wait>
20031548:	e50b0010 	str	r0, [fp, #-16]
2003154c:	ea00002e 	b	2003160c <serial_rea_dat+0x270>
20031550:	e55b3019 	ldrb	r3, [fp, #-25]	; 0xffffffe7
20031554:	e51b0014 	ldr	r0, [fp, #-20]	; 0xffffffec
20031558:	e1a01003 	mov	r1, r3
2003155c:	ebfffe4f 	bl	20030ea0 <serial_wri_chr>
20031560:	e50b0018 	str	r0, [fp, #-24]	; 0xffffffe8
20031564:	e51b3018 	ldr	r3, [fp, #-24]	; 0xffffffe8
20031568:	e3530000 	cmp	r3, #0
2003156c:	aa000002 	bge	2003157c <serial_rea_dat+0x1e0>
20031570:	e51b3018 	ldr	r3, [fp, #-24]	; 0xffffffe8
20031574:	e50b3010 	str	r3, [fp, #-16]
20031578:	ea000023 	b	2003160c <serial_rea_dat+0x270>
2003157c:	e51b3018 	ldr	r3, [fp, #-24]	; 0xffffffe8
20031580:	e3530000 	cmp	r3, #0
20031584:	1a00000b 	bne	200315b8 <serial_rea_dat+0x21c>
20031588:	e51b3014 	ldr	r3, [fp, #-20]	; 0xffffffec
2003158c:	e5933000 	ldr	r3, [r3]
20031590:	e5933004 	ldr	r3, [r3, #4]
20031594:	e1a00003 	mov	r0, r3
20031598:	eb001ad7 	bl	200380fc <sig_sem>
2003159c:	e1a03000 	mov	r3, r0
200315a0:	e3530000 	cmp	r3, #0
200315a4:	aa000003 	bge	200315b8 <serial_rea_dat+0x21c>
200315a8:	e51b0014 	ldr	r0, [fp, #-20]	; 0xffffffec
200315ac:	ebfffcf6 	bl	2003098c <gen_ercd_sys>
200315b0:	e50b0010 	str	r0, [fp, #-16]
200315b4:	ea000014 	b	2003160c <serial_rea_dat+0x270>
200315b8:	e51b200c 	ldr	r2, [fp, #-12]
200315bc:	e51b3028 	ldr	r3, [fp, #-40]	; 0xffffffd8
200315c0:	e1520003 	cmp	r2, r3
200315c4:	3affffa6 	bcc	20031464 <serial_rea_dat+0xc8>
200315c8:	e51b3008 	ldr	r3, [fp, #-8]
200315cc:	e3530000 	cmp	r3, #0
200315d0:	1a00000b 	bne	20031604 <serial_rea_dat+0x268>
200315d4:	e51b3014 	ldr	r3, [fp, #-20]	; 0xffffffec
200315d8:	e5933000 	ldr	r3, [r3]
200315dc:	e5933000 	ldr	r3, [r3]
200315e0:	e1a00003 	mov	r0, r3
200315e4:	eb001ac4 	bl	200380fc <sig_sem>
200315e8:	e1a03000 	mov	r3, r0
200315ec:	e3530000 	cmp	r3, #0
200315f0:	aa000003 	bge	20031604 <serial_rea_dat+0x268>
200315f4:	e51b0014 	ldr	r0, [fp, #-20]	; 0xffffffec
200315f8:	ebfffce3 	bl	2003098c <gen_ercd_sys>
200315fc:	e50b0010 	str	r0, [fp, #-16]
20031600:	ea000001 	b	2003160c <serial_rea_dat+0x270>
20031604:	e3a03000 	mov	r3, #0
20031608:	e50b3010 	str	r3, [fp, #-16]
2003160c:	e51b300c 	ldr	r3, [fp, #-12]
20031610:	e3530000 	cmp	r3, #0
20031614:	0a000001 	beq	20031620 <serial_rea_dat+0x284>
20031618:	e51b300c 	ldr	r3, [fp, #-12]
2003161c:	ea000000 	b	20031624 <serial_rea_dat+0x288>
20031620:	e51b3010 	ldr	r3, [fp, #-16]
20031624:	e1a00003 	mov	r0, r3
20031628:	e24bd004 	sub	sp, fp, #4
2003162c:	e8bd8800 	pop	{fp, pc}

20031630 <serial_ctl_por>:
20031630:	e92d4800 	push	{fp, lr}
20031634:	e28db004 	add	fp, sp, #4
20031638:	e24dd010 	sub	sp, sp, #16
2003163c:	e50b0010 	str	r0, [fp, #-16]
20031640:	e50b1014 	str	r1, [fp, #-20]	; 0xffffffec
20031644:	eb002045 	bl	20039760 <sns_dpn>
20031648:	e1a03000 	mov	r3, r0
2003164c:	e3530000 	cmp	r3, #0
20031650:	0a000001 	beq	2003165c <serial_ctl_por+0x2c>
20031654:	e3e03018 	mvn	r3, #24
20031658:	ea000022 	b	200316e8 <serial_ctl_por+0xb8>
2003165c:	e51b3010 	ldr	r3, [fp, #-16]
20031660:	e3530000 	cmp	r3, #0
20031664:	da000002 	ble	20031674 <serial_ctl_por+0x44>
20031668:	e51b3010 	ldr	r3, [fp, #-16]
2003166c:	e3530002 	cmp	r3, #2
20031670:	da000001 	ble	2003167c <serial_ctl_por+0x4c>
20031674:	e3e03011 	mvn	r3, #17
20031678:	ea00001a 	b	200316e8 <serial_ctl_por+0xb8>
2003167c:	e51b3010 	ldr	r3, [fp, #-16]
20031680:	e2432001 	sub	r2, r3, #1
20031684:	e1a03002 	mov	r3, r2
20031688:	e1a03183 	lsl	r3, r3, #3
2003168c:	e0623003 	rsb	r3, r2, r3
20031690:	e1a03183 	lsl	r3, r3, #3
20031694:	e1a02003 	mov	r2, r3
20031698:	e30c3a1c 	movw	r3, #51740	; 0xca1c
2003169c:	e3423003 	movt	r3, #8195	; 0x2003
200316a0:	e0823003 	add	r3, r2, r3
200316a4:	e50b3008 	str	r3, [fp, #-8]
200316a8:	e51b3008 	ldr	r3, [fp, #-8]
200316ac:	e5933008 	ldr	r3, [r3, #8]
200316b0:	e3530000 	cmp	r3, #0
200316b4:	1a000001 	bne	200316c0 <serial_ctl_por+0x90>
200316b8:	e3e03028 	mvn	r3, #40	; 0x28
200316bc:	ea000009 	b	200316e8 <serial_ctl_por+0xb8>
200316c0:	e51b3008 	ldr	r3, [fp, #-8]
200316c4:	e593300c 	ldr	r3, [r3, #12]
200316c8:	e3530000 	cmp	r3, #0
200316cc:	0a000001 	beq	200316d8 <serial_ctl_por+0xa8>
200316d0:	e3e03004 	mvn	r3, #4
200316d4:	ea000003 	b	200316e8 <serial_ctl_por+0xb8>
200316d8:	e51b3008 	ldr	r3, [fp, #-8]
200316dc:	e51b2014 	ldr	r2, [fp, #-20]	; 0xffffffec
200316e0:	e5832010 	str	r2, [r3, #16]
200316e4:	e3a03000 	mov	r3, #0
200316e8:	e1a00003 	mov	r0, r3
200316ec:	e24bd004 	sub	sp, fp, #4
200316f0:	e8bd8800 	pop	{fp, pc}

200316f4 <serial_ref_por>:
200316f4:	e92d4800 	push	{fp, lr}
200316f8:	e28db004 	add	fp, sp, #4
200316fc:	e24dd010 	sub	sp, sp, #16
20031700:	e50b0010 	str	r0, [fp, #-16]
20031704:	e50b1014 	str	r1, [fp, #-20]	; 0xffffffec
20031708:	eb002014 	bl	20039760 <sns_dpn>
2003170c:	e1a03000 	mov	r3, r0
20031710:	e3530000 	cmp	r3, #0
20031714:	0a000001 	beq	20031720 <serial_ref_por+0x2c>
20031718:	e3e03018 	mvn	r3, #24
2003171c:	ea000027 	b	200317c0 <serial_ref_por+0xcc>
20031720:	e51b3010 	ldr	r3, [fp, #-16]
20031724:	e3530000 	cmp	r3, #0
20031728:	da000002 	ble	20031738 <serial_ref_por+0x44>
2003172c:	e51b3010 	ldr	r3, [fp, #-16]
20031730:	e3530002 	cmp	r3, #2
20031734:	da000001 	ble	20031740 <serial_ref_por+0x4c>
20031738:	e3e03011 	mvn	r3, #17
2003173c:	ea00001f 	b	200317c0 <serial_ref_por+0xcc>
20031740:	e51b3010 	ldr	r3, [fp, #-16]
20031744:	e2432001 	sub	r2, r3, #1
20031748:	e1a03002 	mov	r3, r2
2003174c:	e1a03183 	lsl	r3, r3, #3
20031750:	e0623003 	rsb	r3, r2, r3
20031754:	e1a03183 	lsl	r3, r3, #3
20031758:	e1a02003 	mov	r2, r3
2003175c:	e30c3a1c 	movw	r3, #51740	; 0xca1c
20031760:	e3423003 	movt	r3, #8195	; 0x2003
20031764:	e0823003 	add	r3, r2, r3
20031768:	e50b3008 	str	r3, [fp, #-8]
2003176c:	e51b3008 	ldr	r3, [fp, #-8]
20031770:	e5933008 	ldr	r3, [r3, #8]
20031774:	e3530000 	cmp	r3, #0
20031778:	1a000001 	bne	20031784 <serial_ref_por+0x90>
2003177c:	e3e03028 	mvn	r3, #40	; 0x28
20031780:	ea00000e 	b	200317c0 <serial_ref_por+0xcc>
20031784:	e51b3008 	ldr	r3, [fp, #-8]
20031788:	e593300c 	ldr	r3, [r3, #12]
2003178c:	e3530000 	cmp	r3, #0
20031790:	0a000001 	beq	2003179c <serial_ref_por+0xa8>
20031794:	e3e03004 	mvn	r3, #4
20031798:	ea000008 	b	200317c0 <serial_ref_por+0xcc>
2003179c:	e51b3008 	ldr	r3, [fp, #-8]
200317a0:	e593201c 	ldr	r2, [r3, #28]
200317a4:	e51b3014 	ldr	r3, [fp, #-20]	; 0xffffffec
200317a8:	e5832000 	str	r2, [r3]
200317ac:	e51b3008 	ldr	r3, [fp, #-8]
200317b0:	e5932030 	ldr	r2, [r3, #48]	; 0x30
200317b4:	e51b3014 	ldr	r3, [fp, #-20]	; 0xffffffec
200317b8:	e5832004 	str	r2, [r3, #4]
200317bc:	e3a03000 	mov	r3, #0
200317c0:	e1a00003 	mov	r0, r3
200317c4:	e24bd004 	sub	sp, fp, #4
200317c8:	e8bd8800 	pop	{fp, pc}

200317cc <sio_irdy_snd>:
200317cc:	e92d4800 	push	{fp, lr}
200317d0:	e28db004 	add	fp, sp, #4
200317d4:	e24dd010 	sub	sp, sp, #16
200317d8:	e50b0010 	str	r0, [fp, #-16]
200317dc:	e51b3010 	ldr	r3, [fp, #-16]
200317e0:	e50b3008 	str	r3, [fp, #-8]
200317e4:	e51b3008 	ldr	r3, [fp, #-8]
200317e8:	e5d33020 	ldrb	r3, [r3, #32]
200317ec:	e3530000 	cmp	r3, #0
200317f0:	0a00000a 	beq	20031820 <sio_irdy_snd+0x54>
200317f4:	e51b3008 	ldr	r3, [fp, #-8]
200317f8:	e5932004 	ldr	r2, [r3, #4]
200317fc:	e51b3008 	ldr	r3, [fp, #-8]
20031800:	e5d33020 	ldrb	r3, [r3, #32]
20031804:	e1a00002 	mov	r0, r2
20031808:	e1a01003 	mov	r1, r3
2003180c:	eb000938 	bl	20033cf4 <sio_snd_chr>
20031810:	e51b3008 	ldr	r3, [fp, #-8]
20031814:	e3a02000 	mov	r2, #0
20031818:	e5c32020 	strb	r2, [r3, #32]
2003181c:	ea00003f 	b	20031920 <sio_irdy_snd+0x154>
20031820:	e51b3008 	ldr	r3, [fp, #-8]
20031824:	e5933034 	ldr	r3, [r3, #52]	; 0x34
20031828:	e3530000 	cmp	r3, #0
2003182c:	1a000036 	bne	2003190c <sio_irdy_snd+0x140>
20031830:	e51b3008 	ldr	r3, [fp, #-8]
20031834:	e5933030 	ldr	r3, [r3, #48]	; 0x30
20031838:	e3530000 	cmp	r3, #0
2003183c:	0a000032 	beq	2003190c <sio_irdy_snd+0x140>
20031840:	e51b3008 	ldr	r3, [fp, #-8]
20031844:	e5932004 	ldr	r2, [r3, #4]
20031848:	e51b3008 	ldr	r3, [fp, #-8]
2003184c:	e5933000 	ldr	r3, [r3]
20031850:	e5931014 	ldr	r1, [r3, #20]
20031854:	e51b3008 	ldr	r3, [fp, #-8]
20031858:	e5933028 	ldr	r3, [r3, #40]	; 0x28
2003185c:	e0813003 	add	r3, r1, r3
20031860:	e5d33000 	ldrb	r3, [r3]
20031864:	e1a00002 	mov	r0, r2
20031868:	e1a01003 	mov	r1, r3
2003186c:	eb000920 	bl	20033cf4 <sio_snd_chr>
20031870:	e51b3008 	ldr	r3, [fp, #-8]
20031874:	e5933028 	ldr	r3, [r3, #40]	; 0x28
20031878:	e2832001 	add	r2, r3, #1
2003187c:	e51b3008 	ldr	r3, [fp, #-8]
20031880:	e5832028 	str	r2, [r3, #40]	; 0x28
20031884:	e51b3008 	ldr	r3, [fp, #-8]
20031888:	e5932028 	ldr	r2, [r3, #40]	; 0x28
2003188c:	e51b3008 	ldr	r3, [fp, #-8]
20031890:	e5933000 	ldr	r3, [r3]
20031894:	e5933010 	ldr	r3, [r3, #16]
20031898:	e1520003 	cmp	r2, r3
2003189c:	1a000002 	bne	200318ac <sio_irdy_snd+0xe0>
200318a0:	e51b3008 	ldr	r3, [fp, #-8]
200318a4:	e3a02000 	mov	r2, #0
200318a8:	e5832028 	str	r2, [r3, #40]	; 0x28
200318ac:	e51b3008 	ldr	r3, [fp, #-8]
200318b0:	e5932030 	ldr	r2, [r3, #48]	; 0x30
200318b4:	e51b3008 	ldr	r3, [fp, #-8]
200318b8:	e5933000 	ldr	r3, [r3]
200318bc:	e5933010 	ldr	r3, [r3, #16]
200318c0:	e1520003 	cmp	r2, r3
200318c4:	1a00000a 	bne	200318f4 <sio_irdy_snd+0x128>
200318c8:	e51b3008 	ldr	r3, [fp, #-8]
200318cc:	e5933000 	ldr	r3, [r3]
200318d0:	e5933004 	ldr	r3, [r3, #4]
200318d4:	e1a00003 	mov	r0, r3
200318d8:	eb001a55 	bl	20038234 <isig_sem>
200318dc:	e1a03000 	mov	r3, r0
200318e0:	e3530000 	cmp	r3, #0
200318e4:	aa000002 	bge	200318f4 <sio_irdy_snd+0x128>
200318e8:	e51b3008 	ldr	r3, [fp, #-8]
200318ec:	e3a02001 	mov	r2, #1
200318f0:	e583200c 	str	r2, [r3, #12]
200318f4:	e51b3008 	ldr	r3, [fp, #-8]
200318f8:	e5933030 	ldr	r3, [r3, #48]	; 0x30
200318fc:	e2432001 	sub	r2, r3, #1
20031900:	e51b3008 	ldr	r3, [fp, #-8]
20031904:	e5832030 	str	r2, [r3, #48]	; 0x30
20031908:	ea000004 	b	20031920 <sio_irdy_snd+0x154>
2003190c:	e51b3008 	ldr	r3, [fp, #-8]
20031910:	e5933004 	ldr	r3, [r3, #4]
20031914:	e1a00003 	mov	r0, r3
20031918:	e3a01001 	mov	r1, #1
2003191c:	eb000916 	bl	20033d7c <sio_dis_cbr>
20031920:	e24bd004 	sub	sp, fp, #4
20031924:	e8bd8800 	pop	{fp, pc}

20031928 <sio_irdy_rcv>:
20031928:	e92d4800 	push	{fp, lr}
2003192c:	e28db004 	add	fp, sp, #4
20031930:	e24dd010 	sub	sp, sp, #16
20031934:	e50b0010 	str	r0, [fp, #-16]
20031938:	e51b3010 	ldr	r3, [fp, #-16]
2003193c:	e50b3008 	str	r3, [fp, #-8]
20031940:	e51b3008 	ldr	r3, [fp, #-8]
20031944:	e5933004 	ldr	r3, [r3, #4]
20031948:	e1a00003 	mov	r0, r3
2003194c:	eb0008f6 	bl	20033d2c <sio_rcv_chr>
20031950:	e1a03000 	mov	r3, r0
20031954:	e54b3009 	strb	r3, [fp, #-9]
20031958:	e51b3008 	ldr	r3, [fp, #-8]
2003195c:	e5933010 	ldr	r3, [r3, #16]
20031960:	e2033c01 	and	r3, r3, #256	; 0x100
20031964:	e3530000 	cmp	r3, #0
20031968:	0a000006 	beq	20031988 <sio_irdy_rcv+0x60>
2003196c:	e55b3009 	ldrb	r3, [fp, #-9]
20031970:	e3530013 	cmp	r3, #19
20031974:	1a000003 	bne	20031988 <sio_irdy_rcv+0x60>
20031978:	e51b3008 	ldr	r3, [fp, #-8]
2003197c:	e3a02001 	mov	r2, #1
20031980:	e5832034 	str	r2, [r3, #52]	; 0x34
20031984:	ea0000a4 	b	20031c1c <sio_irdy_rcv+0x2f4>
20031988:	e51b3008 	ldr	r3, [fp, #-8]
2003198c:	e5933034 	ldr	r3, [r3, #52]	; 0x34
20031990:	e3530000 	cmp	r3, #0
20031994:	0a000044 	beq	20031aac <sio_irdy_rcv+0x184>
20031998:	e55b3009 	ldrb	r3, [fp, #-9]
2003199c:	e3530011 	cmp	r3, #17
200319a0:	0a000004 	beq	200319b8 <sio_irdy_rcv+0x90>
200319a4:	e51b3008 	ldr	r3, [fp, #-8]
200319a8:	e5933010 	ldr	r3, [r3, #16]
200319ac:	e2033c02 	and	r3, r3, #512	; 0x200
200319b0:	e3530000 	cmp	r3, #0
200319b4:	0a00003c 	beq	20031aac <sio_irdy_rcv+0x184>
200319b8:	e51b3008 	ldr	r3, [fp, #-8]
200319bc:	e3a02000 	mov	r2, #0
200319c0:	e5832034 	str	r2, [r3, #52]	; 0x34
200319c4:	e51b3008 	ldr	r3, [fp, #-8]
200319c8:	e5933030 	ldr	r3, [r3, #48]	; 0x30
200319cc:	e3530000 	cmp	r3, #0
200319d0:	0a000091 	beq	20031c1c <sio_irdy_rcv+0x2f4>
200319d4:	e51b3008 	ldr	r3, [fp, #-8]
200319d8:	e5933000 	ldr	r3, [r3]
200319dc:	e5932014 	ldr	r2, [r3, #20]
200319e0:	e51b3008 	ldr	r3, [fp, #-8]
200319e4:	e5933028 	ldr	r3, [r3, #40]	; 0x28
200319e8:	e0823003 	add	r3, r2, r3
200319ec:	e5d33000 	ldrb	r3, [r3]
200319f0:	e54b3009 	strb	r3, [fp, #-9]
200319f4:	e55b3009 	ldrb	r3, [fp, #-9]
200319f8:	e51b0008 	ldr	r0, [fp, #-8]
200319fc:	e1a01003 	mov	r1, r3
20031a00:	ebfffd0c 	bl	20030e38 <serial_snd_chr>
20031a04:	e1a03000 	mov	r3, r0
20031a08:	e3530000 	cmp	r3, #0
20031a0c:	0a000081 	beq	20031c18 <sio_irdy_rcv+0x2f0>
20031a10:	e51b3008 	ldr	r3, [fp, #-8]
20031a14:	e5933028 	ldr	r3, [r3, #40]	; 0x28
20031a18:	e2832001 	add	r2, r3, #1
20031a1c:	e51b3008 	ldr	r3, [fp, #-8]
20031a20:	e5832028 	str	r2, [r3, #40]	; 0x28
20031a24:	e51b3008 	ldr	r3, [fp, #-8]
20031a28:	e5932028 	ldr	r2, [r3, #40]	; 0x28
20031a2c:	e51b3008 	ldr	r3, [fp, #-8]
20031a30:	e5933000 	ldr	r3, [r3]
20031a34:	e5933010 	ldr	r3, [r3, #16]
20031a38:	e1520003 	cmp	r2, r3
20031a3c:	1a000002 	bne	20031a4c <sio_irdy_rcv+0x124>
20031a40:	e51b3008 	ldr	r3, [fp, #-8]
20031a44:	e3a02000 	mov	r2, #0
20031a48:	e5832028 	str	r2, [r3, #40]	; 0x28
20031a4c:	e51b3008 	ldr	r3, [fp, #-8]
20031a50:	e5932030 	ldr	r2, [r3, #48]	; 0x30
20031a54:	e51b3008 	ldr	r3, [fp, #-8]
20031a58:	e5933000 	ldr	r3, [r3]
20031a5c:	e5933010 	ldr	r3, [r3, #16]
20031a60:	e1520003 	cmp	r2, r3
20031a64:	1a00000a 	bne	20031a94 <sio_irdy_rcv+0x16c>
20031a68:	e51b3008 	ldr	r3, [fp, #-8]
20031a6c:	e5933000 	ldr	r3, [r3]
20031a70:	e5933004 	ldr	r3, [r3, #4]
20031a74:	e1a00003 	mov	r0, r3
20031a78:	eb0019ed 	bl	20038234 <isig_sem>
20031a7c:	e1a03000 	mov	r3, r0
20031a80:	e3530000 	cmp	r3, #0
20031a84:	aa000002 	bge	20031a94 <sio_irdy_rcv+0x16c>
20031a88:	e51b3008 	ldr	r3, [fp, #-8]
20031a8c:	e3a02001 	mov	r2, #1
20031a90:	e583200c 	str	r2, [r3, #12]
20031a94:	e51b3008 	ldr	r3, [fp, #-8]
20031a98:	e5933030 	ldr	r3, [r3, #48]	; 0x30
20031a9c:	e2432001 	sub	r2, r3, #1
20031aa0:	e51b3008 	ldr	r3, [fp, #-8]
20031aa4:	e5832030 	str	r2, [r3, #48]	; 0x30
20031aa8:	ea00005b 	b	20031c1c <sio_irdy_rcv+0x2f4>
20031aac:	e51b3008 	ldr	r3, [fp, #-8]
20031ab0:	e5933010 	ldr	r3, [r3, #16]
20031ab4:	e2033c01 	and	r3, r3, #256	; 0x100
20031ab8:	e3530000 	cmp	r3, #0
20031abc:	0a000002 	beq	20031acc <sio_irdy_rcv+0x1a4>
20031ac0:	e55b3009 	ldrb	r3, [fp, #-9]
20031ac4:	e3530011 	cmp	r3, #17
20031ac8:	0a000053 	beq	20031c1c <sio_irdy_rcv+0x2f4>
20031acc:	e51b3008 	ldr	r3, [fp, #-8]
20031ad0:	e593201c 	ldr	r2, [r3, #28]
20031ad4:	e51b3008 	ldr	r3, [fp, #-8]
20031ad8:	e5933000 	ldr	r3, [r3]
20031adc:	e5933008 	ldr	r3, [r3, #8]
20031ae0:	e1520003 	cmp	r2, r3
20031ae4:	0a00004c 	beq	20031c1c <sio_irdy_rcv+0x2f4>
20031ae8:	e51b3008 	ldr	r3, [fp, #-8]
20031aec:	e5933000 	ldr	r3, [r3]
20031af0:	e593200c 	ldr	r2, [r3, #12]
20031af4:	e51b3008 	ldr	r3, [fp, #-8]
20031af8:	e5933018 	ldr	r3, [r3, #24]
20031afc:	e0823003 	add	r3, r2, r3
20031b00:	e55b2009 	ldrb	r2, [fp, #-9]
20031b04:	e5c32000 	strb	r2, [r3]
20031b08:	e51b3008 	ldr	r3, [fp, #-8]
20031b0c:	e5933018 	ldr	r3, [r3, #24]
20031b10:	e2832001 	add	r2, r3, #1
20031b14:	e51b3008 	ldr	r3, [fp, #-8]
20031b18:	e5832018 	str	r2, [r3, #24]
20031b1c:	e51b3008 	ldr	r3, [fp, #-8]
20031b20:	e5932018 	ldr	r2, [r3, #24]
20031b24:	e51b3008 	ldr	r3, [fp, #-8]
20031b28:	e5933000 	ldr	r3, [r3]
20031b2c:	e5933008 	ldr	r3, [r3, #8]
20031b30:	e1520003 	cmp	r2, r3
20031b34:	1a000002 	bne	20031b44 <sio_irdy_rcv+0x21c>
20031b38:	e51b3008 	ldr	r3, [fp, #-8]
20031b3c:	e3a02000 	mov	r2, #0
20031b40:	e5832018 	str	r2, [r3, #24]
20031b44:	e51b3008 	ldr	r3, [fp, #-8]
20031b48:	e593301c 	ldr	r3, [r3, #28]
20031b4c:	e3530000 	cmp	r3, #0
20031b50:	1a00000a 	bne	20031b80 <sio_irdy_rcv+0x258>
20031b54:	e51b3008 	ldr	r3, [fp, #-8]
20031b58:	e5933000 	ldr	r3, [r3]
20031b5c:	e5933000 	ldr	r3, [r3]
20031b60:	e1a00003 	mov	r0, r3
20031b64:	eb0019b2 	bl	20038234 <isig_sem>
20031b68:	e1a03000 	mov	r3, r0
20031b6c:	e3530000 	cmp	r3, #0
20031b70:	aa000002 	bge	20031b80 <sio_irdy_rcv+0x258>
20031b74:	e51b3008 	ldr	r3, [fp, #-8]
20031b78:	e3a02001 	mov	r2, #1
20031b7c:	e583200c 	str	r2, [r3, #12]
20031b80:	e51b3008 	ldr	r3, [fp, #-8]
20031b84:	e593301c 	ldr	r3, [r3, #28]
20031b88:	e2832001 	add	r2, r3, #1
20031b8c:	e51b3008 	ldr	r3, [fp, #-8]
20031b90:	e583201c 	str	r2, [r3, #28]
20031b94:	e51b3008 	ldr	r3, [fp, #-8]
20031b98:	e5933010 	ldr	r3, [r3, #16]
20031b9c:	e2033b01 	and	r3, r3, #1024	; 0x400
20031ba0:	e3530000 	cmp	r3, #0
20031ba4:	0a00001c 	beq	20031c1c <sio_irdy_rcv+0x2f4>
20031ba8:	e51b3008 	ldr	r3, [fp, #-8]
20031bac:	e5933024 	ldr	r3, [r3, #36]	; 0x24
20031bb0:	e3530000 	cmp	r3, #0
20031bb4:	1a000018 	bne	20031c1c <sio_irdy_rcv+0x2f4>
20031bb8:	e51b3008 	ldr	r3, [fp, #-8]
20031bbc:	e593101c 	ldr	r1, [r3, #28]
20031bc0:	e51b3008 	ldr	r3, [fp, #-8]
20031bc4:	e5933000 	ldr	r3, [r3]
20031bc8:	e5932008 	ldr	r2, [r3, #8]
20031bcc:	e1a03002 	mov	r3, r2
20031bd0:	e1a03083 	lsl	r3, r3, #1
20031bd4:	e0833002 	add	r3, r3, r2
20031bd8:	e1a03123 	lsr	r3, r3, #2
20031bdc:	e1510003 	cmp	r1, r3
20031be0:	3a00000d 	bcc	20031c1c <sio_irdy_rcv+0x2f4>
20031be4:	e51b0008 	ldr	r0, [fp, #-8]
20031be8:	e3a01013 	mov	r1, #19
20031bec:	ebfffc91 	bl	20030e38 <serial_snd_chr>
20031bf0:	e1a03000 	mov	r3, r0
20031bf4:	e3530000 	cmp	r3, #0
20031bf8:	1a000002 	bne	20031c08 <sio_irdy_rcv+0x2e0>
20031bfc:	e51b3008 	ldr	r3, [fp, #-8]
20031c00:	e3a02013 	mov	r2, #19
20031c04:	e5c32020 	strb	r2, [r3, #32]
20031c08:	e51b3008 	ldr	r3, [fp, #-8]
20031c0c:	e3a02001 	mov	r2, #1
20031c10:	e5832024 	str	r2, [r3, #36]	; 0x24
20031c14:	ea000000 	b	20031c1c <sio_irdy_rcv+0x2f4>
20031c18:	e1a00000 	nop			; (mov r0, r0)
20031c1c:	e24bd004 	sub	sp, fp, #4
20031c20:	e8bd8800 	pop	{fp, pc}

20031c24 <serial_get_chr>:
20031c24:	e52db004 	push	{fp}		; (str fp, [sp, #-4]!)
20031c28:	e28db000 	add	fp, sp, #0
20031c2c:	e24dd014 	sub	sp, sp, #20
20031c30:	e50b0010 	str	r0, [fp, #-16]
20031c34:	e50b1014 	str	r1, [fp, #-20]	; 0xffffffec
20031c38:	e51b3010 	ldr	r3, [fp, #-16]
20031c3c:	e3530000 	cmp	r3, #0
20031c40:	da000034 	ble	20031d18 <serial_get_chr+0xf4>
20031c44:	e51b3010 	ldr	r3, [fp, #-16]
20031c48:	e3530002 	cmp	r3, #2
20031c4c:	ca000031 	bgt	20031d18 <serial_get_chr+0xf4>
20031c50:	e51b3010 	ldr	r3, [fp, #-16]
20031c54:	e2432001 	sub	r2, r3, #1
20031c58:	e1a03002 	mov	r3, r2
20031c5c:	e1a03183 	lsl	r3, r3, #3
20031c60:	e0623003 	rsb	r3, r2, r3
20031c64:	e1a03183 	lsl	r3, r3, #3
20031c68:	e1a02003 	mov	r2, r3
20031c6c:	e30c3a1c 	movw	r3, #51740	; 0xca1c
20031c70:	e3423003 	movt	r3, #8195	; 0x2003
20031c74:	e0823003 	add	r3, r2, r3
20031c78:	e50b3008 	str	r3, [fp, #-8]
20031c7c:	e51b3008 	ldr	r3, [fp, #-8]
20031c80:	e5933008 	ldr	r3, [r3, #8]
20031c84:	e3530000 	cmp	r3, #0
20031c88:	0a000022 	beq	20031d18 <serial_get_chr+0xf4>
20031c8c:	e51b3008 	ldr	r3, [fp, #-8]
20031c90:	e5933030 	ldr	r3, [r3, #48]	; 0x30
20031c94:	e3530000 	cmp	r3, #0
20031c98:	0a00001e 	beq	20031d18 <serial_get_chr+0xf4>
20031c9c:	e51b3008 	ldr	r3, [fp, #-8]
20031ca0:	e5933000 	ldr	r3, [r3]
20031ca4:	e5932014 	ldr	r2, [r3, #20]
20031ca8:	e51b3008 	ldr	r3, [fp, #-8]
20031cac:	e5933028 	ldr	r3, [r3, #40]	; 0x28
20031cb0:	e0823003 	add	r3, r2, r3
20031cb4:	e5d32000 	ldrb	r2, [r3]
20031cb8:	e51b3014 	ldr	r3, [fp, #-20]	; 0xffffffec
20031cbc:	e5c32000 	strb	r2, [r3]
20031cc0:	e51b3008 	ldr	r3, [fp, #-8]
20031cc4:	e5933028 	ldr	r3, [r3, #40]	; 0x28
20031cc8:	e2832001 	add	r2, r3, #1
20031ccc:	e51b3008 	ldr	r3, [fp, #-8]
20031cd0:	e5832028 	str	r2, [r3, #40]	; 0x28
20031cd4:	e51b3008 	ldr	r3, [fp, #-8]
20031cd8:	e5932028 	ldr	r2, [r3, #40]	; 0x28
20031cdc:	e51b3008 	ldr	r3, [fp, #-8]
20031ce0:	e5933000 	ldr	r3, [r3]
20031ce4:	e5933010 	ldr	r3, [r3, #16]
20031ce8:	e1520003 	cmp	r2, r3
20031cec:	1a000002 	bne	20031cfc <serial_get_chr+0xd8>
20031cf0:	e51b3008 	ldr	r3, [fp, #-8]
20031cf4:	e3a02000 	mov	r2, #0
20031cf8:	e5832028 	str	r2, [r3, #40]	; 0x28
20031cfc:	e51b3008 	ldr	r3, [fp, #-8]
20031d00:	e5933030 	ldr	r3, [r3, #48]	; 0x30
20031d04:	e2432001 	sub	r2, r3, #1
20031d08:	e51b3008 	ldr	r3, [fp, #-8]
20031d0c:	e5832030 	str	r2, [r3, #48]	; 0x30
20031d10:	e3a03001 	mov	r3, #1
20031d14:	ea000000 	b	20031d1c <serial_get_chr+0xf8>
20031d18:	e3a03000 	mov	r3, #0
20031d1c:	e1a00003 	mov	r0, r3
20031d20:	e28bd000 	add	sp, fp, #0
20031d24:	e49db004 	pop	{fp}		; (ldr fp, [sp], #4)
20031d28:	e12fff1e 	bx	lr

20031d2c <_syslog_2>:
20031d2c:	e92d4800 	push	{fp, lr}
20031d30:	e28db004 	add	fp, sp, #4
20031d34:	e24dd040 	sub	sp, sp, #64	; 0x40
20031d38:	e50b0038 	str	r0, [fp, #-56]	; 0xffffffc8
20031d3c:	e50b103c 	str	r1, [fp, #-60]	; 0xffffffc4
20031d40:	e50b2040 	str	r2, [fp, #-64]	; 0xffffffc0
20031d44:	e50b3044 	str	r3, [fp, #-68]	; 0xffffffbc
20031d48:	e51b303c 	ldr	r3, [fp, #-60]	; 0xffffffc4
20031d4c:	e50b3034 	str	r3, [fp, #-52]	; 0xffffffcc
20031d50:	e51b3040 	ldr	r3, [fp, #-64]	; 0xffffffc0
20031d54:	e50b302c 	str	r3, [fp, #-44]	; 0xffffffd4
20031d58:	e51b3044 	ldr	r3, [fp, #-68]	; 0xffffffbc
20031d5c:	e50b3028 	str	r3, [fp, #-40]	; 0xffffffd8
20031d60:	e24b3034 	sub	r3, fp, #52	; 0x34
20031d64:	e51b0038 	ldr	r0, [fp, #-56]	; 0xffffffc8
20031d68:	e1a01003 	mov	r1, r3
20031d6c:	ebfffa24 	bl	20030604 <syslog_wri_log>
20031d70:	e24bd004 	sub	sp, fp, #4
20031d74:	e8bd8800 	pop	{fp, pc}

20031d78 <logtask_putc>:
20031d78:	e92d4800 	push	{fp, lr}
20031d7c:	e28db004 	add	fp, sp, #4
20031d80:	e24dd008 	sub	sp, sp, #8
20031d84:	e1a03000 	mov	r3, r0
20031d88:	e54b3005 	strb	r3, [fp, #-5]
20031d8c:	e30c3a8c 	movw	r3, #51852	; 0xca8c
20031d90:	e3423003 	movt	r3, #8195	; 0x2003
20031d94:	e5932000 	ldr	r2, [r3]
20031d98:	e24b3005 	sub	r3, fp, #5
20031d9c:	e1a00002 	mov	r0, r2
20031da0:	e1a01003 	mov	r1, r3
20031da4:	e3a02001 	mov	r2, #1
20031da8:	ebfffcb2 	bl	20031078 <serial_wri_dat>
20031dac:	e24bd004 	sub	sp, fp, #4
20031db0:	e8bd8800 	pop	{fp, pc}

20031db4 <logtask_flush>:
20031db4:	e92d4800 	push	{fp, lr}
20031db8:	e28db004 	add	fp, sp, #4
20031dbc:	e24dd028 	sub	sp, sp, #40	; 0x28
20031dc0:	e50b0028 	str	r0, [fp, #-40]	; 0xffffffd8
20031dc4:	eb001e65 	bl	20039760 <sns_dpn>
20031dc8:	e1a03000 	mov	r3, r0
20031dcc:	e3530000 	cmp	r3, #0
20031dd0:	0a000003 	beq	20031de4 <logtask_flush+0x30>
20031dd4:	e3e03018 	mvn	r3, #24
20031dd8:	e50b3008 	str	r3, [fp, #-8]
20031ddc:	ea000034 	b	20031eb4 <logtask_flush+0x100>
20031de0:	e1a00000 	nop			; (mov r0, r0)
20031de4:	e24b301c 	sub	r3, fp, #28
20031de8:	e1a00003 	mov	r0, r3
20031dec:	ebfffac5 	bl	20030908 <syslog_ref_log>
20031df0:	e1a03000 	mov	r3, r0
20031df4:	e3530000 	cmp	r3, #0
20031df8:	aa000002 	bge	20031e08 <logtask_flush+0x54>
20031dfc:	e3e03004 	mvn	r3, #4
20031e00:	e50b3008 	str	r3, [fp, #-8]
20031e04:	ea00002a 	b	20031eb4 <logtask_flush+0x100>
20031e08:	e51b201c 	ldr	r2, [fp, #-28]	; 0xffffffe4
20031e0c:	e51b3028 	ldr	r3, [fp, #-40]	; 0xffffffd8
20031e10:	e1520003 	cmp	r2, r3
20031e14:	8a000018 	bhi	20031e7c <logtask_flush+0xc8>
20031e18:	e51b3028 	ldr	r3, [fp, #-40]	; 0xffffffd8
20031e1c:	e3530000 	cmp	r3, #0
20031e20:	1a000012 	bne	20031e70 <logtask_flush+0xbc>
20031e24:	e30c3a8c 	movw	r3, #51852	; 0xca8c
20031e28:	e3423003 	movt	r3, #8195	; 0x2003
20031e2c:	e5932000 	ldr	r2, [r3]
20031e30:	e24b3024 	sub	r3, fp, #36	; 0x24
20031e34:	e1a00002 	mov	r0, r2
20031e38:	e1a01003 	mov	r1, r3
20031e3c:	ebfffe2c 	bl	200316f4 <serial_ref_por>
20031e40:	e1a03000 	mov	r3, r0
20031e44:	e3530000 	cmp	r3, #0
20031e48:	aa000002 	bge	20031e58 <logtask_flush+0xa4>
20031e4c:	e3e03004 	mvn	r3, #4
20031e50:	e50b3008 	str	r3, [fp, #-8]
20031e54:	ea000016 	b	20031eb4 <logtask_flush+0x100>
20031e58:	e51b3020 	ldr	r3, [fp, #-32]	; 0xffffffe0
20031e5c:	e3530000 	cmp	r3, #0
20031e60:	1a000005 	bne	20031e7c <logtask_flush+0xc8>
20031e64:	e3a03000 	mov	r3, #0
20031e68:	e50b3008 	str	r3, [fp, #-8]
20031e6c:	ea000010 	b	20031eb4 <logtask_flush+0x100>
20031e70:	e3a03000 	mov	r3, #0
20031e74:	e50b3008 	str	r3, [fp, #-8]
20031e78:	ea00000d 	b	20031eb4 <logtask_flush+0x100>
20031e7c:	e3a00001 	mov	r0, #1
20031e80:	eb00176f 	bl	20037c44 <dly_tsk>
20031e84:	e50b000c 	str	r0, [fp, #-12]
20031e88:	e51b300c 	ldr	r3, [fp, #-12]
20031e8c:	e3530000 	cmp	r3, #0
20031e90:	aaffffd2 	bge	20031de0 <logtask_flush+0x2c>
20031e94:	e51b300c 	ldr	r3, [fp, #-12]
20031e98:	e3730031 	cmn	r3, #49	; 0x31
20031e9c:	1a000001 	bne	20031ea8 <logtask_flush+0xf4>
20031ea0:	e3e03030 	mvn	r3, #48	; 0x30
20031ea4:	ea000000 	b	20031eac <logtask_flush+0xf8>
20031ea8:	e3e03004 	mvn	r3, #4
20031eac:	e50b3008 	str	r3, [fp, #-8]
20031eb0:	e1a00000 	nop			; (mov r0, r0)
20031eb4:	e51b3008 	ldr	r3, [fp, #-8]
20031eb8:	e1a00003 	mov	r0, r3
20031ebc:	e24bd004 	sub	sp, fp, #4
20031ec0:	e8bd8800 	pop	{fp, pc}

20031ec4 <logtask_main>:
20031ec4:	e92d4800 	push	{fp, lr}
20031ec8:	e28db004 	add	fp, sp, #4
20031ecc:	e24dd040 	sub	sp, sp, #64	; 0x40
20031ed0:	e50b0040 	str	r0, [fp, #-64]	; 0xffffffc0
20031ed4:	e30c3a8c 	movw	r3, #51852	; 0xca8c
20031ed8:	e3423003 	movt	r3, #8195	; 0x2003
20031edc:	e51b2040 	ldr	r2, [fp, #-64]	; 0xffffffc0
20031ee0:	e5832000 	str	r2, [r3]
20031ee4:	e30c3a8c 	movw	r3, #51852	; 0xca8c
20031ee8:	e3423003 	movt	r3, #8195	; 0x2003
20031eec:	e5933000 	ldr	r3, [r3]
20031ef0:	e1a00003 	mov	r0, r3
20031ef4:	ebfffaea 	bl	20030aa4 <serial_opn_por>
20031ef8:	e3a0003f 	mov	r0, #63	; 0x3f
20031efc:	e3a01001 	mov	r1, #1
20031f00:	ebfffa6d 	bl	200308bc <syslog_msk_log>
20031f04:	e30a3c44 	movw	r3, #44100	; 0xac44
20031f08:	e3423003 	movt	r3, #8195	; 0x2003
20031f0c:	e30c2a8c 	movw	r2, #51852	; 0xca8c
20031f10:	e3422003 	movt	r2, #8195	; 0x2003
20031f14:	e592c000 	ldr	ip, [r2]
20031f18:	e3a00005 	mov	r0, #5
20031f1c:	e3a01001 	mov	r1, #1
20031f20:	e1a02003 	mov	r2, r3
20031f24:	e1a0300c 	mov	r3, ip
20031f28:	ebffff7f 	bl	20031d2c <_syslog_2>
20031f2c:	e3a03000 	mov	r3, #0
20031f30:	e50b3008 	str	r3, [fp, #-8]
20031f34:	ea000016 	b	20031f94 <logtask_main+0xd0>
20031f38:	e51b300c 	ldr	r3, [fp, #-12]
20031f3c:	e51b2008 	ldr	r2, [fp, #-8]
20031f40:	e0823003 	add	r3, r2, r3
20031f44:	e50b3008 	str	r3, [fp, #-8]
20031f48:	e51b303c 	ldr	r3, [fp, #-60]	; 0xffffffc4
20031f4c:	e3530000 	cmp	r3, #0
20031f50:	0a00000f 	beq	20031f94 <logtask_main+0xd0>
20031f54:	e51b3008 	ldr	r3, [fp, #-8]
20031f58:	e3530000 	cmp	r3, #0
20031f5c:	0a000005 	beq	20031f78 <logtask_main+0xb4>
20031f60:	e51b0008 	ldr	r0, [fp, #-8]
20031f64:	e3011d78 	movw	r1, #7544	; 0x1d78
20031f68:	e3421003 	movt	r1, #8195	; 0x2003
20031f6c:	eb0001da 	bl	200326dc <syslog_lostmsg>
20031f70:	e3a03000 	mov	r3, #0
20031f74:	e50b3008 	str	r3, [fp, #-8]
20031f78:	e24b303c 	sub	r3, fp, #60	; 0x3c
20031f7c:	e1a00003 	mov	r0, r3
20031f80:	e3011d78 	movw	r1, #7544	; 0x1d78
20031f84:	e3421003 	movt	r1, #8195	; 0x2003
20031f88:	eb0001b3 	bl	2003265c <syslog_print>
20031f8c:	e3a0000a 	mov	r0, #10
20031f90:	ebffff78 	bl	20031d78 <logtask_putc>
20031f94:	e24b303c 	sub	r3, fp, #60	; 0x3c
20031f98:	e1a00003 	mov	r0, r3
20031f9c:	ebfffa00 	bl	200307a4 <syslog_rea_log>
20031fa0:	e50b000c 	str	r0, [fp, #-12]
20031fa4:	e51b300c 	ldr	r3, [fp, #-12]
20031fa8:	e3530000 	cmp	r3, #0
20031fac:	aaffffe1 	bge	20031f38 <logtask_main+0x74>
20031fb0:	e51b3008 	ldr	r3, [fp, #-8]
20031fb4:	e3530000 	cmp	r3, #0
20031fb8:	0a000003 	beq	20031fcc <logtask_main+0x108>
20031fbc:	e51b0008 	ldr	r0, [fp, #-8]
20031fc0:	e3011d78 	movw	r1, #7544	; 0x1d78
20031fc4:	e3421003 	movt	r1, #8195	; 0x2003
20031fc8:	eb0001c3 	bl	200326dc <syslog_lostmsg>
20031fcc:	e3a0000a 	mov	r0, #10
20031fd0:	eb00171b 	bl	20037c44 <dly_tsk>
20031fd4:	eaffffd4 	b	20031f2c <logtask_main+0x68>

20031fd8 <logtask_terminate>:
20031fd8:	e92d4800 	push	{fp, lr}
20031fdc:	e28db004 	add	fp, sp, #4
20031fe0:	e24dd048 	sub	sp, sp, #72	; 0x48
20031fe4:	e50b0048 	str	r0, [fp, #-72]	; 0xffffffb8
20031fe8:	e3a03000 	mov	r3, #0
20031fec:	e50b3008 	str	r3, [fp, #-8]
20031ff0:	ea000002 	b	20032000 <logtask_terminate+0x28>
20031ff4:	e55b300d 	ldrb	r3, [fp, #-13]
20031ff8:	e1a00003 	mov	r0, r3
20031ffc:	eb000615 	bl	20033858 <target_fput_log>
20032000:	e30c3a8c 	movw	r3, #51852	; 0xca8c
20032004:	e3423003 	movt	r3, #8195	; 0x2003
20032008:	e5932000 	ldr	r2, [r3]
2003200c:	e24b300d 	sub	r3, fp, #13
20032010:	e1a00002 	mov	r0, r2
20032014:	e1a01003 	mov	r1, r3
20032018:	ebffff01 	bl	20031c24 <serial_get_chr>
2003201c:	e1a03000 	mov	r3, r0
20032020:	e3530000 	cmp	r3, #0
20032024:	1afffff2 	bne	20031ff4 <logtask_terminate+0x1c>
20032028:	ea00001c 	b	200320a0 <logtask_terminate+0xc8>
2003202c:	e51b3008 	ldr	r3, [fp, #-8]
20032030:	e3530000 	cmp	r3, #0
20032034:	1a000007 	bne	20032058 <logtask_terminate+0x80>
20032038:	e30a0c70 	movw	r0, #44144	; 0xac70
2003203c:	e3420003 	movt	r0, #8195	; 0x2003
20032040:	e3a01000 	mov	r1, #0
20032044:	e3032858 	movw	r2, #14424	; 0x3858
20032048:	e3422003 	movt	r2, #8195	; 0x2003
2003204c:	eb000081 	bl	20032258 <syslog_printf>
20032050:	e3a03001 	mov	r3, #1
20032054:	e50b3008 	str	r3, [fp, #-8]
20032058:	e51b300c 	ldr	r3, [fp, #-12]
2003205c:	e3530000 	cmp	r3, #0
20032060:	da000004 	ble	20032078 <logtask_terminate+0xa0>
20032064:	e51b300c 	ldr	r3, [fp, #-12]
20032068:	e1a00003 	mov	r0, r3
2003206c:	e3031858 	movw	r1, #14424	; 0x3858
20032070:	e3421003 	movt	r1, #8195	; 0x2003
20032074:	eb000198 	bl	200326dc <syslog_lostmsg>
20032078:	e51b3040 	ldr	r3, [fp, #-64]	; 0xffffffc0
2003207c:	e3530000 	cmp	r3, #0
20032080:	0a000006 	beq	200320a0 <logtask_terminate+0xc8>
20032084:	e24b3040 	sub	r3, fp, #64	; 0x40
20032088:	e1a00003 	mov	r0, r3
2003208c:	e3031858 	movw	r1, #14424	; 0x3858
20032090:	e3421003 	movt	r1, #8195	; 0x2003
20032094:	eb000170 	bl	2003265c <syslog_print>
20032098:	e3a0000a 	mov	r0, #10
2003209c:	eb0005ed 	bl	20033858 <target_fput_log>
200320a0:	e24b3040 	sub	r3, fp, #64	; 0x40
200320a4:	e1a00003 	mov	r0, r3
200320a8:	ebfff9bd 	bl	200307a4 <syslog_rea_log>
200320ac:	e50b000c 	str	r0, [fp, #-12]
200320b0:	e51b300c 	ldr	r3, [fp, #-12]
200320b4:	e3530000 	cmp	r3, #0
200320b8:	aaffffdb 	bge	2003202c <logtask_terminate+0x54>
200320bc:	e24bd004 	sub	sp, fp, #4
200320c0:	e8bd8800 	pop	{fp, pc}

200320c4 <convert>:
200320c4:	e92d4800 	push	{fp, lr}
200320c8:	e28db004 	add	fp, sp, #4
200320cc:	e24dd028 	sub	sp, sp, #40	; 0x28
200320d0:	e50b0020 	str	r0, [fp, #-32]	; 0xffffffe0
200320d4:	e50b1024 	str	r1, [fp, #-36]	; 0xffffffdc
200320d8:	e50b2028 	str	r2, [fp, #-40]	; 0xffffffd8
200320dc:	e50b302c 	str	r3, [fp, #-44]	; 0xffffffd4
200320e0:	e3a03000 	mov	r3, #0
200320e4:	e50b3008 	str	r3, [fp, #-8]
200320e8:	e51b3020 	ldr	r3, [fp, #-32]	; 0xffffffe0
200320ec:	e1a00003 	mov	r0, r3
200320f0:	e51b1024 	ldr	r1, [fp, #-36]	; 0xffffffdc
200320f4:	eb002206 	bl	2003a914 <__aeabi_uidivmod>
200320f8:	e1a03001 	mov	r3, r1
200320fc:	e51b2028 	ldr	r2, [fp, #-40]	; 0xffffffd8
20032100:	e0823003 	add	r3, r2, r3
20032104:	e5d32000 	ldrb	r2, [r3]
20032108:	e3e03013 	mvn	r3, #19
2003210c:	e51b1008 	ldr	r1, [fp, #-8]
20032110:	e24b0004 	sub	r0, fp, #4
20032114:	e0801001 	add	r1, r0, r1
20032118:	e0813003 	add	r3, r1, r3
2003211c:	e5c32000 	strb	r2, [r3]
20032120:	e51b3008 	ldr	r3, [fp, #-8]
20032124:	e2833001 	add	r3, r3, #1
20032128:	e50b3008 	str	r3, [fp, #-8]
2003212c:	e51b0020 	ldr	r0, [fp, #-32]	; 0xffffffe0
20032130:	e51b1024 	ldr	r1, [fp, #-36]	; 0xffffffdc
20032134:	eb0021b9 	bl	2003a820 <__aeabi_uidiv>
20032138:	e1a03000 	mov	r3, r0
2003213c:	e50b3020 	str	r3, [fp, #-32]	; 0xffffffe0
20032140:	e51b3008 	ldr	r3, [fp, #-8]
20032144:	e353000a 	cmp	r3, #10
20032148:	8a000002 	bhi	20032158 <convert+0x94>
2003214c:	e51b3020 	ldr	r3, [fp, #-32]	; 0xffffffe0
20032150:	e3530000 	cmp	r3, #0
20032154:	1affffe3 	bne	200320e8 <convert+0x24>
20032158:	e59b3004 	ldr	r3, [fp, #4]
2003215c:	e3530000 	cmp	r3, #0
20032160:	0a000005 	beq	2003217c <convert+0xb8>
20032164:	e51b302c 	ldr	r3, [fp, #-44]	; 0xffffffd4
20032168:	e3530000 	cmp	r3, #0
2003216c:	0a000002 	beq	2003217c <convert+0xb8>
20032170:	e51b302c 	ldr	r3, [fp, #-44]	; 0xffffffd4
20032174:	e2433001 	sub	r3, r3, #1
20032178:	e50b302c 	str	r3, [fp, #-44]	; 0xffffffd4
2003217c:	e59b3004 	ldr	r3, [fp, #4]
20032180:	e3530000 	cmp	r3, #0
20032184:	0a000005 	beq	200321a0 <convert+0xdc>
20032188:	e59b3008 	ldr	r3, [fp, #8]
2003218c:	e3530000 	cmp	r3, #0
20032190:	0a000002 	beq	200321a0 <convert+0xdc>
20032194:	e59b300c 	ldr	r3, [fp, #12]
20032198:	e3a0002d 	mov	r0, #45	; 0x2d
2003219c:	e12fff33 	blx	r3
200321a0:	e51b3008 	ldr	r3, [fp, #-8]
200321a4:	e50b300c 	str	r3, [fp, #-12]
200321a8:	ea00000b 	b	200321dc <convert+0x118>
200321ac:	e59b3008 	ldr	r3, [fp, #8]
200321b0:	e3530000 	cmp	r3, #0
200321b4:	0a000001 	beq	200321c0 <convert+0xfc>
200321b8:	e3a03030 	mov	r3, #48	; 0x30
200321bc:	ea000000 	b	200321c4 <convert+0x100>
200321c0:	e3a03020 	mov	r3, #32
200321c4:	e59b200c 	ldr	r2, [fp, #12]
200321c8:	e1a00003 	mov	r0, r3
200321cc:	e12fff32 	blx	r2
200321d0:	e51b300c 	ldr	r3, [fp, #-12]
200321d4:	e2833001 	add	r3, r3, #1
200321d8:	e50b300c 	str	r3, [fp, #-12]
200321dc:	e51b200c 	ldr	r2, [fp, #-12]
200321e0:	e51b302c 	ldr	r3, [fp, #-44]	; 0xffffffd4
200321e4:	e1520003 	cmp	r2, r3
200321e8:	3affffef 	bcc	200321ac <convert+0xe8>
200321ec:	e59b3004 	ldr	r3, [fp, #4]
200321f0:	e3530000 	cmp	r3, #0
200321f4:	0a000012 	beq	20032244 <convert+0x180>
200321f8:	e59b3008 	ldr	r3, [fp, #8]
200321fc:	e3530000 	cmp	r3, #0
20032200:	1a00000f 	bne	20032244 <convert+0x180>
20032204:	e59b300c 	ldr	r3, [fp, #12]
20032208:	e3a0002d 	mov	r0, #45	; 0x2d
2003220c:	e12fff33 	blx	r3
20032210:	ea00000b 	b	20032244 <convert+0x180>
20032214:	e51b3008 	ldr	r3, [fp, #-8]
20032218:	e2433001 	sub	r3, r3, #1
2003221c:	e50b3008 	str	r3, [fp, #-8]
20032220:	e3e03013 	mvn	r3, #19
20032224:	e51b2008 	ldr	r2, [fp, #-8]
20032228:	e24b1004 	sub	r1, fp, #4
2003222c:	e0812002 	add	r2, r1, r2
20032230:	e0823003 	add	r3, r2, r3
20032234:	e5d32000 	ldrb	r2, [r3]
20032238:	e59b300c 	ldr	r3, [fp, #12]
2003223c:	e1a00002 	mov	r0, r2
20032240:	e12fff33 	blx	r3
20032244:	e51b3008 	ldr	r3, [fp, #-8]
20032248:	e3530000 	cmp	r3, #0
2003224c:	1afffff0 	bne	20032214 <convert+0x150>
20032250:	e24bd004 	sub	sp, fp, #4
20032254:	e8bd8800 	pop	{fp, pc}

20032258 <syslog_printf>:
20032258:	e92d4800 	push	{fp, lr}
2003225c:	e28db004 	add	fp, sp, #4
20032260:	e24dd038 	sub	sp, sp, #56	; 0x38
20032264:	e50b0020 	str	r0, [fp, #-32]	; 0xffffffe0
20032268:	e50b1024 	str	r1, [fp, #-36]	; 0xffffffdc
2003226c:	e50b2028 	str	r2, [fp, #-40]	; 0xffffffd8
20032270:	ea0000ea 	b	20032620 <syslog_printf+0x3c8>
20032274:	e55b3005 	ldrb	r3, [fp, #-5]
20032278:	e3530025 	cmp	r3, #37	; 0x25
2003227c:	0a000004 	beq	20032294 <syslog_printf+0x3c>
20032280:	e55b2005 	ldrb	r2, [fp, #-5]
20032284:	e51b3028 	ldr	r3, [fp, #-40]	; 0xffffffd8
20032288:	e1a00002 	mov	r0, r2
2003228c:	e12fff33 	blx	r3
20032290:	ea0000e2 	b	20032620 <syslog_printf+0x3c8>
20032294:	e3a03000 	mov	r3, #0
20032298:	e50b300c 	str	r3, [fp, #-12]
2003229c:	e3a03000 	mov	r3, #0
200322a0:	e50b3010 	str	r3, [fp, #-16]
200322a4:	e51b3020 	ldr	r3, [fp, #-32]	; 0xffffffe0
200322a8:	e5d33000 	ldrb	r3, [r3]
200322ac:	e54b3005 	strb	r3, [fp, #-5]
200322b0:	e55b3005 	ldrb	r3, [fp, #-5]
200322b4:	e3530030 	cmp	r3, #48	; 0x30
200322b8:	13a03000 	movne	r3, #0
200322bc:	03a03001 	moveq	r3, #1
200322c0:	e6ef3073 	uxtb	r3, r3
200322c4:	e51b2020 	ldr	r2, [fp, #-32]	; 0xffffffe0
200322c8:	e2822001 	add	r2, r2, #1
200322cc:	e50b2020 	str	r2, [fp, #-32]	; 0xffffffe0
200322d0:	e3530000 	cmp	r3, #0
200322d4:	0a000018 	beq	2003233c <syslog_printf+0xe4>
200322d8:	e3a03001 	mov	r3, #1
200322dc:	e50b3010 	str	r3, [fp, #-16]
200322e0:	e51b3020 	ldr	r3, [fp, #-32]	; 0xffffffe0
200322e4:	e5d33000 	ldrb	r3, [r3]
200322e8:	e54b3005 	strb	r3, [fp, #-5]
200322ec:	e51b3020 	ldr	r3, [fp, #-32]	; 0xffffffe0
200322f0:	e2833001 	add	r3, r3, #1
200322f4:	e50b3020 	str	r3, [fp, #-32]	; 0xffffffe0
200322f8:	ea00000f 	b	2003233c <syslog_printf+0xe4>
200322fc:	e51b200c 	ldr	r2, [fp, #-12]
20032300:	e1a03002 	mov	r3, r2
20032304:	e1a03103 	lsl	r3, r3, #2
20032308:	e0833002 	add	r3, r3, r2
2003230c:	e1a03083 	lsl	r3, r3, #1
20032310:	e1a02003 	mov	r2, r3
20032314:	e55b3005 	ldrb	r3, [fp, #-5]
20032318:	e0823003 	add	r3, r2, r3
2003231c:	e2433030 	sub	r3, r3, #48	; 0x30
20032320:	e50b300c 	str	r3, [fp, #-12]
20032324:	e51b3020 	ldr	r3, [fp, #-32]	; 0xffffffe0
20032328:	e5d33000 	ldrb	r3, [r3]
2003232c:	e54b3005 	strb	r3, [fp, #-5]
20032330:	e51b3020 	ldr	r3, [fp, #-32]	; 0xffffffe0
20032334:	e2833001 	add	r3, r3, #1
20032338:	e50b3020 	str	r3, [fp, #-32]	; 0xffffffe0
2003233c:	e55b3005 	ldrb	r3, [fp, #-5]
20032340:	e353002f 	cmp	r3, #47	; 0x2f
20032344:	9a000002 	bls	20032354 <syslog_printf+0xfc>
20032348:	e55b3005 	ldrb	r3, [fp, #-5]
2003234c:	e3530039 	cmp	r3, #57	; 0x39
20032350:	9affffe9 	bls	200322fc <syslog_printf+0xa4>
20032354:	e55b3005 	ldrb	r3, [fp, #-5]
20032358:	e353006c 	cmp	r3, #108	; 0x6c
2003235c:	1a000005 	bne	20032378 <syslog_printf+0x120>
20032360:	e51b3020 	ldr	r3, [fp, #-32]	; 0xffffffe0
20032364:	e5d33000 	ldrb	r3, [r3]
20032368:	e54b3005 	strb	r3, [fp, #-5]
2003236c:	e51b3020 	ldr	r3, [fp, #-32]	; 0xffffffe0
20032370:	e2833001 	add	r3, r3, #1
20032374:	e50b3020 	str	r3, [fp, #-32]	; 0xffffffe0
20032378:	e55b3005 	ldrb	r3, [fp, #-5]
2003237c:	e3530070 	cmp	r3, #112	; 0x70
20032380:	0a000052 	beq	200324d0 <syslog_printf+0x278>
20032384:	e3530070 	cmp	r3, #112	; 0x70
20032388:	ca00000f 	bgt	200323cc <syslog_printf+0x174>
2003238c:	e3530063 	cmp	r3, #99	; 0x63
20032390:	0a000076 	beq	20032570 <syslog_printf+0x318>
20032394:	e3530063 	cmp	r3, #99	; 0x63
20032398:	ca000008 	bgt	200323c0 <syslog_printf+0x168>
2003239c:	e3530058 	cmp	r3, #88	; 0x58
200323a0:	0a00005e 	beq	20032520 <syslog_printf+0x2c8>
200323a4:	e3530058 	cmp	r3, #88	; 0x58
200323a8:	ca00009b 	bgt	2003261c <syslog_printf+0x3c4>
200323ac:	e3530000 	cmp	r3, #0
200323b0:	0a000095 	beq	2003260c <syslog_printf+0x3b4>
200323b4:	e3530025 	cmp	r3, #37	; 0x25
200323b8:	0a00008f 	beq	200325fc <syslog_printf+0x3a4>
200323bc:	ea000097 	b	20032620 <syslog_printf+0x3c8>
200323c0:	e3530064 	cmp	r3, #100	; 0x64
200323c4:	0a000007 	beq	200323e8 <syslog_printf+0x190>
200323c8:	ea000094 	b	20032620 <syslog_printf+0x3c8>
200323cc:	e3530075 	cmp	r3, #117	; 0x75
200323d0:	0a00002a 	beq	20032480 <syslog_printf+0x228>
200323d4:	e3530078 	cmp	r3, #120	; 0x78
200323d8:	0a00003c 	beq	200324d0 <syslog_printf+0x278>
200323dc:	e3530073 	cmp	r3, #115	; 0x73
200323e0:	0a00006c 	beq	20032598 <syslog_printf+0x340>
200323e4:	ea00008d 	b	20032620 <syslog_printf+0x3c8>
200323e8:	e51b3024 	ldr	r3, [fp, #-36]	; 0xffffffdc
200323ec:	e5933000 	ldr	r3, [r3]
200323f0:	e50b3018 	str	r3, [fp, #-24]	; 0xffffffe8
200323f4:	e51b3024 	ldr	r3, [fp, #-36]	; 0xffffffdc
200323f8:	e2833004 	add	r3, r3, #4
200323fc:	e50b3024 	str	r3, [fp, #-36]	; 0xffffffdc
20032400:	e51b3018 	ldr	r3, [fp, #-24]	; 0xffffffe8
20032404:	e3530000 	cmp	r3, #0
20032408:	ba00000d 	blt	20032444 <syslog_printf+0x1ec>
2003240c:	e51b3018 	ldr	r3, [fp, #-24]	; 0xffffffe8
20032410:	e3a02000 	mov	r2, #0
20032414:	e58d2000 	str	r2, [sp]
20032418:	e51b2010 	ldr	r2, [fp, #-16]
2003241c:	e58d2004 	str	r2, [sp, #4]
20032420:	e51b2028 	ldr	r2, [fp, #-40]	; 0xffffffd8
20032424:	e58d2008 	str	r2, [sp, #8]
20032428:	e1a00003 	mov	r0, r3
2003242c:	e3a0100a 	mov	r1, #10
20032430:	e30a2c8c 	movw	r2, #44172	; 0xac8c
20032434:	e3422003 	movt	r2, #8195	; 0x2003
20032438:	e51b300c 	ldr	r3, [fp, #-12]
2003243c:	ebffff20 	bl	200320c4 <convert>
20032440:	ea000076 	b	20032620 <syslog_printf+0x3c8>
20032444:	e51b3018 	ldr	r3, [fp, #-24]	; 0xffffffe8
20032448:	e2633000 	rsb	r3, r3, #0
2003244c:	e3a02001 	mov	r2, #1
20032450:	e58d2000 	str	r2, [sp]
20032454:	e51b2010 	ldr	r2, [fp, #-16]
20032458:	e58d2004 	str	r2, [sp, #4]
2003245c:	e51b2028 	ldr	r2, [fp, #-40]	; 0xffffffd8
20032460:	e58d2008 	str	r2, [sp, #8]
20032464:	e1a00003 	mov	r0, r3
20032468:	e3a0100a 	mov	r1, #10
2003246c:	e30a2c8c 	movw	r2, #44172	; 0xac8c
20032470:	e3422003 	movt	r2, #8195	; 0x2003
20032474:	e51b300c 	ldr	r3, [fp, #-12]
20032478:	ebffff11 	bl	200320c4 <convert>
2003247c:	ea000067 	b	20032620 <syslog_printf+0x3c8>
20032480:	e51b3024 	ldr	r3, [fp, #-36]	; 0xffffffdc
20032484:	e5933000 	ldr	r3, [r3]
20032488:	e50b3018 	str	r3, [fp, #-24]	; 0xffffffe8
2003248c:	e51b3024 	ldr	r3, [fp, #-36]	; 0xffffffdc
20032490:	e2833004 	add	r3, r3, #4
20032494:	e50b3024 	str	r3, [fp, #-36]	; 0xffffffdc
20032498:	e51b3018 	ldr	r3, [fp, #-24]	; 0xffffffe8
2003249c:	e3a02000 	mov	r2, #0
200324a0:	e58d2000 	str	r2, [sp]
200324a4:	e51b2010 	ldr	r2, [fp, #-16]
200324a8:	e58d2004 	str	r2, [sp, #4]
200324ac:	e51b2028 	ldr	r2, [fp, #-40]	; 0xffffffd8
200324b0:	e58d2008 	str	r2, [sp, #8]
200324b4:	e1a00003 	mov	r0, r3
200324b8:	e3a0100a 	mov	r1, #10
200324bc:	e30a2c8c 	movw	r2, #44172	; 0xac8c
200324c0:	e3422003 	movt	r2, #8195	; 0x2003
200324c4:	e51b300c 	ldr	r3, [fp, #-12]
200324c8:	ebfffefd 	bl	200320c4 <convert>
200324cc:	ea000053 	b	20032620 <syslog_printf+0x3c8>
200324d0:	e51b3024 	ldr	r3, [fp, #-36]	; 0xffffffdc
200324d4:	e5933000 	ldr	r3, [r3]
200324d8:	e50b3018 	str	r3, [fp, #-24]	; 0xffffffe8
200324dc:	e51b3024 	ldr	r3, [fp, #-36]	; 0xffffffdc
200324e0:	e2833004 	add	r3, r3, #4
200324e4:	e50b3024 	str	r3, [fp, #-36]	; 0xffffffdc
200324e8:	e51b3018 	ldr	r3, [fp, #-24]	; 0xffffffe8
200324ec:	e3a02000 	mov	r2, #0
200324f0:	e58d2000 	str	r2, [sp]
200324f4:	e51b2010 	ldr	r2, [fp, #-16]
200324f8:	e58d2004 	str	r2, [sp, #4]
200324fc:	e51b2028 	ldr	r2, [fp, #-40]	; 0xffffffd8
20032500:	e58d2008 	str	r2, [sp, #8]
20032504:	e1a00003 	mov	r0, r3
20032508:	e3a01010 	mov	r1, #16
2003250c:	e30a2c98 	movw	r2, #44184	; 0xac98
20032510:	e3422003 	movt	r2, #8195	; 0x2003
20032514:	e51b300c 	ldr	r3, [fp, #-12]
20032518:	ebfffee9 	bl	200320c4 <convert>
2003251c:	ea00003f 	b	20032620 <syslog_printf+0x3c8>
20032520:	e51b3024 	ldr	r3, [fp, #-36]	; 0xffffffdc
20032524:	e5933000 	ldr	r3, [r3]
20032528:	e50b3018 	str	r3, [fp, #-24]	; 0xffffffe8
2003252c:	e51b3024 	ldr	r3, [fp, #-36]	; 0xffffffdc
20032530:	e2833004 	add	r3, r3, #4
20032534:	e50b3024 	str	r3, [fp, #-36]	; 0xffffffdc
20032538:	e51b3018 	ldr	r3, [fp, #-24]	; 0xffffffe8
2003253c:	e3a02000 	mov	r2, #0
20032540:	e58d2000 	str	r2, [sp]
20032544:	e51b2010 	ldr	r2, [fp, #-16]
20032548:	e58d2004 	str	r2, [sp, #4]
2003254c:	e51b2028 	ldr	r2, [fp, #-40]	; 0xffffffd8
20032550:	e58d2008 	str	r2, [sp, #8]
20032554:	e1a00003 	mov	r0, r3
20032558:	e3a01010 	mov	r1, #16
2003255c:	e30a2cac 	movw	r2, #44204	; 0xacac
20032560:	e3422003 	movt	r2, #8195	; 0x2003
20032564:	e51b300c 	ldr	r3, [fp, #-12]
20032568:	ebfffed5 	bl	200320c4 <convert>
2003256c:	ea00002b 	b	20032620 <syslog_printf+0x3c8>
20032570:	e51b3024 	ldr	r3, [fp, #-36]	; 0xffffffdc
20032574:	e5933000 	ldr	r3, [r3]
20032578:	e6ef2073 	uxtb	r2, r3
2003257c:	e51b3024 	ldr	r3, [fp, #-36]	; 0xffffffdc
20032580:	e2833004 	add	r3, r3, #4
20032584:	e50b3024 	str	r3, [fp, #-36]	; 0xffffffdc
20032588:	e51b3028 	ldr	r3, [fp, #-40]	; 0xffffffd8
2003258c:	e1a00002 	mov	r0, r2
20032590:	e12fff33 	blx	r3
20032594:	ea000021 	b	20032620 <syslog_printf+0x3c8>
20032598:	e51b3024 	ldr	r3, [fp, #-36]	; 0xffffffdc
2003259c:	e5933000 	ldr	r3, [r3]
200325a0:	e50b3014 	str	r3, [fp, #-20]	; 0xffffffec
200325a4:	e51b3024 	ldr	r3, [fp, #-36]	; 0xffffffdc
200325a8:	e2833004 	add	r3, r3, #4
200325ac:	e50b3024 	str	r3, [fp, #-36]	; 0xffffffdc
200325b0:	ea000003 	b	200325c4 <syslog_printf+0x36c>
200325b4:	e55b2005 	ldrb	r2, [fp, #-5]
200325b8:	e51b3028 	ldr	r3, [fp, #-40]	; 0xffffffd8
200325bc:	e1a00002 	mov	r0, r2
200325c0:	e12fff33 	blx	r3
200325c4:	e51b3014 	ldr	r3, [fp, #-20]	; 0xffffffec
200325c8:	e5d33000 	ldrb	r3, [r3]
200325cc:	e54b3005 	strb	r3, [fp, #-5]
200325d0:	e55b3005 	ldrb	r3, [fp, #-5]
200325d4:	e3530000 	cmp	r3, #0
200325d8:	03a03000 	moveq	r3, #0
200325dc:	13a03001 	movne	r3, #1
200325e0:	e6ef3073 	uxtb	r3, r3
200325e4:	e51b2014 	ldr	r2, [fp, #-20]	; 0xffffffec
200325e8:	e2822001 	add	r2, r2, #1
200325ec:	e50b2014 	str	r2, [fp, #-20]	; 0xffffffec
200325f0:	e3530000 	cmp	r3, #0
200325f4:	1affffee 	bne	200325b4 <syslog_printf+0x35c>
200325f8:	ea000008 	b	20032620 <syslog_printf+0x3c8>
200325fc:	e51b3028 	ldr	r3, [fp, #-40]	; 0xffffffd8
20032600:	e3a00025 	mov	r0, #37	; 0x25
20032604:	e12fff33 	blx	r3
20032608:	ea000004 	b	20032620 <syslog_printf+0x3c8>
2003260c:	e51b3020 	ldr	r3, [fp, #-32]	; 0xffffffe0
20032610:	e2433001 	sub	r3, r3, #1
20032614:	e50b3020 	str	r3, [fp, #-32]	; 0xffffffe0
20032618:	ea000000 	b	20032620 <syslog_printf+0x3c8>
2003261c:	e1a00000 	nop			; (mov r0, r0)
20032620:	e51b3020 	ldr	r3, [fp, #-32]	; 0xffffffe0
20032624:	e5d33000 	ldrb	r3, [r3]
20032628:	e54b3005 	strb	r3, [fp, #-5]
2003262c:	e55b3005 	ldrb	r3, [fp, #-5]
20032630:	e3530000 	cmp	r3, #0
20032634:	03a03000 	moveq	r3, #0
20032638:	13a03001 	movne	r3, #1
2003263c:	e6ef3073 	uxtb	r3, r3
20032640:	e51b2020 	ldr	r2, [fp, #-32]	; 0xffffffe0
20032644:	e2822001 	add	r2, r2, #1
20032648:	e50b2020 	str	r2, [fp, #-32]	; 0xffffffe0
2003264c:	e3530000 	cmp	r3, #0
20032650:	1affff07 	bne	20032274 <syslog_printf+0x1c>
20032654:	e24bd004 	sub	sp, fp, #4
20032658:	e8bd8800 	pop	{fp, pc}

2003265c <syslog_print>:
2003265c:	e92d4800 	push	{fp, lr}
20032660:	e28db004 	add	fp, sp, #4
20032664:	e24dd008 	sub	sp, sp, #8
20032668:	e50b0008 	str	r0, [fp, #-8]
2003266c:	e50b100c 	str	r1, [fp, #-12]
20032670:	e51b3008 	ldr	r3, [fp, #-8]
20032674:	e5933000 	ldr	r3, [r3]
20032678:	e3530001 	cmp	r3, #1
2003267c:	0a000002 	beq	2003268c <syslog_print+0x30>
20032680:	e3530002 	cmp	r3, #2
20032684:	0a00000a 	beq	200326b4 <syslog_print+0x58>
20032688:	ea000011 	b	200326d4 <syslog_print+0x78>
2003268c:	e51b3008 	ldr	r3, [fp, #-8]
20032690:	e5933008 	ldr	r3, [r3, #8]
20032694:	e1a02003 	mov	r2, r3
20032698:	e51b3008 	ldr	r3, [fp, #-8]
2003269c:	e283300c 	add	r3, r3, #12
200326a0:	e1a00002 	mov	r0, r2
200326a4:	e1a01003 	mov	r1, r3
200326a8:	e51b200c 	ldr	r2, [fp, #-12]
200326ac:	ebfffee9 	bl	20032258 <syslog_printf>
200326b0:	ea000007 	b	200326d4 <syslog_print+0x78>
200326b4:	e51b3008 	ldr	r3, [fp, #-8]
200326b8:	e2833008 	add	r3, r3, #8
200326bc:	e30a0cc0 	movw	r0, #44224	; 0xacc0
200326c0:	e3420003 	movt	r0, #8195	; 0x2003
200326c4:	e1a01003 	mov	r1, r3
200326c8:	e51b200c 	ldr	r2, [fp, #-12]
200326cc:	ebfffee1 	bl	20032258 <syslog_printf>
200326d0:	e1a00000 	nop			; (mov r0, r0)
200326d4:	e24bd004 	sub	sp, fp, #4
200326d8:	e8bd8800 	pop	{fp, pc}

200326dc <syslog_lostmsg>:
200326dc:	e92d4800 	push	{fp, lr}
200326e0:	e28db004 	add	fp, sp, #4
200326e4:	e24dd010 	sub	sp, sp, #16
200326e8:	e50b0010 	str	r0, [fp, #-16]
200326ec:	e50b1014 	str	r1, [fp, #-20]	; 0xffffffec
200326f0:	e51b3010 	ldr	r3, [fp, #-16]
200326f4:	e50b3008 	str	r3, [fp, #-8]
200326f8:	e24b3008 	sub	r3, fp, #8
200326fc:	e30a0ce0 	movw	r0, #44256	; 0xace0
20032700:	e3420003 	movt	r0, #8195	; 0x2003
20032704:	e1a01003 	mov	r1, r3
20032708:	e51b2014 	ldr	r2, [fp, #-20]	; 0xffffffec
2003270c:	ebfffed1 	bl	20032258 <syslog_printf>
20032710:	e51b3014 	ldr	r3, [fp, #-20]	; 0xffffffec
20032714:	e3a0000a 	mov	r0, #10
20032718:	e12fff33 	blx	r3
2003271c:	e24bd004 	sub	sp, fp, #4
20032720:	e8bd8800 	pop	{fp, pc}

20032724 <syslog>:
20032724:	e92d000e 	push	{r1, r2, r3}
20032728:	e92d4800 	push	{fp, lr}
2003272c:	e28db004 	add	fp, sp, #4
20032730:	e24dd04c 	sub	sp, sp, #76	; 0x4c
20032734:	e50b004c 	str	r0, [fp, #-76]	; 0xffffffb4
20032738:	e3a03001 	mov	r3, #1
2003273c:	e50b3044 	str	r3, [fp, #-68]	; 0xffffffbc
20032740:	e59b3004 	ldr	r3, [fp, #4]
20032744:	e50b303c 	str	r3, [fp, #-60]	; 0xffffffc4
20032748:	e3a03001 	mov	r3, #1
2003274c:	e50b300c 	str	r3, [fp, #-12]
20032750:	e28b3008 	add	r3, fp, #8
20032754:	e50b3048 	str	r3, [fp, #-72]	; 0xffffffb8
20032758:	ea0000a1 	b	200329e4 <syslog+0x2c0>
2003275c:	e55b300d 	ldrb	r3, [fp, #-13]
20032760:	e3530025 	cmp	r3, #37	; 0x25
20032764:	1a00009d 	bne	200329e0 <syslog+0x2bc>
20032768:	e3a03000 	mov	r3, #0
2003276c:	e50b3014 	str	r3, [fp, #-20]	; 0xffffffec
20032770:	e59b3004 	ldr	r3, [fp, #4]
20032774:	e5d33000 	ldrb	r3, [r3]
20032778:	e54b300d 	strb	r3, [fp, #-13]
2003277c:	e59b3004 	ldr	r3, [fp, #4]
20032780:	e2833001 	add	r3, r3, #1
20032784:	e58b3004 	str	r3, [fp, #4]
20032788:	ea000005 	b	200327a4 <syslog+0x80>
2003278c:	e59b3004 	ldr	r3, [fp, #4]
20032790:	e5d33000 	ldrb	r3, [r3]
20032794:	e54b300d 	strb	r3, [fp, #-13]
20032798:	e59b3004 	ldr	r3, [fp, #4]
2003279c:	e2833001 	add	r3, r3, #1
200327a0:	e58b3004 	str	r3, [fp, #4]
200327a4:	e55b300d 	ldrb	r3, [fp, #-13]
200327a8:	e353002f 	cmp	r3, #47	; 0x2f
200327ac:	9a000002 	bls	200327bc <syslog+0x98>
200327b0:	e55b300d 	ldrb	r3, [fp, #-13]
200327b4:	e3530039 	cmp	r3, #57	; 0x39
200327b8:	9afffff3 	bls	2003278c <syslog+0x68>
200327bc:	e55b300d 	ldrb	r3, [fp, #-13]
200327c0:	e353006c 	cmp	r3, #108	; 0x6c
200327c4:	1a000007 	bne	200327e8 <syslog+0xc4>
200327c8:	e3a03001 	mov	r3, #1
200327cc:	e50b3014 	str	r3, [fp, #-20]	; 0xffffffec
200327d0:	e59b3004 	ldr	r3, [fp, #4]
200327d4:	e5d33000 	ldrb	r3, [r3]
200327d8:	e54b300d 	strb	r3, [fp, #-13]
200327dc:	e59b3004 	ldr	r3, [fp, #4]
200327e0:	e2833001 	add	r3, r3, #1
200327e4:	e58b3004 	str	r3, [fp, #4]
200327e8:	e55b300d 	ldrb	r3, [fp, #-13]
200327ec:	e3530070 	cmp	r3, #112	; 0x70
200327f0:	0a000044 	beq	20032908 <syslog+0x1e4>
200327f4:	e3530070 	cmp	r3, #112	; 0x70
200327f8:	ca00000b 	bgt	2003282c <syslog+0x108>
200327fc:	e3530063 	cmp	r3, #99	; 0x63
20032800:	0a000051 	beq	2003294c <syslog+0x228>
20032804:	e3530063 	cmp	r3, #99	; 0x63
20032808:	ca000004 	bgt	20032820 <syslog+0xfc>
2003280c:	e3530000 	cmp	r3, #0
20032810:	0a00006e 	beq	200329d0 <syslog+0x2ac>
20032814:	e3530058 	cmp	r3, #88	; 0x58
20032818:	0a000022 	beq	200328a8 <syslog+0x184>
2003281c:	ea000070 	b	200329e4 <syslog+0x2c0>
20032820:	e3530064 	cmp	r3, #100	; 0x64
20032824:	0a000007 	beq	20032848 <syslog+0x124>
20032828:	ea00006d 	b	200329e4 <syslog+0x2c0>
2003282c:	e3530075 	cmp	r3, #117	; 0x75
20032830:	0a00001c 	beq	200328a8 <syslog+0x184>
20032834:	e3530078 	cmp	r3, #120	; 0x78
20032838:	0a00001a 	beq	200328a8 <syslog+0x184>
2003283c:	e3530073 	cmp	r3, #115	; 0x73
20032840:	0a000051 	beq	2003298c <syslog+0x268>
20032844:	ea000066 	b	200329e4 <syslog+0x2c0>
20032848:	e51b3014 	ldr	r3, [fp, #-20]	; 0xffffffec
2003284c:	e3530000 	cmp	r3, #0
20032850:	0a000004 	beq	20032868 <syslog+0x144>
20032854:	e51b3048 	ldr	r3, [fp, #-72]	; 0xffffffb8
20032858:	e2832004 	add	r2, r3, #4
2003285c:	e50b2048 	str	r2, [fp, #-72]	; 0xffffffb8
20032860:	e5933000 	ldr	r3, [r3]
20032864:	ea000003 	b	20032878 <syslog+0x154>
20032868:	e51b3048 	ldr	r3, [fp, #-72]	; 0xffffffb8
2003286c:	e2832004 	add	r2, r3, #4
20032870:	e50b2048 	str	r2, [fp, #-72]	; 0xffffffb8
20032874:	e5933000 	ldr	r3, [r3]
20032878:	e51b200c 	ldr	r2, [fp, #-12]
2003287c:	e2821002 	add	r1, r2, #2
20032880:	e3e0203b 	mvn	r2, #59	; 0x3b
20032884:	e1a01101 	lsl	r1, r1, #2
20032888:	e24b0008 	sub	r0, fp, #8
2003288c:	e0801001 	add	r1, r0, r1
20032890:	e0812002 	add	r2, r1, r2
20032894:	e5823000 	str	r3, [r2]
20032898:	e51b300c 	ldr	r3, [fp, #-12]
2003289c:	e2833001 	add	r3, r3, #1
200328a0:	e50b300c 	str	r3, [fp, #-12]
200328a4:	ea00004e 	b	200329e4 <syslog+0x2c0>
200328a8:	e51b3014 	ldr	r3, [fp, #-20]	; 0xffffffec
200328ac:	e3530000 	cmp	r3, #0
200328b0:	0a000004 	beq	200328c8 <syslog+0x1a4>
200328b4:	e51b3048 	ldr	r3, [fp, #-72]	; 0xffffffb8
200328b8:	e2832004 	add	r2, r3, #4
200328bc:	e50b2048 	str	r2, [fp, #-72]	; 0xffffffb8
200328c0:	e5933000 	ldr	r3, [r3]
200328c4:	ea000003 	b	200328d8 <syslog+0x1b4>
200328c8:	e51b3048 	ldr	r3, [fp, #-72]	; 0xffffffb8
200328cc:	e2832004 	add	r2, r3, #4
200328d0:	e50b2048 	str	r2, [fp, #-72]	; 0xffffffb8
200328d4:	e5933000 	ldr	r3, [r3]
200328d8:	e51b200c 	ldr	r2, [fp, #-12]
200328dc:	e2821002 	add	r1, r2, #2
200328e0:	e3e0203b 	mvn	r2, #59	; 0x3b
200328e4:	e1a01101 	lsl	r1, r1, #2
200328e8:	e24b0008 	sub	r0, fp, #8
200328ec:	e0801001 	add	r1, r0, r1
200328f0:	e0812002 	add	r2, r1, r2
200328f4:	e5823000 	str	r3, [r2]
200328f8:	e51b300c 	ldr	r3, [fp, #-12]
200328fc:	e2833001 	add	r3, r3, #1
20032900:	e50b300c 	str	r3, [fp, #-12]
20032904:	ea000036 	b	200329e4 <syslog+0x2c0>
20032908:	e51b3048 	ldr	r3, [fp, #-72]	; 0xffffffb8
2003290c:	e2832004 	add	r2, r3, #4
20032910:	e50b2048 	str	r2, [fp, #-72]	; 0xffffffb8
20032914:	e5933000 	ldr	r3, [r3]
20032918:	e1a02003 	mov	r2, r3
2003291c:	e51b300c 	ldr	r3, [fp, #-12]
20032920:	e2831002 	add	r1, r3, #2
20032924:	e3e0303b 	mvn	r3, #59	; 0x3b
20032928:	e1a01101 	lsl	r1, r1, #2
2003292c:	e24b0008 	sub	r0, fp, #8
20032930:	e0801001 	add	r1, r0, r1
20032934:	e0813003 	add	r3, r1, r3
20032938:	e5832000 	str	r2, [r3]
2003293c:	e51b300c 	ldr	r3, [fp, #-12]
20032940:	e2833001 	add	r3, r3, #1
20032944:	e50b300c 	str	r3, [fp, #-12]
20032948:	ea000025 	b	200329e4 <syslog+0x2c0>
2003294c:	e51b3048 	ldr	r3, [fp, #-72]	; 0xffffffb8
20032950:	e2832004 	add	r2, r3, #4
20032954:	e50b2048 	str	r2, [fp, #-72]	; 0xffffffb8
20032958:	e5932000 	ldr	r2, [r3]
2003295c:	e51b300c 	ldr	r3, [fp, #-12]
20032960:	e2831002 	add	r1, r3, #2
20032964:	e3e0303b 	mvn	r3, #59	; 0x3b
20032968:	e1a01101 	lsl	r1, r1, #2
2003296c:	e24b0008 	sub	r0, fp, #8
20032970:	e0801001 	add	r1, r0, r1
20032974:	e0813003 	add	r3, r1, r3
20032978:	e5832000 	str	r2, [r3]
2003297c:	e51b300c 	ldr	r3, [fp, #-12]
20032980:	e2833001 	add	r3, r3, #1
20032984:	e50b300c 	str	r3, [fp, #-12]
20032988:	ea000015 	b	200329e4 <syslog+0x2c0>
2003298c:	e51b3048 	ldr	r3, [fp, #-72]	; 0xffffffb8
20032990:	e2832004 	add	r2, r3, #4
20032994:	e50b2048 	str	r2, [fp, #-72]	; 0xffffffb8
20032998:	e5933000 	ldr	r3, [r3]
2003299c:	e1a02003 	mov	r2, r3
200329a0:	e51b300c 	ldr	r3, [fp, #-12]
200329a4:	e2831002 	add	r1, r3, #2
200329a8:	e3e0303b 	mvn	r3, #59	; 0x3b
200329ac:	e1a01101 	lsl	r1, r1, #2
200329b0:	e24b0008 	sub	r0, fp, #8
200329b4:	e0801001 	add	r1, r0, r1
200329b8:	e0813003 	add	r3, r1, r3
200329bc:	e5832000 	str	r2, [r3]
200329c0:	e51b300c 	ldr	r3, [fp, #-12]
200329c4:	e2833001 	add	r3, r3, #1
200329c8:	e50b300c 	str	r3, [fp, #-12]
200329cc:	ea000004 	b	200329e4 <syslog+0x2c0>
200329d0:	e59b3004 	ldr	r3, [fp, #4]
200329d4:	e2433001 	sub	r3, r3, #1
200329d8:	e58b3004 	str	r3, [fp, #4]
200329dc:	ea000000 	b	200329e4 <syslog+0x2c0>
200329e0:	e1a00000 	nop			; (mov r0, r0)
200329e4:	e59b3004 	ldr	r3, [fp, #4]
200329e8:	e5d33000 	ldrb	r3, [r3]
200329ec:	e54b300d 	strb	r3, [fp, #-13]
200329f0:	e55b300d 	ldrb	r3, [fp, #-13]
200329f4:	e3530000 	cmp	r3, #0
200329f8:	03a03000 	moveq	r3, #0
200329fc:	13a03001 	movne	r3, #1
20032a00:	e6ef3073 	uxtb	r3, r3
20032a04:	e59b2004 	ldr	r2, [fp, #4]
20032a08:	e2822001 	add	r2, r2, #1
20032a0c:	e58b2004 	str	r2, [fp, #4]
20032a10:	e3530000 	cmp	r3, #0
20032a14:	0a000002 	beq	20032a24 <syslog+0x300>
20032a18:	e51b300c 	ldr	r3, [fp, #-12]
20032a1c:	e3530009 	cmp	r3, #9
20032a20:	9affff4d 	bls	2003275c <syslog+0x38>
20032a24:	e24b3044 	sub	r3, fp, #68	; 0x44
20032a28:	e51b004c 	ldr	r0, [fp, #-76]	; 0xffffffb4
20032a2c:	e1a01003 	mov	r1, r3
20032a30:	ebfff6f3 	bl	20030604 <syslog_wri_log>
20032a34:	e24bd004 	sub	sp, fp, #4
20032a38:	e8bd4800 	pop	{fp, lr}
20032a3c:	e28dd00c 	add	sp, sp, #12
20032a40:	e12fff1e 	bx	lr

20032a44 <_syslog_6>:
20032a44:	e92d4800 	push	{fp, lr}
20032a48:	e28db004 	add	fp, sp, #4
20032a4c:	e24dd040 	sub	sp, sp, #64	; 0x40
20032a50:	e50b0038 	str	r0, [fp, #-56]	; 0xffffffc8
20032a54:	e50b103c 	str	r1, [fp, #-60]	; 0xffffffc4
20032a58:	e50b2040 	str	r2, [fp, #-64]	; 0xffffffc0
20032a5c:	e50b3044 	str	r3, [fp, #-68]	; 0xffffffbc
20032a60:	e51b303c 	ldr	r3, [fp, #-60]	; 0xffffffc4
20032a64:	e50b3034 	str	r3, [fp, #-52]	; 0xffffffcc
20032a68:	e51b3040 	ldr	r3, [fp, #-64]	; 0xffffffc0
20032a6c:	e50b302c 	str	r3, [fp, #-44]	; 0xffffffd4
20032a70:	e51b3044 	ldr	r3, [fp, #-68]	; 0xffffffbc
20032a74:	e50b3028 	str	r3, [fp, #-40]	; 0xffffffd8
20032a78:	e59b3004 	ldr	r3, [fp, #4]
20032a7c:	e50b3024 	str	r3, [fp, #-36]	; 0xffffffdc
20032a80:	e59b3008 	ldr	r3, [fp, #8]
20032a84:	e50b3020 	str	r3, [fp, #-32]	; 0xffffffe0
20032a88:	e59b300c 	ldr	r3, [fp, #12]
20032a8c:	e50b301c 	str	r3, [fp, #-28]	; 0xffffffe4
20032a90:	e59b3010 	ldr	r3, [fp, #16]
20032a94:	e50b3018 	str	r3, [fp, #-24]	; 0xffffffe8
20032a98:	e24b3034 	sub	r3, fp, #52	; 0x34
20032a9c:	e51b0038 	ldr	r0, [fp, #-56]	; 0xffffffc8
20032aa0:	e1a01003 	mov	r1, r3
20032aa4:	ebfff6d6 	bl	20030604 <syslog_wri_log>
20032aa8:	e24bd004 	sub	sp, fp, #4
20032aac:	e8bd8800 	pop	{fp, pc}

20032ab0 <t_perror>:
20032ab0:	e92d4810 	push	{r4, fp, lr}
20032ab4:	e28db008 	add	fp, sp, #8
20032ab8:	e24dd024 	sub	sp, sp, #36	; 0x24
20032abc:	e50b0010 	str	r0, [fp, #-16]
20032ac0:	e50b1014 	str	r1, [fp, #-20]	; 0xffffffec
20032ac4:	e50b2018 	str	r2, [fp, #-24]	; 0xffffffe8
20032ac8:	e50b301c 	str	r3, [fp, #-28]	; 0xffffffe4
20032acc:	e30a4cf8 	movw	r4, #44280	; 0xacf8
20032ad0:	e3424003 	movt	r4, #8195	; 0x2003
20032ad4:	e59b0004 	ldr	r0, [fp, #4]
20032ad8:	eb00000f 	bl	20032b1c <itron_strerror>
20032adc:	e1a03000 	mov	r3, r0
20032ae0:	e59b2004 	ldr	r2, [fp, #4]
20032ae4:	e1a00442 	asr	r0, r2, #8
20032ae8:	e51b101c 	ldr	r1, [fp, #-28]	; 0xffffffe4
20032aec:	e51b2014 	ldr	r2, [fp, #-20]	; 0xffffffec
20032af0:	e58d0000 	str	r0, [sp]
20032af4:	e58d1004 	str	r1, [sp, #4]
20032af8:	e51b1018 	ldr	r1, [fp, #-24]	; 0xffffffe8
20032afc:	e58d1008 	str	r1, [sp, #8]
20032b00:	e58d200c 	str	r2, [sp, #12]
20032b04:	e51b0010 	ldr	r0, [fp, #-16]
20032b08:	e3a01001 	mov	r1, #1
20032b0c:	e1a02004 	mov	r2, r4
20032b10:	ebffffcb 	bl	20032a44 <_syslog_6>
20032b14:	e24bd008 	sub	sp, fp, #8
20032b18:	e8bd8810 	pop	{r4, fp, pc}

20032b1c <itron_strerror>:
20032b1c:	e52db004 	push	{fp}		; (str fp, [sp, #-4]!)
20032b20:	e28db000 	add	fp, sp, #0
20032b24:	e24dd00c 	sub	sp, sp, #12
20032b28:	e50b0008 	str	r0, [fp, #-8]
20032b2c:	e51b3008 	ldr	r3, [fp, #-8]
20032b30:	e6ef3073 	uxtb	r3, r3
20032b34:	e6af3073 	sxtb	r3, r3
20032b38:	e283303a 	add	r3, r3, #58	; 0x3a
20032b3c:	e353003a 	cmp	r3, #58	; 0x3a
20032b40:	979ff103 	ldrls	pc, [pc, r3, lsl #2]
20032b44:	ea00007f 	b	20032d48 <itron_strerror+0x22c>
20032b48:	20032d3c 	.word	0x20032d3c
20032b4c:	20032d30 	.word	0x20032d30
20032b50:	20032d48 	.word	0x20032d48
20032b54:	20032d48 	.word	0x20032d48
20032b58:	20032d48 	.word	0x20032d48
20032b5c:	20032d48 	.word	0x20032d48
20032b60:	20032d24 	.word	0x20032d24
20032b64:	20032d18 	.word	0x20032d18
20032b68:	20032d0c 	.word	0x20032d0c
20032b6c:	20032d00 	.word	0x20032d00
20032b70:	20032d48 	.word	0x20032d48
20032b74:	20032d48 	.word	0x20032d48
20032b78:	20032d48 	.word	0x20032d48
20032b7c:	20032d48 	.word	0x20032d48
20032b80:	20032d48 	.word	0x20032d48
20032b84:	20032cf4 	.word	0x20032cf4
20032b88:	20032ce8 	.word	0x20032ce8
20032b8c:	20032cdc 	.word	0x20032cdc
20032b90:	20032d48 	.word	0x20032d48
20032b94:	20032d48 	.word	0x20032d48
20032b98:	20032d48 	.word	0x20032d48
20032b9c:	20032d48 	.word	0x20032d48
20032ba0:	20032d48 	.word	0x20032d48
20032ba4:	20032cd0 	.word	0x20032cd0
20032ba8:	20032cc4 	.word	0x20032cc4
20032bac:	20032cb8 	.word	0x20032cb8
20032bb0:	20032d48 	.word	0x20032d48
20032bb4:	20032d48 	.word	0x20032d48
20032bb8:	20032d48 	.word	0x20032d48
20032bbc:	20032d48 	.word	0x20032d48
20032bc0:	20032cac 	.word	0x20032cac
20032bc4:	20032ca0 	.word	0x20032ca0
20032bc8:	20032c94 	.word	0x20032c94
20032bcc:	20032c88 	.word	0x20032c88
20032bd0:	20032d48 	.word	0x20032d48
20032bd4:	20032d48 	.word	0x20032d48
20032bd8:	20032d48 	.word	0x20032d48
20032bdc:	20032d48 	.word	0x20032d48
20032be0:	20032d48 	.word	0x20032d48
20032be4:	20032d48 	.word	0x20032d48
20032be8:	20032c7c 	.word	0x20032c7c
20032bec:	20032c70 	.word	0x20032c70
20032bf0:	20032d48 	.word	0x20032d48
20032bf4:	20032d48 	.word	0x20032d48
20032bf8:	20032d48 	.word	0x20032d48
20032bfc:	20032d48 	.word	0x20032d48
20032c00:	20032d48 	.word	0x20032d48
20032c04:	20032c64 	.word	0x20032c64
20032c08:	20032c58 	.word	0x20032c58
20032c0c:	20032c4c 	.word	0x20032c4c
20032c10:	20032d48 	.word	0x20032d48
20032c14:	20032d48 	.word	0x20032d48
20032c18:	20032d48 	.word	0x20032d48
20032c1c:	20032c40 	.word	0x20032c40
20032c20:	20032d48 	.word	0x20032d48
20032c24:	20032d48 	.word	0x20032d48
20032c28:	20032d48 	.word	0x20032d48
20032c2c:	20032d48 	.word	0x20032d48
20032c30:	20032c34 	.word	0x20032c34
20032c34:	e30a3d28 	movw	r3, #44328	; 0xad28
20032c38:	e3423003 	movt	r3, #8195	; 0x2003
20032c3c:	ea000043 	b	20032d50 <itron_strerror+0x234>
20032c40:	e30a3d30 	movw	r3, #44336	; 0xad30
20032c44:	e3423003 	movt	r3, #8195	; 0x2003
20032c48:	ea000040 	b	20032d50 <itron_strerror+0x234>
20032c4c:	e30a3d38 	movw	r3, #44344	; 0xad38
20032c50:	e3423003 	movt	r3, #8195	; 0x2003
20032c54:	ea00003d 	b	20032d50 <itron_strerror+0x234>
20032c58:	e30a3d40 	movw	r3, #44352	; 0xad40
20032c5c:	e3423003 	movt	r3, #8195	; 0x2003
20032c60:	ea00003a 	b	20032d50 <itron_strerror+0x234>
20032c64:	e30a3d48 	movw	r3, #44360	; 0xad48
20032c68:	e3423003 	movt	r3, #8195	; 0x2003
20032c6c:	ea000037 	b	20032d50 <itron_strerror+0x234>
20032c70:	e30a3d50 	movw	r3, #44368	; 0xad50
20032c74:	e3423003 	movt	r3, #8195	; 0x2003
20032c78:	ea000034 	b	20032d50 <itron_strerror+0x234>
20032c7c:	e30a3d58 	movw	r3, #44376	; 0xad58
20032c80:	e3423003 	movt	r3, #8195	; 0x2003
20032c84:	ea000031 	b	20032d50 <itron_strerror+0x234>
20032c88:	e30a3d60 	movw	r3, #44384	; 0xad60
20032c8c:	e3423003 	movt	r3, #8195	; 0x2003
20032c90:	ea00002e 	b	20032d50 <itron_strerror+0x234>
20032c94:	e30a3d68 	movw	r3, #44392	; 0xad68
20032c98:	e3423003 	movt	r3, #8195	; 0x2003
20032c9c:	ea00002b 	b	20032d50 <itron_strerror+0x234>
20032ca0:	e30a3d70 	movw	r3, #44400	; 0xad70
20032ca4:	e3423003 	movt	r3, #8195	; 0x2003
20032ca8:	ea000028 	b	20032d50 <itron_strerror+0x234>
20032cac:	e30a3d78 	movw	r3, #44408	; 0xad78
20032cb0:	e3423003 	movt	r3, #8195	; 0x2003
20032cb4:	ea000025 	b	20032d50 <itron_strerror+0x234>
20032cb8:	e30a3d80 	movw	r3, #44416	; 0xad80
20032cbc:	e3423003 	movt	r3, #8195	; 0x2003
20032cc0:	ea000022 	b	20032d50 <itron_strerror+0x234>
20032cc4:	e30a3d88 	movw	r3, #44424	; 0xad88
20032cc8:	e3423003 	movt	r3, #8195	; 0x2003
20032ccc:	ea00001f 	b	20032d50 <itron_strerror+0x234>
20032cd0:	e30a3d90 	movw	r3, #44432	; 0xad90
20032cd4:	e3423003 	movt	r3, #8195	; 0x2003
20032cd8:	ea00001c 	b	20032d50 <itron_strerror+0x234>
20032cdc:	e30a3d98 	movw	r3, #44440	; 0xad98
20032ce0:	e3423003 	movt	r3, #8195	; 0x2003
20032ce4:	ea000019 	b	20032d50 <itron_strerror+0x234>
20032ce8:	e30a3da0 	movw	r3, #44448	; 0xada0
20032cec:	e3423003 	movt	r3, #8195	; 0x2003
20032cf0:	ea000016 	b	20032d50 <itron_strerror+0x234>
20032cf4:	e30a3da8 	movw	r3, #44456	; 0xada8
20032cf8:	e3423003 	movt	r3, #8195	; 0x2003
20032cfc:	ea000013 	b	20032d50 <itron_strerror+0x234>
20032d00:	e30a3db0 	movw	r3, #44464	; 0xadb0
20032d04:	e3423003 	movt	r3, #8195	; 0x2003
20032d08:	ea000010 	b	20032d50 <itron_strerror+0x234>
20032d0c:	e30a3db8 	movw	r3, #44472	; 0xadb8
20032d10:	e3423003 	movt	r3, #8195	; 0x2003
20032d14:	ea00000d 	b	20032d50 <itron_strerror+0x234>
20032d18:	e30a3dc0 	movw	r3, #44480	; 0xadc0
20032d1c:	e3423003 	movt	r3, #8195	; 0x2003
20032d20:	ea00000a 	b	20032d50 <itron_strerror+0x234>
20032d24:	e30a3dc8 	movw	r3, #44488	; 0xadc8
20032d28:	e3423003 	movt	r3, #8195	; 0x2003
20032d2c:	ea000007 	b	20032d50 <itron_strerror+0x234>
20032d30:	e30a3dd0 	movw	r3, #44496	; 0xadd0
20032d34:	e3423003 	movt	r3, #8195	; 0x2003
20032d38:	ea000004 	b	20032d50 <itron_strerror+0x234>
20032d3c:	e30a3dd8 	movw	r3, #44504	; 0xadd8
20032d40:	e3423003 	movt	r3, #8195	; 0x2003
20032d44:	ea000001 	b	20032d50 <itron_strerror+0x234>
20032d48:	e30a3de0 	movw	r3, #44512	; 0xade0
20032d4c:	e3423003 	movt	r3, #8195	; 0x2003
20032d50:	e1a00003 	mov	r0, r3
20032d54:	e28bd000 	add	sp, fp, #0
20032d58:	e49db004 	pop	{fp}		; (ldr fp, [sp], #4)
20032d5c:	e12fff1e 	bx	lr

20032d60 <i_begin_int>:
20032d60:	e52db004 	push	{fp}		; (str fp, [sp, #-4]!)
20032d64:	e28db000 	add	fp, sp, #0
20032d68:	e24dd00c 	sub	sp, sp, #12
20032d6c:	e50b0008 	str	r0, [fp, #-8]
20032d70:	e28bd000 	add	sp, fp, #0
20032d74:	e49db004 	pop	{fp}		; (ldr fp, [sp], #4)
20032d78:	e12fff1e 	bx	lr

20032d7c <i_end_int>:
20032d7c:	e52db004 	push	{fp}		; (str fp, [sp, #-4]!)
20032d80:	e28db000 	add	fp, sp, #0
20032d84:	e24dd00c 	sub	sp, sp, #12
20032d88:	e50b0008 	str	r0, [fp, #-8]
20032d8c:	e28bd000 	add	sp, fp, #0
20032d90:	e49db004 	pop	{fp}		; (ldr fp, [sp], #4)
20032d94:	e12fff1e 	bx	lr

20032d98 <_kernel_initialize_exception>:
20032d98:	e52db004 	push	{fp}		; (str fp, [sp, #-4]!)
20032d9c:	e28db000 	add	fp, sp, #0
20032da0:	e28bd000 	add	sp, fp, #0
20032da4:	e49db004 	pop	{fp}		; (ldr fp, [sp], #4)
20032da8:	e12fff1e 	bx	lr

20032dac <_kernel_inthdr_19>:
20032dac:	e92d4800 	push	{fp, lr}
20032db0:	e28db004 	add	fp, sp, #4
20032db4:	e3a00013 	mov	r0, #19
20032db8:	ebffffe8 	bl	20032d60 <i_begin_int>
20032dbc:	e3a00001 	mov	r0, #1
20032dc0:	eb0003c3 	bl	20033cd4 <sio_isr>
20032dc4:	e3a00013 	mov	r0, #19
20032dc8:	ebffffeb 	bl	20032d7c <i_end_int>
20032dcc:	e8bd8800 	pop	{fp, pc}

20032dd0 <_kernel_inthdr_20>:
20032dd0:	e92d4800 	push	{fp, lr}
20032dd4:	e28db004 	add	fp, sp, #4
20032dd8:	e3a00014 	mov	r0, #20
20032ddc:	ebffffdf 	bl	20032d60 <i_begin_int>
20032de0:	e3a00002 	mov	r0, #2
20032de4:	eb0003ba 	bl	20033cd4 <sio_isr>
20032de8:	e3a00014 	mov	r0, #20
20032dec:	ebffffe2 	bl	20032d7c <i_end_int>
20032df0:	e8bd8800 	pop	{fp, pc}

20032df4 <_kernel_initialize_object>:
20032df4:	e92d4800 	push	{fp, lr}
20032df8:	e28db004 	add	fp, sp, #4
20032dfc:	eb00086b 	bl	20034fb0 <_kernel_initialize_task>
20032e00:	eb001492 	bl	20038050 <_kernel_initialize_semaphore>
20032e04:	eb001778 	bl	20038bec <_kernel_initialize_cyclic>
20032e08:	eb001b75 	bl	20039be4 <_kernel_initialize_interrupt>
20032e0c:	ebffffe1 	bl	20032d98 <_kernel_initialize_exception>
20032e10:	e8bd8800 	pop	{fp, pc}

20032e14 <_kernel_call_inirtn>:
20032e14:	e92d4800 	push	{fp, lr}
20032e18:	e28db004 	add	fp, sp, #4
20032e1c:	e3a00000 	mov	r0, #0
20032e20:	eb000326 	bl	20033ac0 <target_timer_initialize>
20032e24:	e3a00000 	mov	r0, #0
20032e28:	ebfff5d4 	bl	20030580 <syslog_initialize>
20032e2c:	e3a00000 	mov	r0, #0
20032e30:	ebfff59c 	bl	200304a8 <print_banner>
20032e34:	e3a00000 	mov	r0, #0
20032e38:	eb00036a 	bl	20033be8 <sio_initialize>
20032e3c:	e3a00000 	mov	r0, #0
20032e40:	ebfff6f3 	bl	20030a14 <serial_initialize>
20032e44:	e8bd8800 	pop	{fp, pc}

20032e48 <_kernel_call_terrtn>:
20032e48:	e92d4800 	push	{fp, lr}
20032e4c:	e28db004 	add	fp, sp, #4
20032e50:	e3a00000 	mov	r0, #0
20032e54:	ebfffc5f 	bl	20031fd8 <logtask_terminate>
20032e58:	e3a00000 	mov	r0, #0
20032e5c:	eb000336 	bl	20033b3c <target_timer_terminate>
20032e60:	e8bd8800 	pop	{fp, pc}

20032e64 <hardware_init_hook>:
20032e64:	e1a0f00e 	mov	pc, lr

20032e68 <_kernel_fiq_handler>:
20032e68:	e329f0d3 	msr	CPSR_fc, #211	; 0xd3
20032e6c:	e92d0003 	push	{r0, r1}
20032e70:	e329f0d1 	msr	CPSR_fc, #209	; 0xd1
20032e74:	e1a0000e 	mov	r0, lr
20032e78:	e14f1000 	mrs	r1, SPSR
20032e7c:	e329f0d2 	msr	CPSR_fc, #210	; 0xd2
20032e80:	e1a0e000 	mov	lr, r0
20032e84:	e16ff001 	msr	SPSR_fsxc, r1
20032e88:	e329f0d3 	msr	CPSR_fc, #211	; 0xd3
20032e8c:	e8bd0003 	pop	{r0, r1}

20032e90 <irq_handler>:
20032e90:	e329f0d3 	msr	CPSR_fc, #211	; 0xd3
20032e94:	e92dd00f 	push	{r0, r1, r2, r3, ip, lr, pc}
20032e98:	e329f0d2 	msr	CPSR_fc, #210	; 0xd2
20032e9c:	e24e0004 	sub	r0, lr, #4
20032ea0:	e14f1000 	mrs	r1, SPSR
20032ea4:	e329f0d3 	msr	CPSR_fc, #211	; 0xd3
20032ea8:	e58d0018 	str	r0, [sp, #24]
20032eac:	e52d1004 	push	{r1}		; (str r1, [sp, #-4]!)
20032eb0:	e1a0e00d 	mov	lr, sp
20032eb4:	e59f2194 	ldr	r2, [pc, #404]	; 20033050 <target_exc_int+0x64>
20032eb8:	e5923000 	ldr	r3, [r2]
20032ebc:	e2830001 	add	r0, r3, #1
20032ec0:	e5820000 	str	r0, [r2]
20032ec4:	e3530000 	cmp	r3, #0
20032ec8:	1a000001 	bne	20032ed4 <irq_handler_1>
20032ecc:	e59f0180 	ldr	r0, [pc, #384]	; 20033054 <target_exc_int+0x68>
20032ed0:	e590d000 	ldr	sp, [r0]

20032ed4 <irq_handler_1>:
20032ed4:	e52de004 	push	{lr}		; (str lr, [sp, #-4]!)
20032ed8:	e59f1178 	ldr	r1, [pc, #376]	; 20033058 <target_exc_int+0x6c>
20032edc:	e5912000 	ldr	r2, [r1]
20032ee0:	e3520000 	cmp	r2, #0
20032ee4:	03a02002 	moveq	r2, #2
20032ee8:	e3a0001f 	mov	r0, #31
20032eec:	e16f3f12 	clz	r3, r2
20032ef0:	e0403003 	sub	r3, r0, r3
20032ef4:	e59f0160 	ldr	r0, [pc, #352]	; 2003305c <target_exc_int+0x70>
20032ef8:	e7901103 	ldr	r1, [r0, r3, lsl #2]
20032efc:	e59f015c 	ldr	r0, [pc, #348]	; 20033060 <target_exc_int+0x74>
20032f00:	e5902000 	ldr	r2, [r0]
20032f04:	e52d2004 	push	{r2}		; (str r2, [sp, #-4]!)
20032f08:	e5801000 	str	r1, [r0]
20032f0c:	e59f0150 	ldr	r0, [pc, #336]	; 20033064 <target_exc_int+0x78>
20032f10:	e2611000 	rsb	r1, r1, #0
20032f14:	e7902101 	ldr	r2, [r0, r1, lsl #2]
20032f18:	e59f0148 	ldr	r0, [pc, #328]	; 20033068 <target_exc_int+0x7c>
20032f1c:	e5901000 	ldr	r1, [r0]
20032f20:	e59f0144 	ldr	r0, [pc, #324]	; 2003306c <target_exc_int+0x80>
20032f24:	e59fe144 	ldr	lr, [pc, #324]	; 20033070 <target_exc_int+0x84>
20032f28:	e580e000 	str	lr, [r0]
20032f2c:	e59f0140 	ldr	r0, [pc, #320]	; 20033074 <target_exc_int+0x88>
20032f30:	e3e0e000 	mvn	lr, #0
20032f34:	e580e000 	str	lr, [r0]
20032f38:	e59f0138 	ldr	r0, [pc, #312]	; 20033078 <target_exc_int+0x8c>
20032f3c:	e1811002 	orr	r1, r1, r2
20032f40:	e1e01001 	mvn	r1, r1
20032f44:	e5801000 	str	r1, [r0]
20032f48:	e59f011c 	ldr	r0, [pc, #284]	; 2003306c <target_exc_int+0x80>
20032f4c:	e3a0e000 	mov	lr, #0
20032f50:	e580e000 	str	lr, [r0]
20032f54:	e59f0120 	ldr	r0, [pc, #288]	; 2003307c <target_exc_int+0x90>
20032f58:	e7900103 	ldr	r0, [r0, r3, lsl #2]
20032f5c:	e329f093 	msr	CPSR_fc, #147	; 0x93
20032f60:	e1a0e00f 	mov	lr, pc
20032f64:	e1a0f000 	mov	pc, r0
20032f68:	ea00001f 	b	20032fec <target_exc_int>

20032f6c <target_exc_handler>:
20032f6c:	e329f0d3 	msr	CPSR_fc, #211	; 0xd3
20032f70:	e58d0018 	str	r0, [sp, #24]
20032f74:	e52d1004 	push	{r1}		; (str r1, [sp, #-4]!)
20032f78:	e1a0e00d 	mov	lr, sp
20032f7c:	e59f00dc 	ldr	r0, [pc, #220]	; 20033060 <target_exc_int+0x74>
20032f80:	e5901000 	ldr	r1, [r0]
20032f84:	e52d1004 	push	{r1}		; (str r1, [sp, #-4]!)
20032f88:	e59f00c0 	ldr	r0, [pc, #192]	; 20033050 <target_exc_int+0x64>
20032f8c:	e5901000 	ldr	r1, [r0]
20032f90:	e52d1004 	push	{r1}		; (str r1, [sp, #-4]!)
20032f94:	e1a0300d 	mov	r3, sp
20032f98:	e59f00b0 	ldr	r0, [pc, #176]	; 20033050 <target_exc_int+0x64>
20032f9c:	e5901000 	ldr	r1, [r0]
20032fa0:	e2811001 	add	r1, r1, #1
20032fa4:	e5801000 	str	r1, [r0]
20032fa8:	e3510001 	cmp	r1, #1
20032fac:	1a000001 	bne	20032fb8 <target_exc_handler_1>
20032fb0:	e59f009c 	ldr	r0, [pc, #156]	; 20033054 <target_exc_int+0x68>
20032fb4:	e590d000 	ldr	sp, [r0]

20032fb8 <target_exc_handler_1>:
20032fb8:	e52de004 	push	{lr}		; (str lr, [sp, #-4]!)
20032fbc:	e59f009c 	ldr	r0, [pc, #156]	; 20033060 <target_exc_int+0x74>
20032fc0:	e5901000 	ldr	r1, [r0]
20032fc4:	e52d1004 	push	{r1}		; (str r1, [sp, #-4]!)
20032fc8:	e59f00b0 	ldr	r0, [pc, #176]	; 20033080 <target_exc_int+0x94>
20032fcc:	e7901102 	ldr	r1, [r0, r2, lsl #2]
20032fd0:	e59e0000 	ldr	r0, [lr]
20032fd4:	e20000c0 	and	r0, r0, #192	; 0xc0
20032fd8:	e3800093 	orr	r0, r0, #147	; 0x93
20032fdc:	e129f000 	msr	CPSR_fc, r0
20032fe0:	e1a00003 	mov	r0, r3
20032fe4:	e59fe098 	ldr	lr, [pc, #152]	; 20033084 <target_exc_int+0x98>
20032fe8:	e1a0f001 	mov	pc, r1

20032fec <target_exc_int>:
20032fec:	e329f0d3 	msr	CPSR_fc, #211	; 0xd3
20032ff0:	e49d1004 	pop	{r1}		; (ldr r1, [sp], #4)
20032ff4:	e59f0064 	ldr	r0, [pc, #100]	; 20033060 <target_exc_int+0x74>
20032ff8:	e5801000 	str	r1, [r0]
20032ffc:	e59f0060 	ldr	r0, [pc, #96]	; 20033064 <target_exc_int+0x78>
20033000:	e2611000 	rsb	r1, r1, #0
20033004:	e7902101 	ldr	r2, [r0, r1, lsl #2]
20033008:	e59f0058 	ldr	r0, [pc, #88]	; 20033068 <target_exc_int+0x7c>
2003300c:	e5901000 	ldr	r1, [r0]
20033010:	e59f0054 	ldr	r0, [pc, #84]	; 2003306c <target_exc_int+0x80>
20033014:	e59fe054 	ldr	lr, [pc, #84]	; 20033070 <target_exc_int+0x84>
20033018:	e580e000 	str	lr, [r0]
2003301c:	e59f0050 	ldr	r0, [pc, #80]	; 20033074 <target_exc_int+0x88>
20033020:	e3e0e000 	mvn	lr, #0
20033024:	e580e000 	str	lr, [r0]
20033028:	e59f0048 	ldr	r0, [pc, #72]	; 20033078 <target_exc_int+0x8c>
2003302c:	e1811002 	orr	r1, r1, r2
20033030:	e1e01001 	mvn	r1, r1
20033034:	e5801000 	str	r1, [r0]
20033038:	e59f002c 	ldr	r0, [pc, #44]	; 2003306c <target_exc_int+0x80>
2003303c:	e3a0e000 	mov	lr, #0
20033040:	e580e000 	str	lr, [r0]
20033044:	e49d2004 	pop	{r2}		; (ldr r2, [sp], #4)
20033048:	e1a0d002 	mov	sp, r2
2003304c:	ea000046 	b	2003316c <_kernel_ret_exc>
20033050:	20054000 	.word	0x20054000
20033054:	2003af48 	.word	0x2003af48
20033058:	1011f000 	.word	0x1011f000
2003305c:	2003af6c 	.word	0x2003af6c
20033060:	20041fa8 	.word	0x20041fa8
20033064:	2003afec 	.word	0x2003afec
20033068:	20041fac 	.word	0x20041fac
2003306c:	1011f01c 	.word	0x1011f01c
20033070:	0acce550 	.word	0x0acce550
20033074:	1011f010 	.word	0x1011f010
20033078:	1011f00c 	.word	0x1011f00c
2003307c:	2003b06c 	.word	0x2003b06c
20033080:	2003af4c 	.word	0x2003af4c
20033084:	20032fec 	.word	0x20032fec

20033088 <_kernel_dispatch>:
20033088:	e92d4ff0 	push	{r4, r5, r6, r7, r8, r9, sl, fp, lr}
2003308c:	e59f0224 	ldr	r0, [pc, #548]	; 200332b8 <_sil_dly_nse1+0x10>
20033090:	e5901000 	ldr	r1, [r0]
20033094:	e581d01c 	str	sp, [r1, #28]
20033098:	e28f2004 	add	r2, pc, #4
2003309c:	e5812020 	str	r2, [r1, #32]
200330a0:	ea00000c 	b	200330d8 <_kernel_exit_and_dispatch>

200330a4 <dispatch_r>:
200330a4:	e8bd4ff0 	pop	{r4, r5, r6, r7, r8, r9, sl, fp, lr}
200330a8:	e5d1000e 	ldrb	r0, [r1, #14]
200330ac:	e3100004 	tst	r0, #4
200330b0:	0a000002 	beq	200330c0 <dispatch_r_1>
200330b4:	e5910010 	ldr	r0, [r1, #16]
200330b8:	e1100000 	tst	r0, r0
200330bc:	1a0009d6 	bne	2003581c <_kernel_call_texrtn>

200330c0 <dispatch_r_1>:
200330c0:	e1a0f00e 	mov	pc, lr

200330c4 <_kernel_start_dispatch>:
200330c4:	e329f0d3 	msr	CPSR_fc, #211	; 0xd3
200330c8:	e59f21ec 	ldr	r2, [pc, #492]	; 200332bc <_sil_dly_nse1+0x14>
200330cc:	e3a00000 	mov	r0, #0
200330d0:	e5820000 	str	r0, [r2]
200330d4:	eaffffff 	b	200330d8 <_kernel_exit_and_dispatch>

200330d8 <_kernel_exit_and_dispatch>:
200330d8:	e59f01e0 	ldr	r0, [pc, #480]	; 200332c0 <_sil_dly_nse1+0x18>
200330dc:	e5901000 	ldr	r1, [r0]
200330e0:	e59f21d0 	ldr	r2, [pc, #464]	; 200332b8 <_sil_dly_nse1+0x10>
200330e4:	e5821000 	str	r1, [r2]
200330e8:	e3510000 	cmp	r1, #0
200330ec:	0a000001 	beq	200330f8 <dispatcher_1>
200330f0:	e591d01c 	ldr	sp, [r1, #28]
200330f4:	e591f020 	ldr	pc, [r1, #32]

200330f8 <dispatcher_1>:
200330f8:	e59f01c4 	ldr	r0, [pc, #452]	; 200332c4 <_sil_dly_nse1+0x1c>
200330fc:	e590d000 	ldr	sp, [r0]
20033100:	e59f11c0 	ldr	r1, [pc, #448]	; 200332c8 <_sil_dly_nse1+0x20>
20033104:	e5913000 	ldr	r3, [r1]
20033108:	e08dd003 	add	sp, sp, r3
2003310c:	e59f21b8 	ldr	r2, [pc, #440]	; 200332cc <_sil_dly_nse1+0x24>
20033110:	e59f31a4 	ldr	r3, [pc, #420]	; 200332bc <_sil_dly_nse1+0x14>
20033114:	e3a00000 	mov	r0, #0
20033118:	e3a01001 	mov	r1, #1

2003311c <dispatcher_2>:
2003311c:	e5831000 	str	r1, [r3]
20033120:	e329f093 	msr	CPSR_fc, #147	; 0x93
20033124:	e320f000 	nop	{0}
20033128:	e329f0d3 	msr	CPSR_fc, #211	; 0xd3
2003312c:	e5926000 	ldr	r6, [r2]
20033130:	e3560000 	cmp	r6, #0
20033134:	0afffff8 	beq	2003311c <dispatcher_2>
20033138:	e5820000 	str	r0, [r2]
2003313c:	e5830000 	str	r0, [r3]
20033140:	eaffffe4 	b	200330d8 <_kernel_exit_and_dispatch>

20033144 <_kernel_call_exit_kernel>:
20033144:	e329f0d3 	msr	CPSR_fc, #211	; 0xd3
20033148:	e59f0180 	ldr	r0, [pc, #384]	; 200332d0 <_sil_dly_nse1+0x28>
2003314c:	e590d000 	ldr	sp, [r0]
20033150:	ea00062c 	b	20034a08 <_kernel_exit_kernel>

20033154 <_kernel_start_r>:
20033154:	e329f093 	msr	CPSR_fc, #147	; 0x93
20033158:	e59fe174 	ldr	lr, [pc, #372]	; 200332d4 <_sil_dly_nse1+0x2c>
2003315c:	e5912008 	ldr	r2, [r1, #8]
20033160:	e5920004 	ldr	r0, [r2, #4]
20033164:	e5921008 	ldr	r1, [r2, #8]
20033168:	e1a0f001 	mov	pc, r1

2003316c <_kernel_ret_exc>:
2003316c:	e59f0148 	ldr	r0, [pc, #328]	; 200332bc <_sil_dly_nse1+0x14>
20033170:	e5901000 	ldr	r1, [r0]
20033174:	e2412001 	sub	r2, r1, #1
20033178:	e5802000 	str	r2, [r0]
2003317c:	e3520000 	cmp	r2, #0
20033180:	1a000003 	bne	20033194 <ret_int_1>
20033184:	e59f0140 	ldr	r0, [pc, #320]	; 200332cc <_sil_dly_nse1+0x24>
20033188:	e5901000 	ldr	r1, [r0]
2003318c:	e3510000 	cmp	r1, #0
20033190:	1a000002 	bne	200331a0 <ret_int_2>

20033194 <ret_int_1>:
20033194:	e49d1004 	pop	{r1}		; (ldr r1, [sp], #4)
20033198:	e169f001 	msr	SPSR_fc, r1
2003319c:	e8fdd00f 	ldm	sp!, {r0, r1, r2, r3, ip, lr, pc}^

200331a0 <ret_int_2>:
200331a0:	e59f0124 	ldr	r0, [pc, #292]	; 200332cc <_sil_dly_nse1+0x24>
200331a4:	e3a01000 	mov	r1, #0
200331a8:	e5801000 	str	r1, [r0]
200331ac:	e59f0104 	ldr	r0, [pc, #260]	; 200332b8 <_sil_dly_nse1+0x10>
200331b0:	e5901000 	ldr	r1, [r0]
200331b4:	e59f011c 	ldr	r0, [pc, #284]	; 200332d8 <_sil_dly_nse1+0x30>
200331b8:	e5902000 	ldr	r2, [r0]
200331bc:	e3520000 	cmp	r2, #0
200331c0:	0a000009 	beq	200331ec <ret_int_4>
200331c4:	e59f00f4 	ldr	r0, [pc, #244]	; 200332c0 <_sil_dly_nse1+0x18>
200331c8:	e5902000 	ldr	r2, [r0]
200331cc:	e1510002 	cmp	r1, r2
200331d0:	0a000005 	beq	200331ec <ret_int_4>
200331d4:	e92d0ff0 	push	{r4, r5, r6, r7, r8, r9, sl, fp}
200331d8:	e581d01c 	str	sp, [r1, #28]
200331dc:	e28f0004 	add	r0, pc, #4
200331e0:	e5810020 	str	r0, [r1, #32]
200331e4:	eaffffbb 	b	200330d8 <_kernel_exit_and_dispatch>

200331e8 <ret_int_r>:
200331e8:	e8bd0ff0 	pop	{r4, r5, r6, r7, r8, r9, sl, fp}

200331ec <ret_int_4>:
200331ec:	e5d1000e 	ldrb	r0, [r1, #14]
200331f0:	e3100004 	tst	r0, #4
200331f4:	0a000002 	beq	20033204 <ret_int_5>
200331f8:	e5910010 	ldr	r0, [r1, #16]
200331fc:	e1100000 	tst	r0, r0
20033200:	1b000985 	blne	2003581c <_kernel_call_texrtn>

20033204 <ret_int_5>:
20033204:	e49d0004 	pop	{r0}		; (ldr r0, [sp], #4)
20033208:	e169f000 	msr	SPSR_fc, r0
2003320c:	e8fdd00f 	ldm	sp!, {r0, r1, r2, r3, ip, lr, pc}^

20033210 <_kernel_undef_handler>:
20033210:	e329f0d3 	msr	CPSR_fc, #211	; 0xd3
20033214:	e92dd00f 	push	{r0, r1, r2, r3, ip, lr, pc}
20033218:	e329f0db 	msr	CPSR_fc, #219	; 0xdb
2003321c:	e1a0000e 	mov	r0, lr
20033220:	e14f1000 	mrs	r1, SPSR
20033224:	e3a02001 	mov	r2, #1
20033228:	eaffff4f 	b	20032f6c <target_exc_handler>

2003322c <_kernel_swi_handler>:
2003322c:	e329f0d3 	msr	CPSR_fc, #211	; 0xd3
20033230:	e92dd00f 	push	{r0, r1, r2, r3, ip, lr, pc}
20033234:	e1a0000e 	mov	r0, lr
20033238:	e14f1000 	mrs	r1, SPSR
2003323c:	e3a02002 	mov	r2, #2
20033240:	eaffff49 	b	20032f6c <target_exc_handler>

20033244 <_kernel_prefetch_handler>:
20033244:	e329f0d3 	msr	CPSR_fc, #211	; 0xd3
20033248:	e92dd00f 	push	{r0, r1, r2, r3, ip, lr, pc}
2003324c:	e329f0d7 	msr	CPSR_fc, #215	; 0xd7
20033250:	e1a0000e 	mov	r0, lr
20033254:	e14f1000 	mrs	r1, SPSR
20033258:	e3a02003 	mov	r2, #3
2003325c:	eaffff42 	b	20032f6c <target_exc_handler>

20033260 <_kernel_data_abort_handler>:
20033260:	e329f0d3 	msr	CPSR_fc, #211	; 0xd3
20033264:	e92dd00f 	push	{r0, r1, r2, r3, ip, lr, pc}
20033268:	e329f0d7 	msr	CPSR_fc, #215	; 0xd7
2003326c:	e1a0000e 	mov	r0, lr
20033270:	e14f1000 	mrs	r1, SPSR
20033274:	e3a02004 	mov	r2, #4
20033278:	eaffff3b 	b	20032f6c <target_exc_handler>

2003327c <safeg_handler>:
2003327c:	e329f0d3 	msr	CPSR_fc, #211	; 0xd3
20033280:	e92dd00f 	push	{r0, r1, r2, r3, ip, lr, pc}
20033284:	e329f0d2 	msr	CPSR_fc, #210	; 0xd2
20033288:	e24e0004 	sub	r0, lr, #4
2003328c:	e14f1000 	mrs	r1, SPSR
20033290:	e3a02007 	mov	r2, #7
20033294:	eaffff34 	b	20032f6c <target_exc_handler>

20033298 <_sil_dly_nse>:
20033298:	e2400032 	sub	r0, r0, #50	; 0x32
2003329c:	e3500000 	cmp	r0, #0
200332a0:	ca000000 	bgt	200332a8 <_sil_dly_nse1>
200332a4:	d1a0f00e 	movle	pc, lr

200332a8 <_sil_dly_nse1>:
200332a8:	e2400028 	sub	r0, r0, #40	; 0x28
200332ac:	e3500000 	cmp	r0, #0
200332b0:	cafffffc 	bgt	200332a8 <_sil_dly_nse1>
200332b4:	d1a0f00e 	movle	pc, lr
200332b8:	20054098 	.word	0x20054098
200332bc:	20054000 	.word	0x20054000
200332c0:	20054004 	.word	0x20054004
200332c4:	2003af44 	.word	0x2003af44
200332c8:	2003af40 	.word	0x2003af40
200332cc:	20054008 	.word	0x20054008
200332d0:	2003af48 	.word	0x2003af48
200332d4:	200369f4 	.word	0x200369f4
200332d8:	2005408c 	.word	0x2005408c

200332dc <TOPPERS_assert_abort>:
200332dc:	e52db004 	push	{fp}		; (str fp, [sp, #-4]!)
200332e0:	e28db000 	add	fp, sp, #0
200332e4:	eafffffe 	b	200332e4 <TOPPERS_assert_abort+0x8>

200332e8 <_syslog_1>:
200332e8:	e92d4800 	push	{fp, lr}
200332ec:	e28db004 	add	fp, sp, #4
200332f0:	e24dd040 	sub	sp, sp, #64	; 0x40
200332f4:	e50b0038 	str	r0, [fp, #-56]	; 0xffffffc8
200332f8:	e50b103c 	str	r1, [fp, #-60]	; 0xffffffc4
200332fc:	e50b2040 	str	r2, [fp, #-64]	; 0xffffffc0
20033300:	e51b303c 	ldr	r3, [fp, #-60]	; 0xffffffc4
20033304:	e50b3034 	str	r3, [fp, #-52]	; 0xffffffcc
20033308:	e51b3040 	ldr	r3, [fp, #-64]	; 0xffffffc0
2003330c:	e50b302c 	str	r3, [fp, #-44]	; 0xffffffd4
20033310:	e24b3034 	sub	r3, fp, #52	; 0x34
20033314:	e51b0038 	ldr	r0, [fp, #-56]	; 0xffffffc8
20033318:	e1a01003 	mov	r1, r3
2003331c:	ebfff4b8 	bl	20030604 <syslog_wri_log>
20033320:	e24bd004 	sub	sp, fp, #4
20033324:	e8bd8800 	pop	{fp, pc}

20033328 <_syslog_3>:
20033328:	e92d4800 	push	{fp, lr}
2003332c:	e28db004 	add	fp, sp, #4
20033330:	e24dd040 	sub	sp, sp, #64	; 0x40
20033334:	e50b0038 	str	r0, [fp, #-56]	; 0xffffffc8
20033338:	e50b103c 	str	r1, [fp, #-60]	; 0xffffffc4
2003333c:	e50b2040 	str	r2, [fp, #-64]	; 0xffffffc0
20033340:	e50b3044 	str	r3, [fp, #-68]	; 0xffffffbc
20033344:	e51b303c 	ldr	r3, [fp, #-60]	; 0xffffffc4
20033348:	e50b3034 	str	r3, [fp, #-52]	; 0xffffffcc
2003334c:	e51b3040 	ldr	r3, [fp, #-64]	; 0xffffffc0
20033350:	e50b302c 	str	r3, [fp, #-44]	; 0xffffffd4
20033354:	e51b3044 	ldr	r3, [fp, #-68]	; 0xffffffbc
20033358:	e50b3028 	str	r3, [fp, #-40]	; 0xffffffd8
2003335c:	e59b3004 	ldr	r3, [fp, #4]
20033360:	e50b3024 	str	r3, [fp, #-36]	; 0xffffffdc
20033364:	e24b3034 	sub	r3, fp, #52	; 0x34
20033368:	e51b0038 	ldr	r0, [fp, #-56]	; 0xffffffc8
2003336c:	e1a01003 	mov	r1, r3
20033370:	ebfff4a3 	bl	20030604 <syslog_wri_log>
20033374:	e24bd004 	sub	sp, fp, #4
20033378:	e8bd8800 	pop	{fp, pc}

2003337c <sil_rew_mem>:
2003337c:	e52db004 	push	{fp}		; (str fp, [sp, #-4]!)
20033380:	e28db000 	add	fp, sp, #0
20033384:	e24dd014 	sub	sp, sp, #20
20033388:	e50b0010 	str	r0, [fp, #-16]
2003338c:	e51b3010 	ldr	r3, [fp, #-16]
20033390:	e5933000 	ldr	r3, [r3]
20033394:	e50b3008 	str	r3, [fp, #-8]
20033398:	e51b3008 	ldr	r3, [fp, #-8]
2003339c:	e1a00003 	mov	r0, r3
200333a0:	e28bd000 	add	sp, fp, #0
200333a4:	e49db004 	pop	{fp}		; (ldr fp, [sp], #4)
200333a8:	e12fff1e 	bx	lr

200333ac <sil_wrw_mem>:
200333ac:	e52db004 	push	{fp}		; (str fp, [sp, #-4]!)
200333b0:	e28db000 	add	fp, sp, #0
200333b4:	e24dd00c 	sub	sp, sp, #12
200333b8:	e50b0008 	str	r0, [fp, #-8]
200333bc:	e50b100c 	str	r1, [fp, #-12]
200333c0:	e51b3008 	ldr	r3, [fp, #-8]
200333c4:	e51b200c 	ldr	r2, [fp, #-12]
200333c8:	e5832000 	str	r2, [r3]
200333cc:	e28bd000 	add	sp, fp, #0
200333d0:	e49db004 	pop	{fp}		; (ldr fp, [sp], #4)
200333d4:	e12fff1e 	bx	lr

200333d8 <tzic_unlock>:
200333d8:	e92d4800 	push	{fp, lr}
200333dc:	e28db004 	add	fp, sp, #4
200333e0:	e30f001c 	movw	r0, #61468	; 0xf01c
200333e4:	e3410011 	movt	r0, #4113	; 0x1011
200333e8:	e30e1550 	movw	r1, #58704	; 0xe550
200333ec:	e3401acc 	movt	r1, #2764	; 0xacc
200333f0:	ebffffed 	bl	200333ac <sil_wrw_mem>
200333f4:	e8bd8800 	pop	{fp, pc}

200333f8 <tzic_lock>:
200333f8:	e92d4800 	push	{fp, lr}
200333fc:	e28db004 	add	fp, sp, #4
20033400:	e30f001c 	movw	r0, #61468	; 0xf01c
20033404:	e3410011 	movt	r0, #4113	; 0x1011
20033408:	e3a01000 	mov	r1, #0
2003340c:	ebffffe6 	bl	200333ac <sil_wrw_mem>
20033410:	e8bd8800 	pop	{fp, pc}

20033414 <tzic_disable_int>:
20033414:	e92d4800 	push	{fp, lr}
20033418:	e28db004 	add	fp, sp, #4
2003341c:	e24dd008 	sub	sp, sp, #8
20033420:	e50b0008 	str	r0, [fp, #-8]
20033424:	ebffffeb 	bl	200333d8 <tzic_unlock>
20033428:	e30f0010 	movw	r0, #61456	; 0xf010
2003342c:	e3410011 	movt	r0, #4113	; 0x1011
20033430:	ebffffd1 	bl	2003337c <sil_rew_mem>
20033434:	e1a02000 	mov	r2, r0
20033438:	e51b3008 	ldr	r3, [fp, #-8]
2003343c:	e1823003 	orr	r3, r2, r3
20033440:	e30f0010 	movw	r0, #61456	; 0xf010
20033444:	e3410011 	movt	r0, #4113	; 0x1011
20033448:	e1a01003 	mov	r1, r3
2003344c:	ebffffd6 	bl	200333ac <sil_wrw_mem>
20033450:	ebffffe8 	bl	200333f8 <tzic_lock>
20033454:	e24bd004 	sub	sp, fp, #4
20033458:	e8bd8800 	pop	{fp, pc}

2003345c <tzic_enable_int>:
2003345c:	e92d4800 	push	{fp, lr}
20033460:	e28db004 	add	fp, sp, #4
20033464:	e24dd008 	sub	sp, sp, #8
20033468:	e50b0008 	str	r0, [fp, #-8]
2003346c:	ebffffd9 	bl	200333d8 <tzic_unlock>
20033470:	e30f000c 	movw	r0, #61452	; 0xf00c
20033474:	e3410011 	movt	r0, #4113	; 0x1011
20033478:	ebffffbf 	bl	2003337c <sil_rew_mem>
2003347c:	e1a02000 	mov	r2, r0
20033480:	e51b3008 	ldr	r3, [fp, #-8]
20033484:	e1823003 	orr	r3, r2, r3
20033488:	e30f000c 	movw	r0, #61452	; 0xf00c
2003348c:	e3410011 	movt	r0, #4113	; 0x1011
20033490:	e1a01003 	mov	r1, r3
20033494:	ebffffc4 	bl	200333ac <sil_wrw_mem>
20033498:	ebffffd6 	bl	200333f8 <tzic_lock>
2003349c:	e24bd004 	sub	sp, fp, #4
200334a0:	e8bd8800 	pop	{fp, pc}

200334a4 <tzic_use_fiq_gen>:
200334a4:	e92d4800 	push	{fp, lr}
200334a8:	e28db004 	add	fp, sp, #4
200334ac:	e24dd008 	sub	sp, sp, #8
200334b0:	e50b0008 	str	r0, [fp, #-8]
200334b4:	ebffffc7 	bl	200333d8 <tzic_unlock>
200334b8:	e30f0008 	movw	r0, #61448	; 0xf008
200334bc:	e3410011 	movt	r0, #4113	; 0x1011
200334c0:	ebffffad 	bl	2003337c <sil_rew_mem>
200334c4:	e1a02000 	mov	r2, r0
200334c8:	e51b3008 	ldr	r3, [fp, #-8]
200334cc:	e1823003 	orr	r3, r2, r3
200334d0:	e30f0008 	movw	r0, #61448	; 0xf008
200334d4:	e3410011 	movt	r0, #4113	; 0x1011
200334d8:	e1a01003 	mov	r1, r3
200334dc:	ebffffb2 	bl	200333ac <sil_wrw_mem>
200334e0:	ebffffc4 	bl	200333f8 <tzic_lock>
200334e4:	e24bd004 	sub	sp, fp, #4
200334e8:	e8bd8800 	pop	{fp, pc}

200334ec <pb1176t_tzpc_init>:
200334ec:	e52db004 	push	{fp}		; (str fp, [sp, #-4]!)
200334f0:	e28db000 	add	fp, sp, #0
200334f4:	e3a03a01 	mov	r3, #4096	; 0x1000
200334f8:	e3413010 	movt	r3, #4112	; 0x1010
200334fc:	e3a020ff 	mov	r2, #255	; 0xff
20033500:	e5832000 	str	r2, [r3]
20033504:	e3013804 	movw	r3, #6148	; 0x1804
20033508:	e3413010 	movt	r3, #4112	; 0x1010
2003350c:	e3092f9d 	movw	r2, #40861	; 0x9f9d
20033510:	e5832000 	str	r2, [r3]
20033514:	e3013810 	movw	r3, #6160	; 0x1810
20033518:	e3413010 	movt	r3, #4112	; 0x1010
2003351c:	e3032fff 	movw	r2, #16383	; 0x3fff
20033520:	e5832000 	str	r2, [r3]
20033524:	e301381c 	movw	r3, #6172	; 0x181c
20033528:	e3413010 	movt	r3, #4112	; 0x1010
2003352c:	e3a0207f 	mov	r2, #127	; 0x7f
20033530:	e5832000 	str	r2, [r3]
20033534:	e3033804 	movw	r3, #14340	; 0x3804
20033538:	e3413000 	movt	r3, #4096	; 0x1000
2003353c:	e3a020ff 	mov	r2, #255	; 0xff
20033540:	e5832000 	str	r2, [r3]
20033544:	e3033810 	movw	r3, #14352	; 0x3810
20033548:	e3413000 	movt	r3, #4096	; 0x1000
2003354c:	e3a020ff 	mov	r2, #255	; 0xff
20033550:	e5832000 	str	r2, [r3]
20033554:	e303381c 	movw	r3, #14364	; 0x381c
20033558:	e3413000 	movt	r3, #4096	; 0x1000
2003355c:	e3a0200f 	mov	r2, #15
20033560:	e5832000 	str	r2, [r3]
20033564:	e28bd000 	add	sp, fp, #0
20033568:	e49db004 	pop	{fp}		; (ldr fp, [sp], #4)
2003356c:	e12fff1e 	bx	lr

20033570 <pb1176t_init_uart>:
20033570:	e92d4800 	push	{fp, lr}
20033574:	e28db004 	add	fp, sp, #4
20033578:	e30d0024 	movw	r0, #53284	; 0xd024
2003357c:	e3410010 	movt	r0, #4112	; 0x1010
20033580:	e3a01027 	mov	r1, #39	; 0x27
20033584:	ebffff88 	bl	200333ac <sil_wrw_mem>
20033588:	e30d0028 	movw	r0, #53288	; 0xd028
2003358c:	e3410010 	movt	r0, #4112	; 0x1010
20033590:	e3a01004 	mov	r1, #4
20033594:	ebffff84 	bl	200333ac <sil_wrw_mem>
20033598:	e30d0030 	movw	r0, #53296	; 0xd030
2003359c:	e3410010 	movt	r0, #4112	; 0x1010
200335a0:	e3001301 	movw	r1, #769	; 0x301
200335a4:	ebffff80 	bl	200333ac <sil_wrw_mem>
200335a8:	e30d002c 	movw	r0, #53292	; 0xd02c
200335ac:	e3410010 	movt	r0, #4112	; 0x1010
200335b0:	e3a01060 	mov	r1, #96	; 0x60
200335b4:	ebffff7c 	bl	200333ac <sil_wrw_mem>
200335b8:	e30d0034 	movw	r0, #53300	; 0xd034
200335bc:	e3410010 	movt	r0, #4112	; 0x1010
200335c0:	e3a01000 	mov	r1, #0
200335c4:	ebffff78 	bl	200333ac <sil_wrw_mem>
200335c8:	e30d0038 	movw	r0, #53304	; 0xd038
200335cc:	e3410010 	movt	r0, #4112	; 0x1010
200335d0:	e3a01000 	mov	r1, #0
200335d4:	ebffff74 	bl	200333ac <sil_wrw_mem>
200335d8:	e8bd8800 	pop	{fp, pc}

200335dc <pb1176t_putc>:
200335dc:	e92d4800 	push	{fp, lr}
200335e0:	e28db004 	add	fp, sp, #4
200335e4:	e24dd008 	sub	sp, sp, #8
200335e8:	e1a03000 	mov	r3, r0
200335ec:	e54b3005 	strb	r3, [fp, #-5]
200335f0:	e1a00000 	nop			; (mov r0, r0)
200335f4:	e30d0018 	movw	r0, #53272	; 0xd018
200335f8:	e3410010 	movt	r0, #4112	; 0x1010
200335fc:	ebffff5e 	bl	2003337c <sil_rew_mem>
20033600:	e1a03000 	mov	r3, r0
20033604:	e2033020 	and	r3, r3, #32
20033608:	e3530000 	cmp	r3, #0
2003360c:	1afffff8 	bne	200335f4 <pb1176t_putc+0x18>
20033610:	e55b3005 	ldrb	r3, [fp, #-5]
20033614:	e3a00a0d 	mov	r0, #53248	; 0xd000
20033618:	e3410010 	movt	r0, #4112	; 0x1010
2003361c:	e1a01003 	mov	r1, r3
20033620:	ebffff61 	bl	200333ac <sil_wrw_mem>
20033624:	e24bd004 	sub	sp, fp, #4
20033628:	e8bd8800 	pop	{fp, pc}

2003362c <pb1176t_init_tcm>:
2003362c:	e52db004 	push	{fp}		; (str fp, [sp, #-4]!)
20033630:	e28db000 	add	fp, sp, #0
20033634:	e3a03000 	mov	r3, #0
20033638:	ee093f12 	mcr	15, 0, r3, cr9, cr2, {0}
2003363c:	e3a03001 	mov	r3, #1
20033640:	ee093f51 	mcr	15, 0, r3, cr9, cr1, {2}
20033644:	e3a03001 	mov	r3, #1
20033648:	ee093f71 	mcr	15, 0, r3, cr9, cr1, {3}
2003364c:	e3a03001 	mov	r3, #1
20033650:	ee093f12 	mcr	15, 0, r3, cr9, cr2, {0}
20033654:	e3a03001 	mov	r3, #1
20033658:	ee093f51 	mcr	15, 0, r3, cr9, cr1, {2}
2003365c:	e3a03001 	mov	r3, #1
20033660:	ee093f71 	mcr	15, 0, r3, cr9, cr1, {3}
20033664:	e3a03000 	mov	r3, #0
20033668:	ee093f12 	mcr	15, 0, r3, cr9, cr2, {0}
2003366c:	e3023001 	movw	r3, #8193	; 0x2001
20033670:	e3473000 	movt	r3, #28672	; 0x7000
20033674:	ee093f11 	mcr	15, 0, r3, cr9, cr1, {0}
20033678:	e3a03217 	mov	r3, #1879048193	; 0x70000001
2003367c:	ee093f31 	mcr	15, 0, r3, cr9, cr1, {1}
20033680:	e3a03001 	mov	r3, #1
20033684:	ee093f12 	mcr	15, 0, r3, cr9, cr2, {0}
20033688:	e3033001 	movw	r3, #12289	; 0x3001
2003368c:	e3473000 	movt	r3, #28672	; 0x7000
20033690:	ee093f11 	mcr	15, 0, r3, cr9, cr1, {0}
20033694:	e3013001 	movw	r3, #4097	; 0x1001
20033698:	e3473000 	movt	r3, #28672	; 0x7000
2003369c:	ee093f31 	mcr	15, 0, r3, cr9, cr1, {1}
200336a0:	e28bd000 	add	sp, fp, #0
200336a4:	e49db004 	pop	{fp}		; (ldr fp, [sp], #4)
200336a8:	e12fff1e 	bx	lr

200336ac <pb1176t_exit>:
200336ac:	e52db004 	push	{fp}		; (str fp, [sp, #-4]!)
200336b0:	e28db000 	add	fp, sp, #0
200336b4:	e28bd000 	add	sp, fp, #0
200336b8:	e49db004 	pop	{fp}		; (ldr fp, [sp], #4)
200336bc:	e12fff1e 	bx	lr

200336c0 <x_disable_int>:
200336c0:	e92d4800 	push	{fp, lr}
200336c4:	e28db004 	add	fp, sp, #4
200336c8:	e24dd008 	sub	sp, sp, #8
200336cc:	e50b0008 	str	r0, [fp, #-8]
200336d0:	e51b3008 	ldr	r3, [fp, #-8]
200336d4:	e3a02001 	mov	r2, #1
200336d8:	e1a02312 	lsl	r2, r2, r3
200336dc:	e3013fa4 	movw	r3, #8100	; 0x1fa4
200336e0:	e3423004 	movt	r3, #8196	; 0x2004
200336e4:	e5933000 	ldr	r3, [r3]
200336e8:	e0023003 	and	r3, r2, r3
200336ec:	e3530000 	cmp	r3, #0
200336f0:	1a000001 	bne	200336fc <x_disable_int+0x3c>
200336f4:	e3a03000 	mov	r3, #0
200336f8:	ea00000f 	b	2003373c <x_disable_int+0x7c>
200336fc:	e51b3008 	ldr	r3, [fp, #-8]
20033700:	e3a02001 	mov	r2, #1
20033704:	e1a03312 	lsl	r3, r2, r3
20033708:	e1a00003 	mov	r0, r3
2003370c:	ebffff40 	bl	20033414 <tzic_disable_int>
20033710:	e51b3008 	ldr	r3, [fp, #-8]
20033714:	e3a02001 	mov	r2, #1
20033718:	e1a02312 	lsl	r2, r2, r3
2003371c:	e3013fac 	movw	r3, #8108	; 0x1fac
20033720:	e3423004 	movt	r3, #8196	; 0x2004
20033724:	e5933000 	ldr	r3, [r3]
20033728:	e1822003 	orr	r2, r2, r3
2003372c:	e3013fac 	movw	r3, #8108	; 0x1fac
20033730:	e3423004 	movt	r3, #8196	; 0x2004
20033734:	e5832000 	str	r2, [r3]
20033738:	e3a03001 	mov	r3, #1
2003373c:	e1a00003 	mov	r0, r3
20033740:	e24bd004 	sub	sp, fp, #4
20033744:	e8bd8800 	pop	{fp, pc}

20033748 <x_enable_int>:
20033748:	e92d4800 	push	{fp, lr}
2003374c:	e28db004 	add	fp, sp, #4
20033750:	e24dd008 	sub	sp, sp, #8
20033754:	e50b0008 	str	r0, [fp, #-8]
20033758:	e51b3008 	ldr	r3, [fp, #-8]
2003375c:	e3a02001 	mov	r2, #1
20033760:	e1a02312 	lsl	r2, r2, r3
20033764:	e3013fa4 	movw	r3, #8100	; 0x1fa4
20033768:	e3423004 	movt	r3, #8196	; 0x2004
2003376c:	e5933000 	ldr	r3, [r3]
20033770:	e0023003 	and	r3, r2, r3
20033774:	e3530000 	cmp	r3, #0
20033778:	1a000001 	bne	20033784 <x_enable_int+0x3c>
2003377c:	e3a03000 	mov	r3, #0
20033780:	ea000010 	b	200337c8 <x_enable_int+0x80>
20033784:	e51b3008 	ldr	r3, [fp, #-8]
20033788:	e3a02001 	mov	r2, #1
2003378c:	e1a03312 	lsl	r3, r2, r3
20033790:	e1a00003 	mov	r0, r3
20033794:	ebffff30 	bl	2003345c <tzic_enable_int>
20033798:	e51b3008 	ldr	r3, [fp, #-8]
2003379c:	e3a02001 	mov	r2, #1
200337a0:	e1a03312 	lsl	r3, r2, r3
200337a4:	e1e02003 	mvn	r2, r3
200337a8:	e3013fac 	movw	r3, #8108	; 0x1fac
200337ac:	e3423004 	movt	r3, #8196	; 0x2004
200337b0:	e5933000 	ldr	r3, [r3]
200337b4:	e0022003 	and	r2, r2, r3
200337b8:	e3013fac 	movw	r3, #8108	; 0x1fac
200337bc:	e3423004 	movt	r3, #8196	; 0x2004
200337c0:	e5832000 	str	r2, [r3]
200337c4:	e3a03001 	mov	r3, #1
200337c8:	e1a00003 	mov	r0, r3
200337cc:	e24bd004 	sub	sp, fp, #4
200337d0:	e8bd8800 	pop	{fp, pc}

200337d4 <_kernel_target_initialize>:
200337d4:	e92d4800 	push	{fp, lr}
200337d8:	e28db004 	add	fp, sp, #4
200337dc:	ebffff42 	bl	200334ec <pb1176t_tzpc_init>
200337e0:	eb00043c 	bl	200348d8 <_kernel_core_initialize>
200337e4:	ebffff90 	bl	2003362c <pb1176t_init_tcm>
200337e8:	eb00038e 	bl	20034628 <pb1176_mmu_init>
200337ec:	eb000424 	bl	20034884 <pb1176_cache_init>
200337f0:	e3013fac 	movw	r3, #8108	; 0x1fac
200337f4:	e3423004 	movt	r3, #8196	; 0x2004
200337f8:	e3e02000 	mvn	r2, #0
200337fc:	e5832000 	str	r2, [r3]
20033800:	e3013fa8 	movw	r3, #8104	; 0x1fa8
20033804:	e3423004 	movt	r3, #8196	; 0x2004
20033808:	e3a02000 	mov	r2, #0
2003380c:	e5832000 	str	r2, [r3]
20033810:	e3e00000 	mvn	r0, #0
20033814:	ebfffefe 	bl	20033414 <tzic_disable_int>
20033818:	e3013fa4 	movw	r3, #8100	; 0x1fa4
2003381c:	e3423004 	movt	r3, #8196	; 0x2004
20033820:	e3a02000 	mov	r2, #0
20033824:	e5832000 	str	r2, [r3]
20033828:	ebffff50 	bl	20033570 <pb1176t_init_uart>
2003382c:	e3003000 	movw	r3, #0
20033830:	e3423003 	movt	r3, #8195	; 0x2003
20033834:	ee0c3f10 	mcr	15, 0, r3, cr12, cr0, {0}
20033838:	e8bd8800 	pop	{fp, pc}

2003383c <_kernel_target_exit>:
2003383c:	e92d4800 	push	{fp, lr}
20033840:	e28db004 	add	fp, sp, #4
20033844:	eb00042c 	bl	200348fc <_kernel_core_terminate>
20033848:	e3e00000 	mvn	r0, #0
2003384c:	ebfffef0 	bl	20033414 <tzic_disable_int>
20033850:	ebffff95 	bl	200336ac <pb1176t_exit>
20033854:	eafffffe 	b	20033854 <_kernel_target_exit+0x18>

20033858 <target_fput_log>:
20033858:	e92d4800 	push	{fp, lr}
2003385c:	e28db004 	add	fp, sp, #4
20033860:	e24dd008 	sub	sp, sp, #8
20033864:	e1a03000 	mov	r3, r0
20033868:	e54b3005 	strb	r3, [fp, #-5]
2003386c:	e55b3005 	ldrb	r3, [fp, #-5]
20033870:	e353000a 	cmp	r3, #10
20033874:	1a000001 	bne	20033880 <target_fput_log+0x28>
20033878:	e3a0000d 	mov	r0, #13
2003387c:	ebffff56 	bl	200335dc <pb1176t_putc>
20033880:	e55b3005 	ldrb	r3, [fp, #-5]
20033884:	e1a00003 	mov	r0, r3
20033888:	ebffff53 	bl	200335dc <pb1176t_putc>
2003388c:	e24bd004 	sub	sp, fp, #4
20033890:	e8bd8800 	pop	{fp, pc}

20033894 <_kernel_x_config_int>:
20033894:	e92d4800 	push	{fp, lr}
20033898:	e28db004 	add	fp, sp, #4
2003389c:	e24dd018 	sub	sp, sp, #24
200338a0:	e50b0008 	str	r0, [fp, #-8]
200338a4:	e50b100c 	str	r1, [fp, #-12]
200338a8:	e50b2010 	str	r2, [fp, #-16]
200338ac:	e51b3008 	ldr	r3, [fp, #-8]
200338b0:	e353001f 	cmp	r3, #31
200338b4:	9a00000a 	bls	200338e4 <_kernel_x_config_int+0x50>
200338b8:	e30b30ec 	movw	r3, #45292	; 0xb0ec
200338bc:	e3423003 	movt	r3, #8195	; 0x2003
200338c0:	e30b211c 	movw	r2, #45340	; 0xb11c
200338c4:	e3422003 	movt	r2, #8195	; 0x2003
200338c8:	e58d2000 	str	r2, [sp]
200338cc:	e3a00000 	mov	r0, #0
200338d0:	e3a01002 	mov	r1, #2
200338d4:	e1a02003 	mov	r2, r3
200338d8:	e3a030b7 	mov	r3, #183	; 0xb7
200338dc:	ebfffe91 	bl	20033328 <_syslog_3>
200338e0:	ebfffe7d 	bl	200332dc <TOPPERS_assert_abort>
200338e4:	e51b3010 	ldr	r3, [fp, #-16]
200338e8:	e3730020 	cmn	r3, #32
200338ec:	ba000002 	blt	200338fc <_kernel_x_config_int+0x68>
200338f0:	e51b3010 	ldr	r3, [fp, #-16]
200338f4:	e3530000 	cmp	r3, #0
200338f8:	ba00000a 	blt	20033928 <_kernel_x_config_int+0x94>
200338fc:	e30b30ec 	movw	r3, #45292	; 0xb0ec
20033900:	e3423003 	movt	r3, #8195	; 0x2003
20033904:	e30b2130 	movw	r2, #45360	; 0xb130
20033908:	e3422003 	movt	r2, #8195	; 0x2003
2003390c:	e58d2000 	str	r2, [sp]
20033910:	e3a00000 	mov	r0, #0
20033914:	e3a01002 	mov	r1, #2
20033918:	e1a02003 	mov	r2, r3
2003391c:	e3a030b8 	mov	r3, #184	; 0xb8
20033920:	ebfffe80 	bl	20033328 <_syslog_3>
20033924:	ebfffe6c 	bl	200332dc <TOPPERS_assert_abort>
20033928:	e51b3008 	ldr	r3, [fp, #-8]
2003392c:	e3a02001 	mov	r2, #1
20033930:	e1a02312 	lsl	r2, r2, r3
20033934:	e3013fa4 	movw	r3, #8100	; 0x1fa4
20033938:	e3423004 	movt	r3, #8196	; 0x2004
2003393c:	e5933000 	ldr	r3, [r3]
20033940:	e1822003 	orr	r2, r2, r3
20033944:	e3013fa4 	movw	r3, #8100	; 0x1fa4
20033948:	e3423004 	movt	r3, #8196	; 0x2004
2003394c:	e5832000 	str	r2, [r3]
20033950:	e51b0008 	ldr	r0, [fp, #-8]
20033954:	ebffff59 	bl	200336c0 <x_disable_int>
20033958:	e51b3008 	ldr	r3, [fp, #-8]
2003395c:	e3a02001 	mov	r2, #1
20033960:	e1a03312 	lsl	r3, r2, r3
20033964:	e1a00003 	mov	r0, r3
20033968:	ebfffecd 	bl	200334a4 <tzic_use_fiq_gen>
2003396c:	e51b300c 	ldr	r3, [fp, #-12]
20033970:	e2033001 	and	r3, r3, #1
20033974:	e6ef3073 	uxtb	r3, r3
20033978:	e3530000 	cmp	r3, #0
2003397c:	0a000001 	beq	20033988 <_kernel_x_config_int+0xf4>
20033980:	e51b0008 	ldr	r0, [fp, #-8]
20033984:	ebffff6f 	bl	20033748 <x_enable_int>
20033988:	e24bd004 	sub	sp, fp, #4
2003398c:	e8bd8800 	pop	{fp, pc}

20033990 <_kernel_default_int_handler>:
20033990:	e92d4800 	push	{fp, lr}
20033994:	e28db004 	add	fp, sp, #4
20033998:	e30b3160 	movw	r3, #45408	; 0xb160
2003399c:	e3423003 	movt	r3, #8195	; 0x2003
200339a0:	e3a00000 	mov	r0, #0
200339a4:	e3a01001 	mov	r1, #1
200339a8:	e1a02003 	mov	r2, r3
200339ac:	ebfffe4d 	bl	200332e8 <_syslog_1>
200339b0:	ebffffa1 	bl	2003383c <_kernel_target_exit>

200339b4 <get_utm>:
200339b4:	e52db004 	push	{fp}		; (str fp, [sp, #-4]!)
200339b8:	e28db000 	add	fp, sp, #0
200339bc:	e24dd00c 	sub	sp, sp, #12
200339c0:	e50b0008 	str	r0, [fp, #-8]
200339c4:	e3a0305c 	mov	r3, #92	; 0x5c
200339c8:	e3413000 	movt	r3, #4096	; 0x1000
200339cc:	e5932000 	ldr	r2, [r3]
200339d0:	e30a3aab 	movw	r3, #43691	; 0xaaab
200339d4:	e34a3aaa 	movt	r3, #43690	; 0xaaaa
200339d8:	e0831293 	umull	r1, r3, r3, r2
200339dc:	e1a02223 	lsr	r2, r3, #4
200339e0:	e51b3008 	ldr	r3, [fp, #-8]
200339e4:	e5832000 	str	r2, [r3]
200339e8:	e3a03000 	mov	r3, #0
200339ec:	e1a00003 	mov	r0, r3
200339f0:	e28bd000 	add	sp, fp, #0
200339f4:	e49db004 	pop	{fp}		; (ldr fp, [sp], #4)
200339f8:	e12fff1e 	bx	lr

200339fc <TOPPERS_assert_abort>:
200339fc:	e52db004 	push	{fp}		; (str fp, [sp, #-4]!)
20033a00:	e28db000 	add	fp, sp, #0
20033a04:	eafffffe 	b	20033a04 <TOPPERS_assert_abort+0x8>

20033a08 <_syslog_3>:
20033a08:	e92d4800 	push	{fp, lr}
20033a0c:	e28db004 	add	fp, sp, #4
20033a10:	e24dd040 	sub	sp, sp, #64	; 0x40
20033a14:	e50b0038 	str	r0, [fp, #-56]	; 0xffffffc8
20033a18:	e50b103c 	str	r1, [fp, #-60]	; 0xffffffc4
20033a1c:	e50b2040 	str	r2, [fp, #-64]	; 0xffffffc0
20033a20:	e50b3044 	str	r3, [fp, #-68]	; 0xffffffbc
20033a24:	e51b303c 	ldr	r3, [fp, #-60]	; 0xffffffc4
20033a28:	e50b3034 	str	r3, [fp, #-52]	; 0xffffffcc
20033a2c:	e51b3040 	ldr	r3, [fp, #-64]	; 0xffffffc0
20033a30:	e50b302c 	str	r3, [fp, #-44]	; 0xffffffd4
20033a34:	e51b3044 	ldr	r3, [fp, #-68]	; 0xffffffbc
20033a38:	e50b3028 	str	r3, [fp, #-40]	; 0xffffffd8
20033a3c:	e59b3004 	ldr	r3, [fp, #4]
20033a40:	e50b3024 	str	r3, [fp, #-36]	; 0xffffffdc
20033a44:	e24b3034 	sub	r3, fp, #52	; 0x34
20033a48:	e51b0038 	ldr	r0, [fp, #-56]	; 0xffffffc8
20033a4c:	e1a01003 	mov	r1, r3
20033a50:	ebfff2eb 	bl	20030604 <syslog_wri_log>
20033a54:	e24bd004 	sub	sp, fp, #4
20033a58:	e8bd8800 	pop	{fp, pc}

20033a5c <sil_wrw_mem>:
20033a5c:	e52db004 	push	{fp}		; (str fp, [sp, #-4]!)
20033a60:	e28db000 	add	fp, sp, #0
20033a64:	e24dd00c 	sub	sp, sp, #12
20033a68:	e50b0008 	str	r0, [fp, #-8]
20033a6c:	e50b100c 	str	r1, [fp, #-12]
20033a70:	e51b3008 	ldr	r3, [fp, #-8]
20033a74:	e51b200c 	ldr	r2, [fp, #-12]
20033a78:	e5832000 	str	r2, [r3]
20033a7c:	e28bd000 	add	sp, fp, #0
20033a80:	e49db004 	pop	{fp}		; (ldr fp, [sp], #4)
20033a84:	e12fff1e 	bx	lr

20033a88 <i_begin_int>:
20033a88:	e52db004 	push	{fp}		; (str fp, [sp, #-4]!)
20033a8c:	e28db000 	add	fp, sp, #0
20033a90:	e24dd00c 	sub	sp, sp, #12
20033a94:	e50b0008 	str	r0, [fp, #-8]
20033a98:	e28bd000 	add	sp, fp, #0
20033a9c:	e49db004 	pop	{fp}		; (ldr fp, [sp], #4)
20033aa0:	e12fff1e 	bx	lr

20033aa4 <i_end_int>:
20033aa4:	e52db004 	push	{fp}		; (str fp, [sp, #-4]!)
20033aa8:	e28db000 	add	fp, sp, #0
20033aac:	e24dd00c 	sub	sp, sp, #12
20033ab0:	e50b0008 	str	r0, [fp, #-8]
20033ab4:	e28bd000 	add	sp, fp, #0
20033ab8:	e49db004 	pop	{fp}		; (ldr fp, [sp], #4)
20033abc:	e12fff1e 	bx	lr

20033ac0 <target_timer_initialize>:
20033ac0:	e92d4800 	push	{fp, lr}
20033ac4:	e28db004 	add	fp, sp, #4
20033ac8:	e24dd018 	sub	sp, sp, #24
20033acc:	e50b0010 	str	r0, [fp, #-16]
20033ad0:	e3a03ffa 	mov	r3, #1000	; 0x3e8
20033ad4:	e50b3008 	str	r3, [fp, #-8]
20033ad8:	e51b2008 	ldr	r2, [fp, #-8]
20033adc:	e3e034ff 	mvn	r3, #-16777216	; 0xff000000
20033ae0:	e1520003 	cmp	r2, r3
20033ae4:	9a00000a 	bls	20033b14 <target_timer_initialize+0x54>
20033ae8:	e30b3180 	movw	r3, #45440	; 0xb180
20033aec:	e3423003 	movt	r3, #8195	; 0x2003
20033af0:	e30b21b0 	movw	r2, #45488	; 0xb1b0
20033af4:	e3422003 	movt	r2, #8195	; 0x2003
20033af8:	e58d2000 	str	r2, [sp]
20033afc:	e3a00000 	mov	r0, #0
20033b00:	e3a01002 	mov	r1, #2
20033b04:	e1a02003 	mov	r2, r3
20033b08:	e3a0303e 	mov	r3, #62	; 0x3e
20033b0c:	ebffffbd 	bl	20033a08 <_syslog_3>
20033b10:	ebffffb9 	bl	200339fc <TOPPERS_assert_abort>
20033b14:	e3a00a05 	mov	r0, #20480	; 0x5000
20033b18:	e3410010 	movt	r0, #4112	; 0x1010
20033b1c:	e300139a 	movw	r1, #922	; 0x39a
20033b20:	ebffffcd 	bl	20033a5c <sil_wrw_mem>
20033b24:	e3050008 	movw	r0, #20488	; 0x5008
20033b28:	e3410010 	movt	r0, #4112	; 0x1010
20033b2c:	e3a010e2 	mov	r1, #226	; 0xe2
20033b30:	ebffffc9 	bl	20033a5c <sil_wrw_mem>
20033b34:	e24bd004 	sub	sp, fp, #4
20033b38:	e8bd8800 	pop	{fp, pc}

20033b3c <target_timer_terminate>:
20033b3c:	e52db004 	push	{fp}		; (str fp, [sp, #-4]!)
20033b40:	e28db000 	add	fp, sp, #0
20033b44:	e24dd00c 	sub	sp, sp, #12
20033b48:	e50b0008 	str	r0, [fp, #-8]
20033b4c:	e28bd000 	add	sp, fp, #0
20033b50:	e49db004 	pop	{fp}		; (ldr fp, [sp], #4)
20033b54:	e12fff1e 	bx	lr

20033b58 <target_timer_handler>:
20033b58:	e92d4800 	push	{fp, lr}
20033b5c:	e28db004 	add	fp, sp, #4
20033b60:	e305000c 	movw	r0, #20492	; 0x500c
20033b64:	e3410010 	movt	r0, #4112	; 0x1010
20033b68:	e3a01001 	mov	r1, #1
20033b6c:	ebffffba 	bl	20033a5c <sil_wrw_mem>
20033b70:	e3a00009 	mov	r0, #9
20033b74:	ebffffc3 	bl	20033a88 <i_begin_int>
20033b78:	eb000981 	bl	20036184 <_kernel_signal_time>
20033b7c:	e3a00009 	mov	r0, #9
20033b80:	ebffffc7 	bl	20033aa4 <i_end_int>
20033b84:	e8bd8800 	pop	{fp, pc}

20033b88 <TOPPERS_assert_abort>:
20033b88:	e52db004 	push	{fp}		; (str fp, [sp, #-4]!)
20033b8c:	e28db000 	add	fp, sp, #0
20033b90:	eafffffe 	b	20033b90 <TOPPERS_assert_abort+0x8>

20033b94 <_syslog_3>:
20033b94:	e92d4800 	push	{fp, lr}
20033b98:	e28db004 	add	fp, sp, #4
20033b9c:	e24dd040 	sub	sp, sp, #64	; 0x40
20033ba0:	e50b0038 	str	r0, [fp, #-56]	; 0xffffffc8
20033ba4:	e50b103c 	str	r1, [fp, #-60]	; 0xffffffc4
20033ba8:	e50b2040 	str	r2, [fp, #-64]	; 0xffffffc0
20033bac:	e50b3044 	str	r3, [fp, #-68]	; 0xffffffbc
20033bb0:	e51b303c 	ldr	r3, [fp, #-60]	; 0xffffffc4
20033bb4:	e50b3034 	str	r3, [fp, #-52]	; 0xffffffcc
20033bb8:	e51b3040 	ldr	r3, [fp, #-64]	; 0xffffffc0
20033bbc:	e50b302c 	str	r3, [fp, #-44]	; 0xffffffd4
20033bc0:	e51b3044 	ldr	r3, [fp, #-68]	; 0xffffffbc
20033bc4:	e50b3028 	str	r3, [fp, #-40]	; 0xffffffd8
20033bc8:	e59b3004 	ldr	r3, [fp, #4]
20033bcc:	e50b3024 	str	r3, [fp, #-36]	; 0xffffffdc
20033bd0:	e24b3034 	sub	r3, fp, #52	; 0x34
20033bd4:	e51b0038 	ldr	r0, [fp, #-56]	; 0xffffffc8
20033bd8:	e1a01003 	mov	r1, r3
20033bdc:	ebfff288 	bl	20030604 <syslog_wri_log>
20033be0:	e24bd004 	sub	sp, fp, #4
20033be4:	e8bd8800 	pop	{fp, pc}

20033be8 <sio_initialize>:
20033be8:	e92d4800 	push	{fp, lr}
20033bec:	e28db004 	add	fp, sp, #4
20033bf0:	e24dd008 	sub	sp, sp, #8
20033bf4:	e50b0008 	str	r0, [fp, #-8]
20033bf8:	eb00011b 	bl	2003406c <uart_pl011_initialize>
20033bfc:	e24bd004 	sub	sp, fp, #4
20033c00:	e8bd8800 	pop	{fp, pc}

20033c04 <sio_opn_por>:
20033c04:	e92d4800 	push	{fp, lr}
20033c08:	e28db004 	add	fp, sp, #4
20033c0c:	e24dd020 	sub	sp, sp, #32
20033c10:	e50b0018 	str	r0, [fp, #-24]	; 0xffffffe8
20033c14:	e50b101c 	str	r1, [fp, #-28]	; 0xffffffe4
20033c18:	e51b0018 	ldr	r0, [fp, #-24]	; 0xffffffe8
20033c1c:	eb000138 	bl	20034104 <uart_pl011_openflag>
20033c20:	e50b0008 	str	r0, [fp, #-8]
20033c24:	e51b0018 	ldr	r0, [fp, #-24]	; 0xffffffe8
20033c28:	e51b101c 	ldr	r1, [fp, #-28]	; 0xffffffe4
20033c2c:	eb000149 	bl	20034158 <uart_pl011_opn_por>
20033c30:	e50b000c 	str	r0, [fp, #-12]
20033c34:	e51b3008 	ldr	r3, [fp, #-8]
20033c38:	e3530000 	cmp	r3, #0
20033c3c:	1a000013 	bne	20033c90 <sio_opn_por+0x8c>
20033c40:	e51b000c 	ldr	r0, [fp, #-12]
20033c44:	eb000205 	bl	20034460 <uart_pl011_get_irqno>
20033c48:	e1a03000 	mov	r3, r0
20033c4c:	e1a00003 	mov	r0, r3
20033c50:	eb001846 	bl	20039d70 <ena_int>
20033c54:	e50b0010 	str	r0, [fp, #-16]
20033c58:	e51b3010 	ldr	r3, [fp, #-16]
20033c5c:	e3530000 	cmp	r3, #0
20033c60:	0a00000a 	beq	20033c90 <sio_opn_por+0x8c>
20033c64:	e30b31c4 	movw	r3, #45508	; 0xb1c4
20033c68:	e3423003 	movt	r3, #8195	; 0x2003
20033c6c:	e30b21f4 	movw	r2, #45556	; 0xb1f4
20033c70:	e3422003 	movt	r2, #8195	; 0x2003
20033c74:	e58d2000 	str	r2, [sp]
20033c78:	e3a00000 	mov	r0, #0
20033c7c:	e3a01002 	mov	r1, #2
20033c80:	e1a02003 	mov	r2, r3
20033c84:	e3a03055 	mov	r3, #85	; 0x55
20033c88:	ebffffc1 	bl	20033b94 <_syslog_3>
20033c8c:	ebffffbd 	bl	20033b88 <TOPPERS_assert_abort>
20033c90:	e51b300c 	ldr	r3, [fp, #-12]
20033c94:	e1a00003 	mov	r0, r3
20033c98:	e24bd004 	sub	sp, fp, #4
20033c9c:	e8bd8800 	pop	{fp, pc}

20033ca0 <sio_cls_por>:
20033ca0:	e92d4800 	push	{fp, lr}
20033ca4:	e28db004 	add	fp, sp, #4
20033ca8:	e24dd008 	sub	sp, sp, #8
20033cac:	e50b0008 	str	r0, [fp, #-8]
20033cb0:	e51b0008 	ldr	r0, [fp, #-8]
20033cb4:	eb000169 	bl	20034260 <uart_pl011_cls_por>
20033cb8:	e51b0008 	ldr	r0, [fp, #-8]
20033cbc:	eb0001e7 	bl	20034460 <uart_pl011_get_irqno>
20033cc0:	e1a03000 	mov	r3, r0
20033cc4:	e1a00003 	mov	r0, r3
20033cc8:	eb0017ff 	bl	20039ccc <dis_int>
20033ccc:	e24bd004 	sub	sp, fp, #4
20033cd0:	e8bd8800 	pop	{fp, pc}

20033cd4 <sio_isr>:
20033cd4:	e92d4800 	push	{fp, lr}
20033cd8:	e28db004 	add	fp, sp, #4
20033cdc:	e24dd008 	sub	sp, sp, #8
20033ce0:	e50b0008 	str	r0, [fp, #-8]
20033ce4:	e51b0008 	ldr	r0, [fp, #-8]
20033ce8:	eb0001ca 	bl	20034418 <uart_pl011_isr>
20033cec:	e24bd004 	sub	sp, fp, #4
20033cf0:	e8bd8800 	pop	{fp, pc}

20033cf4 <sio_snd_chr>:
20033cf4:	e92d4800 	push	{fp, lr}
20033cf8:	e28db004 	add	fp, sp, #4
20033cfc:	e24dd008 	sub	sp, sp, #8
20033d00:	e50b0008 	str	r0, [fp, #-8]
20033d04:	e1a03001 	mov	r3, r1
20033d08:	e54b3009 	strb	r3, [fp, #-9]
20033d0c:	e55b3009 	ldrb	r3, [fp, #-9]
20033d10:	e51b0008 	ldr	r0, [fp, #-8]
20033d14:	e1a01003 	mov	r1, r3
20033d18:	eb00015a 	bl	20034288 <uart_pl011_snd_chr>
20033d1c:	e1a03000 	mov	r3, r0
20033d20:	e1a00003 	mov	r0, r3
20033d24:	e24bd004 	sub	sp, fp, #4
20033d28:	e8bd8800 	pop	{fp, pc}

20033d2c <sio_rcv_chr>:
20033d2c:	e92d4800 	push	{fp, lr}
20033d30:	e28db004 	add	fp, sp, #4
20033d34:	e24dd008 	sub	sp, sp, #8
20033d38:	e50b0008 	str	r0, [fp, #-8]
20033d3c:	e51b0008 	ldr	r0, [fp, #-8]
20033d40:	eb000165 	bl	200342dc <uart_pl011_rcv_chr>
20033d44:	e1a03000 	mov	r3, r0
20033d48:	e1a00003 	mov	r0, r3
20033d4c:	e24bd004 	sub	sp, fp, #4
20033d50:	e8bd8800 	pop	{fp, pc}

20033d54 <sio_ena_cbr>:
20033d54:	e92d4800 	push	{fp, lr}
20033d58:	e28db004 	add	fp, sp, #4
20033d5c:	e24dd008 	sub	sp, sp, #8
20033d60:	e50b0008 	str	r0, [fp, #-8]
20033d64:	e50b100c 	str	r1, [fp, #-12]
20033d68:	e51b0008 	ldr	r0, [fp, #-8]
20033d6c:	e51b100c 	ldr	r1, [fp, #-12]
20033d70:	eb00016a 	bl	20034320 <uart_pl011_ena_cbr>
20033d74:	e24bd004 	sub	sp, fp, #4
20033d78:	e8bd8800 	pop	{fp, pc}

20033d7c <sio_dis_cbr>:
20033d7c:	e92d4800 	push	{fp, lr}
20033d80:	e28db004 	add	fp, sp, #4
20033d84:	e24dd008 	sub	sp, sp, #8
20033d88:	e50b0008 	str	r0, [fp, #-8]
20033d8c:	e50b100c 	str	r1, [fp, #-12]
20033d90:	e51b0008 	ldr	r0, [fp, #-8]
20033d94:	e51b100c 	ldr	r1, [fp, #-12]
20033d98:	eb000173 	bl	2003436c <uart_pl011_dis_cbr>
20033d9c:	e24bd004 	sub	sp, fp, #4
20033da0:	e8bd8800 	pop	{fp, pc}

20033da4 <uart_pl011_ierdy_snd>:
20033da4:	e92d4800 	push	{fp, lr}
20033da8:	e28db004 	add	fp, sp, #4
20033dac:	e24dd008 	sub	sp, sp, #8
20033db0:	e50b0008 	str	r0, [fp, #-8]
20033db4:	e51b0008 	ldr	r0, [fp, #-8]
20033db8:	ebfff683 	bl	200317cc <sio_irdy_snd>
20033dbc:	e24bd004 	sub	sp, fp, #4
20033dc0:	e8bd8800 	pop	{fp, pc}

20033dc4 <uart_pl011_ierdy_rcv>:
20033dc4:	e92d4800 	push	{fp, lr}
20033dc8:	e28db004 	add	fp, sp, #4
20033dcc:	e24dd008 	sub	sp, sp, #8
20033dd0:	e50b0008 	str	r0, [fp, #-8]
20033dd4:	e51b0008 	ldr	r0, [fp, #-8]
20033dd8:	ebfff6d2 	bl	20031928 <sio_irdy_rcv>
20033ddc:	e24bd004 	sub	sp, fp, #4
20033de0:	e8bd8800 	pop	{fp, pc}

20033de4 <sil_rew_mem>:
20033de4:	e52db004 	push	{fp}		; (str fp, [sp, #-4]!)
20033de8:	e28db000 	add	fp, sp, #0
20033dec:	e24dd014 	sub	sp, sp, #20
20033df0:	e50b0010 	str	r0, [fp, #-16]
20033df4:	e51b3010 	ldr	r3, [fp, #-16]
20033df8:	e5933000 	ldr	r3, [r3]
20033dfc:	e50b3008 	str	r3, [fp, #-8]
20033e00:	e51b3008 	ldr	r3, [fp, #-8]
20033e04:	e1a00003 	mov	r0, r3
20033e08:	e28bd000 	add	sp, fp, #0
20033e0c:	e49db004 	pop	{fp}		; (ldr fp, [sp], #4)
20033e10:	e12fff1e 	bx	lr

20033e14 <sil_wrw_mem>:
20033e14:	e52db004 	push	{fp}		; (str fp, [sp, #-4]!)
20033e18:	e28db000 	add	fp, sp, #0
20033e1c:	e24dd00c 	sub	sp, sp, #12
20033e20:	e50b0008 	str	r0, [fp, #-8]
20033e24:	e50b100c 	str	r1, [fp, #-12]
20033e28:	e51b3008 	ldr	r3, [fp, #-8]
20033e2c:	e51b200c 	ldr	r2, [fp, #-12]
20033e30:	e5832000 	str	r2, [r3]
20033e34:	e28bd000 	add	sp, fp, #0
20033e38:	e49db004 	pop	{fp}		; (ldr fp, [sp], #4)
20033e3c:	e12fff1e 	bx	lr

20033e40 <uart_pl011_getready>:
20033e40:	e92d4800 	push	{fp, lr}
20033e44:	e28db004 	add	fp, sp, #4
20033e48:	e24dd008 	sub	sp, sp, #8
20033e4c:	e50b0008 	str	r0, [fp, #-8]
20033e50:	e51b3008 	ldr	r3, [fp, #-8]
20033e54:	e5933000 	ldr	r3, [r3]
20033e58:	e5933008 	ldr	r3, [r3, #8]
20033e5c:	e1a00003 	mov	r0, r3
20033e60:	ebffffdf 	bl	20033de4 <sil_rew_mem>
20033e64:	e1a03000 	mov	r3, r0
20033e68:	e2033010 	and	r3, r3, #16
20033e6c:	e3530000 	cmp	r3, #0
20033e70:	13a03000 	movne	r3, #0
20033e74:	03a03001 	moveq	r3, #1
20033e78:	e1a00003 	mov	r0, r3
20033e7c:	e24bd004 	sub	sp, fp, #4
20033e80:	e8bd8800 	pop	{fp, pc}

20033e84 <uart_pl011_putready>:
20033e84:	e92d4800 	push	{fp, lr}
20033e88:	e28db004 	add	fp, sp, #4
20033e8c:	e24dd008 	sub	sp, sp, #8
20033e90:	e50b0008 	str	r0, [fp, #-8]
20033e94:	e51b3008 	ldr	r3, [fp, #-8]
20033e98:	e5933000 	ldr	r3, [r3]
20033e9c:	e5933008 	ldr	r3, [r3, #8]
20033ea0:	e1a00003 	mov	r0, r3
20033ea4:	ebffffce 	bl	20033de4 <sil_rew_mem>
20033ea8:	e1a03000 	mov	r3, r0
20033eac:	e2033020 	and	r3, r3, #32
20033eb0:	e3530000 	cmp	r3, #0
20033eb4:	13a03000 	movne	r3, #0
20033eb8:	03a03001 	moveq	r3, #1
20033ebc:	e1a00003 	mov	r0, r3
20033ec0:	e24bd004 	sub	sp, fp, #4
20033ec4:	e8bd8800 	pop	{fp, pc}

20033ec8 <uart_pl011_getchar>:
20033ec8:	e92d4800 	push	{fp, lr}
20033ecc:	e28db004 	add	fp, sp, #4
20033ed0:	e24dd008 	sub	sp, sp, #8
20033ed4:	e50b0008 	str	r0, [fp, #-8]
20033ed8:	e51b3008 	ldr	r3, [fp, #-8]
20033edc:	e5933000 	ldr	r3, [r3]
20033ee0:	e5933000 	ldr	r3, [r3]
20033ee4:	e1a00003 	mov	r0, r3
20033ee8:	ebffffbd 	bl	20033de4 <sil_rew_mem>
20033eec:	e1a03000 	mov	r3, r0
20033ef0:	e6ef3073 	uxtb	r3, r3
20033ef4:	e1a00003 	mov	r0, r3
20033ef8:	e24bd004 	sub	sp, fp, #4
20033efc:	e8bd8800 	pop	{fp, pc}

20033f00 <uart_pl011_putchar>:
20033f00:	e92d4800 	push	{fp, lr}
20033f04:	e28db004 	add	fp, sp, #4
20033f08:	e24dd008 	sub	sp, sp, #8
20033f0c:	e50b0008 	str	r0, [fp, #-8]
20033f10:	e1a03001 	mov	r3, r1
20033f14:	e54b3009 	strb	r3, [fp, #-9]
20033f18:	e51b3008 	ldr	r3, [fp, #-8]
20033f1c:	e5933000 	ldr	r3, [r3]
20033f20:	e5932000 	ldr	r2, [r3]
20033f24:	e55b3009 	ldrb	r3, [fp, #-9]
20033f28:	e1a00002 	mov	r0, r2
20033f2c:	e1a01003 	mov	r1, r3
20033f30:	ebffffb7 	bl	20033e14 <sil_wrw_mem>
20033f34:	e24bd004 	sub	sp, fp, #4
20033f38:	e8bd8800 	pop	{fp, pc}

20033f3c <uart_pl011_enable_send>:
20033f3c:	e92d4810 	push	{r4, fp, lr}
20033f40:	e28db008 	add	fp, sp, #8
20033f44:	e24dd00c 	sub	sp, sp, #12
20033f48:	e50b0010 	str	r0, [fp, #-16]
20033f4c:	e51b3010 	ldr	r3, [fp, #-16]
20033f50:	e5933000 	ldr	r3, [r3]
20033f54:	e5934024 	ldr	r4, [r3, #36]	; 0x24
20033f58:	e51b3010 	ldr	r3, [fp, #-16]
20033f5c:	e5933000 	ldr	r3, [r3]
20033f60:	e5933024 	ldr	r3, [r3, #36]	; 0x24
20033f64:	e1a00003 	mov	r0, r3
20033f68:	ebffff9d 	bl	20033de4 <sil_rew_mem>
20033f6c:	e1a03000 	mov	r3, r0
20033f70:	e3833020 	orr	r3, r3, #32
20033f74:	e1a00004 	mov	r0, r4
20033f78:	e1a01003 	mov	r1, r3
20033f7c:	ebffffa4 	bl	20033e14 <sil_wrw_mem>
20033f80:	e24bd008 	sub	sp, fp, #8
20033f84:	e8bd8810 	pop	{r4, fp, pc}

20033f88 <uart_pl011_disable_send>:
20033f88:	e92d4810 	push	{r4, fp, lr}
20033f8c:	e28db008 	add	fp, sp, #8
20033f90:	e24dd00c 	sub	sp, sp, #12
20033f94:	e50b0010 	str	r0, [fp, #-16]
20033f98:	e51b3010 	ldr	r3, [fp, #-16]
20033f9c:	e5933000 	ldr	r3, [r3]
20033fa0:	e5934024 	ldr	r4, [r3, #36]	; 0x24
20033fa4:	e51b3010 	ldr	r3, [fp, #-16]
20033fa8:	e5933000 	ldr	r3, [r3]
20033fac:	e5933024 	ldr	r3, [r3, #36]	; 0x24
20033fb0:	e1a00003 	mov	r0, r3
20033fb4:	ebffff8a 	bl	20033de4 <sil_rew_mem>
20033fb8:	e1a03000 	mov	r3, r0
20033fbc:	e3c33020 	bic	r3, r3, #32
20033fc0:	e1a00004 	mov	r0, r4
20033fc4:	e1a01003 	mov	r1, r3
20033fc8:	ebffff91 	bl	20033e14 <sil_wrw_mem>
20033fcc:	e24bd008 	sub	sp, fp, #8
20033fd0:	e8bd8810 	pop	{r4, fp, pc}

20033fd4 <uart_pl011_enable_rcv>:
20033fd4:	e92d4810 	push	{r4, fp, lr}
20033fd8:	e28db008 	add	fp, sp, #8
20033fdc:	e24dd00c 	sub	sp, sp, #12
20033fe0:	e50b0010 	str	r0, [fp, #-16]
20033fe4:	e51b3010 	ldr	r3, [fp, #-16]
20033fe8:	e5933000 	ldr	r3, [r3]
20033fec:	e5934024 	ldr	r4, [r3, #36]	; 0x24
20033ff0:	e51b3010 	ldr	r3, [fp, #-16]
20033ff4:	e5933000 	ldr	r3, [r3]
20033ff8:	e5933024 	ldr	r3, [r3, #36]	; 0x24
20033ffc:	e1a00003 	mov	r0, r3
20034000:	ebffff77 	bl	20033de4 <sil_rew_mem>
20034004:	e1a03000 	mov	r3, r0
20034008:	e3833010 	orr	r3, r3, #16
2003400c:	e1a00004 	mov	r0, r4
20034010:	e1a01003 	mov	r1, r3
20034014:	ebffff7e 	bl	20033e14 <sil_wrw_mem>
20034018:	e24bd008 	sub	sp, fp, #8
2003401c:	e8bd8810 	pop	{r4, fp, pc}

20034020 <uart_pl011_disable_rcv>:
20034020:	e92d4810 	push	{r4, fp, lr}
20034024:	e28db008 	add	fp, sp, #8
20034028:	e24dd00c 	sub	sp, sp, #12
2003402c:	e50b0010 	str	r0, [fp, #-16]
20034030:	e51b3010 	ldr	r3, [fp, #-16]
20034034:	e5933000 	ldr	r3, [r3]
20034038:	e5934024 	ldr	r4, [r3, #36]	; 0x24
2003403c:	e51b3010 	ldr	r3, [fp, #-16]
20034040:	e5933000 	ldr	r3, [r3]
20034044:	e5933024 	ldr	r3, [r3, #36]	; 0x24
20034048:	e1a00003 	mov	r0, r3
2003404c:	ebffff64 	bl	20033de4 <sil_rew_mem>
20034050:	e1a03000 	mov	r3, r0
20034054:	e3c33010 	bic	r3, r3, #16
20034058:	e1a00004 	mov	r0, r4
2003405c:	e1a01003 	mov	r1, r3
20034060:	ebffff6b 	bl	20033e14 <sil_wrw_mem>
20034064:	e24bd008 	sub	sp, fp, #8
20034068:	e8bd8810 	pop	{r4, fp, pc}

2003406c <uart_pl011_initialize>:
2003406c:	e52db004 	push	{fp}		; (str fp, [sp, #-4]!)
20034070:	e28db000 	add	fp, sp, #0
20034074:	e24dd00c 	sub	sp, sp, #12
20034078:	e3013fb0 	movw	r3, #8112	; 0x1fb0
2003407c:	e3423004 	movt	r3, #8196	; 0x2004
20034080:	e50b3008 	str	r3, [fp, #-8]
20034084:	e3a03000 	mov	r3, #0
20034088:	e50b300c 	str	r3, [fp, #-12]
2003408c:	ea000016 	b	200340ec <uart_pl011_initialize+0x80>
20034090:	e51b200c 	ldr	r2, [fp, #-12]
20034094:	e1a03002 	mov	r3, r2
20034098:	e1a03203 	lsl	r3, r3, #4
2003409c:	e0623003 	rsb	r3, r2, r3
200340a0:	e1a03103 	lsl	r3, r3, #2
200340a4:	e1a02003 	mov	r2, r3
200340a8:	e30b3204 	movw	r3, #45572	; 0xb204
200340ac:	e3423003 	movt	r3, #8195	; 0x2003
200340b0:	e0822003 	add	r2, r2, r3
200340b4:	e51b3008 	ldr	r3, [fp, #-8]
200340b8:	e5832000 	str	r2, [r3]
200340bc:	e51b3008 	ldr	r3, [fp, #-8]
200340c0:	e3a02000 	mov	r2, #0
200340c4:	e5832008 	str	r2, [r3, #8]
200340c8:	e51b3008 	ldr	r3, [fp, #-8]
200340cc:	e3a02000 	mov	r2, #0
200340d0:	e583200c 	str	r2, [r3, #12]
200340d4:	e51b3008 	ldr	r3, [fp, #-8]
200340d8:	e2833018 	add	r3, r3, #24
200340dc:	e50b3008 	str	r3, [fp, #-8]
200340e0:	e51b300c 	ldr	r3, [fp, #-12]
200340e4:	e2833001 	add	r3, r3, #1
200340e8:	e50b300c 	str	r3, [fp, #-12]
200340ec:	e51b300c 	ldr	r3, [fp, #-12]
200340f0:	e3530001 	cmp	r3, #1
200340f4:	9affffe5 	bls	20034090 <uart_pl011_initialize+0x24>
200340f8:	e28bd000 	add	sp, fp, #0
200340fc:	e49db004 	pop	{fp}		; (ldr fp, [sp], #4)
20034100:	e12fff1e 	bx	lr

20034104 <uart_pl011_openflag>:
20034104:	e52db004 	push	{fp}		; (str fp, [sp, #-4]!)
20034108:	e28db000 	add	fp, sp, #0
2003410c:	e24dd014 	sub	sp, sp, #20
20034110:	e50b0010 	str	r0, [fp, #-16]
20034114:	e51b3010 	ldr	r3, [fp, #-16]
20034118:	e2432001 	sub	r2, r3, #1
2003411c:	e1a03002 	mov	r3, r2
20034120:	e1a03083 	lsl	r3, r3, #1
20034124:	e0833002 	add	r3, r3, r2
20034128:	e1a03183 	lsl	r3, r3, #3
2003412c:	e1a02003 	mov	r2, r3
20034130:	e3013fb0 	movw	r3, #8112	; 0x1fb0
20034134:	e3423004 	movt	r3, #8196	; 0x2004
20034138:	e0823003 	add	r3, r2, r3
2003413c:	e50b3008 	str	r3, [fp, #-8]
20034140:	e51b3008 	ldr	r3, [fp, #-8]
20034144:	e5933008 	ldr	r3, [r3, #8]
20034148:	e1a00003 	mov	r0, r3
2003414c:	e28bd000 	add	sp, fp, #0
20034150:	e49db004 	pop	{fp}		; (ldr fp, [sp], #4)
20034154:	e12fff1e 	bx	lr

20034158 <uart_pl011_opn_por>:
20034158:	e92d4800 	push	{fp, lr}
2003415c:	e28db004 	add	fp, sp, #4
20034160:	e24dd010 	sub	sp, sp, #16
20034164:	e50b0010 	str	r0, [fp, #-16]
20034168:	e50b1014 	str	r1, [fp, #-20]	; 0xffffffec
2003416c:	e51b3010 	ldr	r3, [fp, #-16]
20034170:	e2432001 	sub	r2, r3, #1
20034174:	e1a03002 	mov	r3, r2
20034178:	e1a03083 	lsl	r3, r3, #1
2003417c:	e0833002 	add	r3, r3, r2
20034180:	e1a03183 	lsl	r3, r3, #3
20034184:	e1a02003 	mov	r2, r3
20034188:	e3013fb0 	movw	r3, #8112	; 0x1fb0
2003418c:	e3423004 	movt	r3, #8196	; 0x2004
20034190:	e0823003 	add	r3, r2, r3
20034194:	e50b3008 	str	r3, [fp, #-8]
20034198:	e51b3008 	ldr	r3, [fp, #-8]
2003419c:	e5933000 	ldr	r3, [r3]
200341a0:	e50b300c 	str	r3, [fp, #-12]
200341a4:	e51b300c 	ldr	r3, [fp, #-12]
200341a8:	e5933010 	ldr	r3, [r3, #16]
200341ac:	e1a00003 	mov	r0, r3
200341b0:	e3a01027 	mov	r1, #39	; 0x27
200341b4:	ebffff16 	bl	20033e14 <sil_wrw_mem>
200341b8:	e51b300c 	ldr	r3, [fp, #-12]
200341bc:	e5933014 	ldr	r3, [r3, #20]
200341c0:	e1a00003 	mov	r0, r3
200341c4:	e3a01004 	mov	r1, #4
200341c8:	ebffff11 	bl	20033e14 <sil_wrw_mem>
200341cc:	e51b300c 	ldr	r3, [fp, #-12]
200341d0:	e593301c 	ldr	r3, [r3, #28]
200341d4:	e1a00003 	mov	r0, r3
200341d8:	e3001301 	movw	r1, #769	; 0x301
200341dc:	ebffff0c 	bl	20033e14 <sil_wrw_mem>
200341e0:	e51b300c 	ldr	r3, [fp, #-12]
200341e4:	e5933018 	ldr	r3, [r3, #24]
200341e8:	e1a00003 	mov	r0, r3
200341ec:	e3a01060 	mov	r1, #96	; 0x60
200341f0:	ebffff07 	bl	20033e14 <sil_wrw_mem>
200341f4:	e51b300c 	ldr	r3, [fp, #-12]
200341f8:	e5933020 	ldr	r3, [r3, #32]
200341fc:	e1a00003 	mov	r0, r3
20034200:	e3a01000 	mov	r1, #0
20034204:	ebffff02 	bl	20033e14 <sil_wrw_mem>
20034208:	e51b300c 	ldr	r3, [fp, #-12]
2003420c:	e5933024 	ldr	r3, [r3, #36]	; 0x24
20034210:	e1a00003 	mov	r0, r3
20034214:	e3a01000 	mov	r1, #0
20034218:	ebfffefd 	bl	20033e14 <sil_wrw_mem>
2003421c:	e51b3008 	ldr	r3, [fp, #-8]
20034220:	e51b2014 	ldr	r2, [fp, #-20]	; 0xffffffec
20034224:	e5832004 	str	r2, [r3, #4]
20034228:	e51b3008 	ldr	r3, [fp, #-8]
2003422c:	e3a02000 	mov	r2, #0
20034230:	e5832014 	str	r2, [r3, #20]
20034234:	e51b3008 	ldr	r3, [fp, #-8]
20034238:	e5932014 	ldr	r2, [r3, #20]
2003423c:	e51b3008 	ldr	r3, [fp, #-8]
20034240:	e5832010 	str	r2, [r3, #16]
20034244:	e51b3008 	ldr	r3, [fp, #-8]
20034248:	e3a02001 	mov	r2, #1
2003424c:	e5832008 	str	r2, [r3, #8]
20034250:	e51b3008 	ldr	r3, [fp, #-8]
20034254:	e1a00003 	mov	r0, r3
20034258:	e24bd004 	sub	sp, fp, #4
2003425c:	e8bd8800 	pop	{fp, pc}

20034260 <uart_pl011_cls_por>:
20034260:	e52db004 	push	{fp}		; (str fp, [sp, #-4]!)
20034264:	e28db000 	add	fp, sp, #0
20034268:	e24dd00c 	sub	sp, sp, #12
2003426c:	e50b0008 	str	r0, [fp, #-8]
20034270:	e51b3008 	ldr	r3, [fp, #-8]
20034274:	e3a02000 	mov	r2, #0
20034278:	e5832008 	str	r2, [r3, #8]
2003427c:	e28bd000 	add	sp, fp, #0
20034280:	e49db004 	pop	{fp}		; (ldr fp, [sp], #4)
20034284:	e12fff1e 	bx	lr

20034288 <uart_pl011_snd_chr>:
20034288:	e92d4800 	push	{fp, lr}
2003428c:	e28db004 	add	fp, sp, #4
20034290:	e24dd008 	sub	sp, sp, #8
20034294:	e50b0008 	str	r0, [fp, #-8]
20034298:	e1a03001 	mov	r3, r1
2003429c:	e54b3009 	strb	r3, [fp, #-9]
200342a0:	e51b0008 	ldr	r0, [fp, #-8]
200342a4:	ebfffef6 	bl	20033e84 <uart_pl011_putready>
200342a8:	e1a03000 	mov	r3, r0
200342ac:	e3530000 	cmp	r3, #0
200342b0:	0a000005 	beq	200342cc <uart_pl011_snd_chr+0x44>
200342b4:	e55b3009 	ldrb	r3, [fp, #-9]
200342b8:	e51b0008 	ldr	r0, [fp, #-8]
200342bc:	e1a01003 	mov	r1, r3
200342c0:	ebffff0e 	bl	20033f00 <uart_pl011_putchar>
200342c4:	e3a03001 	mov	r3, #1
200342c8:	ea000000 	b	200342d0 <uart_pl011_snd_chr+0x48>
200342cc:	e3a03000 	mov	r3, #0
200342d0:	e1a00003 	mov	r0, r3
200342d4:	e24bd004 	sub	sp, fp, #4
200342d8:	e8bd8800 	pop	{fp, pc}

200342dc <uart_pl011_rcv_chr>:
200342dc:	e92d4800 	push	{fp, lr}
200342e0:	e28db004 	add	fp, sp, #4
200342e4:	e24dd008 	sub	sp, sp, #8
200342e8:	e50b0008 	str	r0, [fp, #-8]
200342ec:	e51b0008 	ldr	r0, [fp, #-8]
200342f0:	ebfffed2 	bl	20033e40 <uart_pl011_getready>
200342f4:	e1a03000 	mov	r3, r0
200342f8:	e3530000 	cmp	r3, #0
200342fc:	0a000003 	beq	20034310 <uart_pl011_rcv_chr+0x34>
20034300:	e51b0008 	ldr	r0, [fp, #-8]
20034304:	ebfffeef 	bl	20033ec8 <uart_pl011_getchar>
20034308:	e1a03000 	mov	r3, r0
2003430c:	ea000000 	b	20034314 <uart_pl011_rcv_chr+0x38>
20034310:	e3e03000 	mvn	r3, #0
20034314:	e1a00003 	mov	r0, r3
20034318:	e24bd004 	sub	sp, fp, #4
2003431c:	e8bd8800 	pop	{fp, pc}

20034320 <uart_pl011_ena_cbr>:
20034320:	e92d4800 	push	{fp, lr}
20034324:	e28db004 	add	fp, sp, #4
20034328:	e24dd008 	sub	sp, sp, #8
2003432c:	e50b0008 	str	r0, [fp, #-8]
20034330:	e50b100c 	str	r1, [fp, #-12]
20034334:	e51b300c 	ldr	r3, [fp, #-12]
20034338:	e3530001 	cmp	r3, #1
2003433c:	0a000002 	beq	2003434c <uart_pl011_ena_cbr+0x2c>
20034340:	e3530002 	cmp	r3, #2
20034344:	0a000003 	beq	20034358 <uart_pl011_ena_cbr+0x38>
20034348:	ea000005 	b	20034364 <uart_pl011_ena_cbr+0x44>
2003434c:	e51b0008 	ldr	r0, [fp, #-8]
20034350:	ebfffef9 	bl	20033f3c <uart_pl011_enable_send>
20034354:	ea000002 	b	20034364 <uart_pl011_ena_cbr+0x44>
20034358:	e51b0008 	ldr	r0, [fp, #-8]
2003435c:	ebffff1c 	bl	20033fd4 <uart_pl011_enable_rcv>
20034360:	e1a00000 	nop			; (mov r0, r0)
20034364:	e24bd004 	sub	sp, fp, #4
20034368:	e8bd8800 	pop	{fp, pc}

2003436c <uart_pl011_dis_cbr>:
2003436c:	e92d4800 	push	{fp, lr}
20034370:	e28db004 	add	fp, sp, #4
20034374:	e24dd008 	sub	sp, sp, #8
20034378:	e50b0008 	str	r0, [fp, #-8]
2003437c:	e50b100c 	str	r1, [fp, #-12]
20034380:	e51b300c 	ldr	r3, [fp, #-12]
20034384:	e3530001 	cmp	r3, #1
20034388:	0a000002 	beq	20034398 <uart_pl011_dis_cbr+0x2c>
2003438c:	e3530002 	cmp	r3, #2
20034390:	0a000003 	beq	200343a4 <uart_pl011_dis_cbr+0x38>
20034394:	ea000005 	b	200343b0 <uart_pl011_dis_cbr+0x44>
20034398:	e51b0008 	ldr	r0, [fp, #-8]
2003439c:	ebfffef9 	bl	20033f88 <uart_pl011_disable_send>
200343a0:	ea000002 	b	200343b0 <uart_pl011_dis_cbr+0x44>
200343a4:	e51b0008 	ldr	r0, [fp, #-8]
200343a8:	ebffff1c 	bl	20034020 <uart_pl011_disable_rcv>
200343ac:	e1a00000 	nop			; (mov r0, r0)
200343b0:	e24bd004 	sub	sp, fp, #4
200343b4:	e8bd8800 	pop	{fp, pc}

200343b8 <uart_pl011_isr_siop>:
200343b8:	e92d4800 	push	{fp, lr}
200343bc:	e28db004 	add	fp, sp, #4
200343c0:	e24dd008 	sub	sp, sp, #8
200343c4:	e50b0008 	str	r0, [fp, #-8]
200343c8:	e51b0008 	ldr	r0, [fp, #-8]
200343cc:	ebfffe9b 	bl	20033e40 <uart_pl011_getready>
200343d0:	e1a03000 	mov	r3, r0
200343d4:	e3530000 	cmp	r3, #0
200343d8:	0a000003 	beq	200343ec <uart_pl011_isr_siop+0x34>
200343dc:	e51b3008 	ldr	r3, [fp, #-8]
200343e0:	e5933004 	ldr	r3, [r3, #4]
200343e4:	e1a00003 	mov	r0, r3
200343e8:	ebfffe75 	bl	20033dc4 <uart_pl011_ierdy_rcv>
200343ec:	e51b0008 	ldr	r0, [fp, #-8]
200343f0:	ebfffea3 	bl	20033e84 <uart_pl011_putready>
200343f4:	e1a03000 	mov	r3, r0
200343f8:	e3530000 	cmp	r3, #0
200343fc:	0a000003 	beq	20034410 <uart_pl011_isr_siop+0x58>
20034400:	e51b3008 	ldr	r3, [fp, #-8]
20034404:	e5933004 	ldr	r3, [r3, #4]
20034408:	e1a00003 	mov	r0, r3
2003440c:	ebfffe64 	bl	20033da4 <uart_pl011_ierdy_snd>
20034410:	e24bd004 	sub	sp, fp, #4
20034414:	e8bd8800 	pop	{fp, pc}

20034418 <uart_pl011_isr>:
20034418:	e92d4800 	push	{fp, lr}
2003441c:	e28db004 	add	fp, sp, #4
20034420:	e24dd008 	sub	sp, sp, #8
20034424:	e50b0008 	str	r0, [fp, #-8]
20034428:	e51b3008 	ldr	r3, [fp, #-8]
2003442c:	e2432001 	sub	r2, r3, #1
20034430:	e1a03002 	mov	r3, r2
20034434:	e1a03083 	lsl	r3, r3, #1
20034438:	e0833002 	add	r3, r3, r2
2003443c:	e1a03183 	lsl	r3, r3, #3
20034440:	e1a02003 	mov	r2, r3
20034444:	e3013fb0 	movw	r3, #8112	; 0x1fb0
20034448:	e3423004 	movt	r3, #8196	; 0x2004
2003444c:	e0823003 	add	r3, r2, r3
20034450:	e1a00003 	mov	r0, r3
20034454:	ebffffd7 	bl	200343b8 <uart_pl011_isr_siop>
20034458:	e24bd004 	sub	sp, fp, #4
2003445c:	e8bd8800 	pop	{fp, pc}

20034460 <uart_pl011_get_irqno>:
20034460:	e52db004 	push	{fp}		; (str fp, [sp, #-4]!)
20034464:	e28db000 	add	fp, sp, #0
20034468:	e24dd00c 	sub	sp, sp, #12
2003446c:	e50b0008 	str	r0, [fp, #-8]
20034470:	e51b3008 	ldr	r3, [fp, #-8]
20034474:	e5933000 	ldr	r3, [r3]
20034478:	e5933038 	ldr	r3, [r3, #56]	; 0x38
2003447c:	e1a00003 	mov	r0, r3
20034480:	e28bd000 	add	sp, fp, #0
20034484:	e49db004 	pop	{fp}		; (ldr fp, [sp], #4)
20034488:	e12fff1e 	bx	lr

2003448c <pb1176_pbuffer_flash>:
2003448c:	e52db004 	push	{fp}		; (str fp, [sp, #-4]!)
20034490:	e28db000 	add	fp, sp, #0
20034494:	e3a03000 	mov	r3, #0
20034498:	ee073f95 	mcr	15, 0, r3, cr7, cr5, {4}
2003449c:	e28bd000 	add	sp, fp, #0
200344a0:	e49db004 	pop	{fp}		; (ldr fp, [sp], #4)
200344a4:	e12fff1e 	bx	lr

200344a8 <mmu_set_section>:
200344a8:	e92d0810 	push	{r4, fp}
200344ac:	e28db004 	add	fp, sp, #4
200344b0:	e24dd018 	sub	sp, sp, #24
200344b4:	e50b0010 	str	r0, [fp, #-16]
200344b8:	e50b1014 	str	r1, [fp, #-20]	; 0xffffffec
200344bc:	e54b2015 	strb	r2, [fp, #-21]	; 0xffffffeb
200344c0:	e54b3016 	strb	r3, [fp, #-22]	; 0xffffffea
200344c4:	ee124f10 	mrc	15, 0, r4, cr2, cr0, {0}
200344c8:	e50b4008 	str	r4, [fp, #-8]
200344cc:	e51b3008 	ldr	r3, [fp, #-8]
200344d0:	e3c33dff 	bic	r3, r3, #16320	; 0x3fc0
200344d4:	e3c3303f 	bic	r3, r3, #63	; 0x3f
200344d8:	e51b2010 	ldr	r2, [fp, #-16]
200344dc:	e1a02a22 	lsr	r2, r2, #20
200344e0:	e1a02102 	lsl	r2, r2, #2
200344e4:	e1833002 	orr	r3, r3, r2
200344e8:	e50b300c 	str	r3, [fp, #-12]
200344ec:	e55b3015 	ldrb	r3, [fp, #-21]	; 0xffffffeb
200344f0:	e1a03983 	lsl	r3, r3, #19
200344f4:	e1a02003 	mov	r2, r3
200344f8:	e51b3014 	ldr	r3, [fp, #-20]	; 0xffffffec
200344fc:	e1822003 	orr	r2, r2, r3
20034500:	e55b3016 	ldrb	r3, [fp, #-22]	; 0xffffffea
20034504:	e1a03803 	lsl	r3, r3, #16
20034508:	e1822003 	orr	r2, r2, r3
2003450c:	e5db3004 	ldrb	r3, [fp, #4]
20034510:	e1a03603 	lsl	r3, r3, #12
20034514:	e1822003 	orr	r2, r2, r3
20034518:	e5db3008 	ldrb	r3, [fp, #8]
2003451c:	e1a03503 	lsl	r3, r3, #10
20034520:	e1822003 	orr	r2, r2, r3
20034524:	e5db300c 	ldrb	r3, [fp, #12]
20034528:	e1a03183 	lsl	r3, r3, #3
2003452c:	e1822003 	orr	r2, r2, r3
20034530:	e5db3010 	ldrb	r3, [fp, #16]
20034534:	e1a03103 	lsl	r3, r3, #2
20034538:	e1823003 	orr	r3, r2, r3
2003453c:	e3832002 	orr	r2, r3, #2
20034540:	e51b300c 	ldr	r3, [fp, #-12]
20034544:	e5832000 	str	r2, [r3]
20034548:	e24bd004 	sub	sp, fp, #4
2003454c:	e8bd0810 	pop	{r4, fp}
20034550:	e12fff1e 	bx	lr

20034554 <mmu_map_memory>:
20034554:	e92d4800 	push	{fp, lr}
20034558:	e28db004 	add	fp, sp, #4
2003455c:	e24dd028 	sub	sp, sp, #40	; 0x28
20034560:	e50b0018 	str	r0, [fp, #-24]	; 0xffffffe8
20034564:	e51b3018 	ldr	r3, [fp, #-24]	; 0xffffffe8
20034568:	e5933008 	ldr	r3, [r3, #8]
2003456c:	e50b3008 	str	r3, [fp, #-8]
20034570:	e51b3018 	ldr	r3, [fp, #-24]	; 0xffffffe8
20034574:	e5933000 	ldr	r3, [r3]
20034578:	e50b300c 	str	r3, [fp, #-12]
2003457c:	e51b3018 	ldr	r3, [fp, #-24]	; 0xffffffe8
20034580:	e5933004 	ldr	r3, [r3, #4]
20034584:	e50b3010 	str	r3, [fp, #-16]
20034588:	e51b3008 	ldr	r3, [fp, #-8]
2003458c:	e243337f 	sub	r3, r3, #-67108863	; 0xfc000001
20034590:	e243363f 	sub	r3, r3, #66060288	; 0x3f00000
20034594:	e1a03a23 	lsr	r3, r3, #20
20034598:	e1a03a03 	lsl	r3, r3, #20
2003459c:	e50b3008 	str	r3, [fp, #-8]
200345a0:	ea00001b 	b	20034614 <mmu_map_memory+0xc0>
200345a4:	e51b3018 	ldr	r3, [fp, #-24]	; 0xffffffe8
200345a8:	e5d3200c 	ldrb	r2, [r3, #12]
200345ac:	e51b3018 	ldr	r3, [fp, #-24]	; 0xffffffe8
200345b0:	e5d3300d 	ldrb	r3, [r3, #13]
200345b4:	e51b1018 	ldr	r1, [fp, #-24]	; 0xffffffe8
200345b8:	e5d1e00e 	ldrb	lr, [r1, #14]
200345bc:	e51b1018 	ldr	r1, [fp, #-24]	; 0xffffffe8
200345c0:	e5d1c00f 	ldrb	ip, [r1, #15]
200345c4:	e51b1018 	ldr	r1, [fp, #-24]	; 0xffffffe8
200345c8:	e5d10010 	ldrb	r0, [r1, #16]
200345cc:	e51b1018 	ldr	r1, [fp, #-24]	; 0xffffffe8
200345d0:	e5d11011 	ldrb	r1, [r1, #17]
200345d4:	e58de000 	str	lr, [sp]
200345d8:	e58dc004 	str	ip, [sp, #4]
200345dc:	e58d0008 	str	r0, [sp, #8]
200345e0:	e58d100c 	str	r1, [sp, #12]
200345e4:	e51b000c 	ldr	r0, [fp, #-12]
200345e8:	e51b1010 	ldr	r1, [fp, #-16]
200345ec:	ebffffad 	bl	200344a8 <mmu_set_section>
200345f0:	e51b300c 	ldr	r3, [fp, #-12]
200345f4:	e2833601 	add	r3, r3, #1048576	; 0x100000
200345f8:	e50b300c 	str	r3, [fp, #-12]
200345fc:	e51b3010 	ldr	r3, [fp, #-16]
20034600:	e2833601 	add	r3, r3, #1048576	; 0x100000
20034604:	e50b3010 	str	r3, [fp, #-16]
20034608:	e51b3008 	ldr	r3, [fp, #-8]
2003460c:	e2433601 	sub	r3, r3, #1048576	; 0x100000
20034610:	e50b3008 	str	r3, [fp, #-8]
20034614:	e51b3008 	ldr	r3, [fp, #-8]
20034618:	e3530000 	cmp	r3, #0
2003461c:	1affffe0 	bne	200345a4 <mmu_map_memory+0x50>
20034620:	e24bd004 	sub	sp, fp, #4
20034624:	e8bd8800 	pop	{fp, pc}

20034628 <pb1176_mmu_init>:
20034628:	e92d4810 	push	{r4, fp, lr}
2003462c:	e28db008 	add	fp, sp, #8
20034630:	e24dd01c 	sub	sp, sp, #28
20034634:	e3a03000 	mov	r3, #0
20034638:	e50b3010 	str	r3, [fp, #-16]
2003463c:	ebffff92 	bl	2003448c <pb1176_pbuffer_flash>
20034640:	e3a03000 	mov	r3, #0
20034644:	ee023f50 	mcr	15, 0, r3, cr2, cr0, {2}
20034648:	e3043000 	movw	r3, #16384	; 0x4000
2003464c:	e3423004 	movt	r3, #8196	; 0x2004
20034650:	e3833001 	orr	r3, r3, #1
20034654:	ee023f10 	mcr	15, 0, r3, cr2, cr0, {0}
20034658:	ebffff8b 	bl	2003448c <pb1176_pbuffer_flash>
2003465c:	e3a03000 	mov	r3, #0
20034660:	e50b3020 	str	r3, [fp, #-32]	; 0xffffffe0
20034664:	e51b3020 	ldr	r3, [fp, #-32]	; 0xffffffe0
20034668:	e50b3024 	str	r3, [fp, #-36]	; 0xffffffdc
2003466c:	e3a03102 	mov	r3, #-2147483648	; 0x80000000
20034670:	e50b301c 	str	r3, [fp, #-28]	; 0xffffffe4
20034674:	e3a03000 	mov	r3, #0
20034678:	e54b3018 	strb	r3, [fp, #-24]	; 0xffffffe8
2003467c:	e3a03000 	mov	r3, #0
20034680:	e54b3017 	strb	r3, [fp, #-23]	; 0xffffffe9
20034684:	e3a03003 	mov	r3, #3
20034688:	e54b3015 	strb	r3, [fp, #-21]	; 0xffffffeb
2003468c:	e3a03000 	mov	r3, #0
20034690:	e54b3016 	strb	r3, [fp, #-22]	; 0xffffffea
20034694:	e3a03000 	mov	r3, #0
20034698:	e54b3014 	strb	r3, [fp, #-20]	; 0xffffffec
2003469c:	e3a03000 	mov	r3, #0
200346a0:	e54b3013 	strb	r3, [fp, #-19]	; 0xffffffed
200346a4:	e24b3024 	sub	r3, fp, #36	; 0x24
200346a8:	e1a00003 	mov	r0, r3
200346ac:	ebffffa8 	bl	20034554 <mmu_map_memory>
200346b0:	e3a03000 	mov	r3, #0
200346b4:	e3413030 	movt	r3, #4144	; 0x1030
200346b8:	e50b3020 	str	r3, [fp, #-32]	; 0xffffffe0
200346bc:	e51b3020 	ldr	r3, [fp, #-32]	; 0xffffffe0
200346c0:	e50b3024 	str	r3, [fp, #-36]	; 0xffffffdc
200346c4:	e3a03602 	mov	r3, #2097152	; 0x200000
200346c8:	e50b301c 	str	r3, [fp, #-28]	; 0xffffffe4
200346cc:	e3a03001 	mov	r3, #1
200346d0:	e54b3014 	strb	r3, [fp, #-20]	; 0xffffffec
200346d4:	e3a03001 	mov	r3, #1
200346d8:	e54b3013 	strb	r3, [fp, #-19]	; 0xffffffed
200346dc:	e24b3024 	sub	r3, fp, #36	; 0x24
200346e0:	e1a00003 	mov	r0, r3
200346e4:	ebffff9a 	bl	20034554 <mmu_map_memory>
200346e8:	e3a03301 	mov	r3, #67108864	; 0x4000000
200346ec:	e50b3020 	str	r3, [fp, #-32]	; 0xffffffe0
200346f0:	e51b3020 	ldr	r3, [fp, #-32]	; 0xffffffe0
200346f4:	e50b3024 	str	r3, [fp, #-36]	; 0xffffffdc
200346f8:	e3a03601 	mov	r3, #1048576	; 0x100000
200346fc:	e50b301c 	str	r3, [fp, #-28]	; 0xffffffe4
20034700:	e3a03001 	mov	r3, #1
20034704:	e54b3018 	strb	r3, [fp, #-24]	; 0xffffffe8
20034708:	e3a03001 	mov	r3, #1
2003470c:	e54b3017 	strb	r3, [fp, #-23]	; 0xffffffe9
20034710:	e3a03003 	mov	r3, #3
20034714:	e54b3015 	strb	r3, [fp, #-21]	; 0xffffffeb
20034718:	e3a03001 	mov	r3, #1
2003471c:	e54b3016 	strb	r3, [fp, #-22]	; 0xffffffea
20034720:	e3a03000 	mov	r3, #0
20034724:	e54b3014 	strb	r3, [fp, #-20]	; 0xffffffec
20034728:	e3a03000 	mov	r3, #0
2003472c:	e54b3013 	strb	r3, [fp, #-19]	; 0xffffffed
20034730:	e3a03207 	mov	r3, #1879048192	; 0x70000000
20034734:	e50b3020 	str	r3, [fp, #-32]	; 0xffffffe0
20034738:	e51b3020 	ldr	r3, [fp, #-32]	; 0xffffffe0
2003473c:	e50b3024 	str	r3, [fp, #-36]	; 0xffffffdc
20034740:	e3a03601 	mov	r3, #1048576	; 0x100000
20034744:	e50b301c 	str	r3, [fp, #-28]	; 0xffffffe4
20034748:	e3a03001 	mov	r3, #1
2003474c:	e54b3018 	strb	r3, [fp, #-24]	; 0xffffffe8
20034750:	e3a03000 	mov	r3, #0
20034754:	e54b3017 	strb	r3, [fp, #-23]	; 0xffffffe9
20034758:	e3a03003 	mov	r3, #3
2003475c:	e54b3015 	strb	r3, [fp, #-21]	; 0xffffffeb
20034760:	e3a03001 	mov	r3, #1
20034764:	e54b3016 	strb	r3, [fp, #-22]	; 0xffffffea
20034768:	e3a03000 	mov	r3, #0
2003476c:	e54b3014 	strb	r3, [fp, #-20]	; 0xffffffec
20034770:	e3a03000 	mov	r3, #0
20034774:	e54b3013 	strb	r3, [fp, #-19]	; 0xffffffed
20034778:	e24b3024 	sub	r3, fp, #36	; 0x24
2003477c:	e1a00003 	mov	r0, r3
20034780:	ebffff73 	bl	20034554 <mmu_map_memory>
20034784:	e3a03001 	mov	r3, #1
20034788:	ee033f10 	mcr	15, 0, r3, cr3, cr0, {0}
2003478c:	ee114f10 	mrc	15, 0, r4, cr1, cr0, {0}
20034790:	e50b4010 	str	r4, [fp, #-16]
20034794:	e51b3010 	ldr	r3, [fp, #-16]
20034798:	e3833502 	orr	r3, r3, #8388608	; 0x800000
2003479c:	e3833001 	orr	r3, r3, #1
200347a0:	e50b3010 	str	r3, [fp, #-16]
200347a4:	e51b3010 	ldr	r3, [fp, #-16]
200347a8:	ee013f10 	mcr	15, 0, r3, cr1, cr0, {0}
200347ac:	e24bd008 	sub	sp, fp, #8
200347b0:	e8bd8810 	pop	{r4, fp, pc}

200347b4 <icache_enable>:
200347b4:	e92d0810 	push	{r4, fp}
200347b8:	e28db004 	add	fp, sp, #4
200347bc:	e24dd008 	sub	sp, sp, #8
200347c0:	e3a03000 	mov	r3, #0
200347c4:	e50b3008 	str	r3, [fp, #-8]
200347c8:	e3a03000 	mov	r3, #0
200347cc:	ee073f15 	mcr	15, 0, r3, cr7, cr5, {0}
200347d0:	e3a03000 	mov	r3, #0
200347d4:	ee073f15 	mcr	15, 0, r3, cr7, cr5, {0}
200347d8:	e3a03000 	mov	r3, #0
200347dc:	ee073f15 	mcr	15, 0, r3, cr7, cr5, {0}
200347e0:	e3a03000 	mov	r3, #0
200347e4:	ee073f15 	mcr	15, 0, r3, cr7, cr5, {0}
200347e8:	e3a03000 	mov	r3, #0
200347ec:	ee073f15 	mcr	15, 0, r3, cr7, cr5, {0}
200347f0:	e3a03000 	mov	r3, #0
200347f4:	ee073f15 	mcr	15, 0, r3, cr7, cr5, {0}
200347f8:	e3a03000 	mov	r3, #0
200347fc:	ee073f15 	mcr	15, 0, r3, cr7, cr5, {0}
20034800:	e3a03000 	mov	r3, #0
20034804:	ee073f15 	mcr	15, 0, r3, cr7, cr5, {0}
20034808:	e3a03000 	mov	r3, #0
2003480c:	ee073f15 	mcr	15, 0, r3, cr7, cr5, {0}
20034810:	e3a03000 	mov	r3, #0
20034814:	ee073f15 	mcr	15, 0, r3, cr7, cr5, {0}
20034818:	ee114f10 	mrc	15, 0, r4, cr1, cr0, {0}
2003481c:	e50b4008 	str	r4, [fp, #-8]
20034820:	e51b3008 	ldr	r3, [fp, #-8]
20034824:	e3833a01 	orr	r3, r3, #4096	; 0x1000
20034828:	e50b3008 	str	r3, [fp, #-8]
2003482c:	e51b3008 	ldr	r3, [fp, #-8]
20034830:	ee013f10 	mcr	15, 0, r3, cr1, cr0, {0}
20034834:	e24bd004 	sub	sp, fp, #4
20034838:	e8bd0810 	pop	{r4, fp}
2003483c:	e12fff1e 	bx	lr

20034840 <dcache_enable>:
20034840:	e92d0810 	push	{r4, fp}
20034844:	e28db004 	add	fp, sp, #4
20034848:	e24dd008 	sub	sp, sp, #8
2003484c:	e3a03000 	mov	r3, #0
20034850:	e50b3008 	str	r3, [fp, #-8]
20034854:	e3a03000 	mov	r3, #0
20034858:	ee073f1e 	mcr	15, 0, r3, cr7, cr14, {0}
2003485c:	ee114f10 	mrc	15, 0, r4, cr1, cr0, {0}
20034860:	e50b4008 	str	r4, [fp, #-8]
20034864:	e51b3008 	ldr	r3, [fp, #-8]
20034868:	e3833004 	orr	r3, r3, #4
2003486c:	e50b3008 	str	r3, [fp, #-8]
20034870:	e51b3008 	ldr	r3, [fp, #-8]
20034874:	ee013f10 	mcr	15, 0, r3, cr1, cr0, {0}
20034878:	e24bd004 	sub	sp, fp, #4
2003487c:	e8bd0810 	pop	{r4, fp}
20034880:	e12fff1e 	bx	lr

20034884 <pb1176_cache_init>:
20034884:	e92d4800 	push	{fp, lr}
20034888:	e28db004 	add	fp, sp, #4
2003488c:	ebffffeb 	bl	20034840 <dcache_enable>
20034890:	ebffffc7 	bl	200347b4 <icache_enable>
20034894:	e8bd8800 	pop	{fp, pc}

20034898 <_syslog_1>:
20034898:	e92d4800 	push	{fp, lr}
2003489c:	e28db004 	add	fp, sp, #4
200348a0:	e24dd040 	sub	sp, sp, #64	; 0x40
200348a4:	e50b0038 	str	r0, [fp, #-56]	; 0xffffffc8
200348a8:	e50b103c 	str	r1, [fp, #-60]	; 0xffffffc4
200348ac:	e50b2040 	str	r2, [fp, #-64]	; 0xffffffc0
200348b0:	e51b303c 	ldr	r3, [fp, #-60]	; 0xffffffc4
200348b4:	e50b3034 	str	r3, [fp, #-52]	; 0xffffffcc
200348b8:	e51b3040 	ldr	r3, [fp, #-64]	; 0xffffffc0
200348bc:	e50b302c 	str	r3, [fp, #-44]	; 0xffffffd4
200348c0:	e24b3034 	sub	r3, fp, #52	; 0x34
200348c4:	e51b0038 	ldr	r0, [fp, #-56]	; 0xffffffc8
200348c8:	e1a01003 	mov	r1, r3
200348cc:	ebffef4c 	bl	20030604 <syslog_wri_log>
200348d0:	e24bd004 	sub	sp, fp, #4
200348d4:	e8bd8800 	pop	{fp, pc}

200348d8 <_kernel_core_initialize>:
200348d8:	e52db004 	push	{fp}		; (str fp, [sp, #-4]!)
200348dc:	e28db000 	add	fp, sp, #0
200348e0:	e3043000 	movw	r3, #16384	; 0x4000
200348e4:	e3423005 	movt	r3, #8197	; 0x2005
200348e8:	e3a02001 	mov	r2, #1
200348ec:	e5832000 	str	r2, [r3]
200348f0:	e28bd000 	add	sp, fp, #0
200348f4:	e49db004 	pop	{fp}		; (ldr fp, [sp], #4)
200348f8:	e12fff1e 	bx	lr

200348fc <_kernel_core_terminate>:
200348fc:	e52db004 	push	{fp}		; (str fp, [sp, #-4]!)
20034900:	e28db000 	add	fp, sp, #0
20034904:	e28bd000 	add	sp, fp, #0
20034908:	e49db004 	pop	{fp}		; (ldr fp, [sp], #4)
2003490c:	e12fff1e 	bx	lr

20034910 <x_install_exc>:
20034910:	e52db004 	push	{fp}		; (str fp, [sp, #-4]!)
20034914:	e28db000 	add	fp, sp, #0
20034918:	e24dd00c 	sub	sp, sp, #12
2003491c:	e50b0008 	str	r0, [fp, #-8]
20034920:	e50b100c 	str	r1, [fp, #-12]
20034924:	e3003024 	movw	r3, #36	; 0x24
20034928:	e3423003 	movt	r3, #8195	; 0x2003
2003492c:	e5933000 	ldr	r3, [r3]
20034930:	e1a02003 	mov	r2, r3
20034934:	e51b3008 	ldr	r3, [fp, #-8]
20034938:	e1a03103 	lsl	r3, r3, #2
2003493c:	e0823003 	add	r3, r2, r3
20034940:	e51b200c 	ldr	r2, [fp, #-12]
20034944:	e5832000 	str	r2, [r3]
20034948:	e28bd000 	add	sp, fp, #0
2003494c:	e49db004 	pop	{fp}		; (ldr fp, [sp], #4)
20034950:	e12fff1e 	bx	lr

20034954 <_kernel_default_exc_handler>:
20034954:	e92d4800 	push	{fp, lr}
20034958:	e28db004 	add	fp, sp, #4
2003495c:	e30b327c 	movw	r3, #45692	; 0xb27c
20034960:	e3423003 	movt	r3, #8195	; 0x2003
20034964:	e3a00000 	mov	r0, #0
20034968:	e3a01001 	mov	r1, #1
2003496c:	e1a02003 	mov	r2, r3
20034970:	ebffffc8 	bl	20034898 <_syslog_1>
20034974:	eb000019 	bl	200349e0 <ext_ker>
20034978:	e8bd8800 	pop	{fp, pc}

2003497c <TOPPERS_disint>:
2003497c:	e92d0810 	push	{r4, fp}
20034980:	e28db004 	add	fp, sp, #4
20034984:	e24dd008 	sub	sp, sp, #8
20034988:	e10f4000 	mrs	r4, CPSR
2003498c:	e50b4008 	str	r4, [fp, #-8]
20034990:	e51b3008 	ldr	r3, [fp, #-8]
20034994:	e20330c0 	and	r3, r3, #192	; 0xc0
20034998:	e50b300c 	str	r3, [fp, #-12]
2003499c:	e51b3008 	ldr	r3, [fp, #-8]
200349a0:	e38330c0 	orr	r3, r3, #192	; 0xc0
200349a4:	e50b3008 	str	r3, [fp, #-8]
200349a8:	e51b3008 	ldr	r3, [fp, #-8]
200349ac:	e129f003 	msr	CPSR_fc, r3
200349b0:	e51b300c 	ldr	r3, [fp, #-12]
200349b4:	e1a00003 	mov	r0, r3
200349b8:	e24bd004 	sub	sp, fp, #4
200349bc:	e8bd0810 	pop	{r4, fp}
200349c0:	e12fff1e 	bx	lr

200349c4 <sta_ker>:
200349c4:	e52db004 	push	{fp}		; (str fp, [sp, #-4]!)
200349c8:	e28db000 	add	fp, sp, #0
200349cc:	e3013e90 	movw	r3, #7824	; 0x1e90
200349d0:	e3423004 	movt	r3, #8196	; 0x2004
200349d4:	e3a02001 	mov	r2, #1
200349d8:	e5832000 	str	r2, [r3]
200349dc:	eafffffe 	b	200349dc <sta_ker+0x18>

200349e0 <ext_ker>:
200349e0:	e92d4800 	push	{fp, lr}
200349e4:	e28db004 	add	fp, sp, #4
200349e8:	e24dd008 	sub	sp, sp, #8
200349ec:	ebffffe2 	bl	2003497c <TOPPERS_disint>
200349f0:	e50b0008 	str	r0, [fp, #-8]
200349f4:	e3013e90 	movw	r3, #7824	; 0x1e90
200349f8:	e3423004 	movt	r3, #8196	; 0x2004
200349fc:	e3a02000 	mov	r2, #0
20034a00:	e5832000 	str	r2, [r3]
20034a04:	ebfff9ce 	bl	20033144 <_kernel_call_exit_kernel>

20034a08 <_kernel_exit_kernel>:
20034a08:	e92d4800 	push	{fp, lr}
20034a0c:	e28db004 	add	fp, sp, #4
20034a10:	ebfff90c 	bl	20032e48 <_kernel_call_terrtn>
20034a14:	ebfffb88 	bl	2003383c <_kernel_target_exit>

20034a18 <TOPPERS_assert_abort>:
20034a18:	e52db004 	push	{fp}		; (str fp, [sp, #-4]!)
20034a1c:	e28db000 	add	fp, sp, #0
20034a20:	eafffffe 	b	20034a20 <TOPPERS_assert_abort+0x8>

20034a24 <_syslog_3>:
20034a24:	e92d4800 	push	{fp, lr}
20034a28:	e28db004 	add	fp, sp, #4
20034a2c:	e24dd040 	sub	sp, sp, #64	; 0x40
20034a30:	e50b0038 	str	r0, [fp, #-56]	; 0xffffffc8
20034a34:	e50b103c 	str	r1, [fp, #-60]	; 0xffffffc4
20034a38:	e50b2040 	str	r2, [fp, #-64]	; 0xffffffc0
20034a3c:	e50b3044 	str	r3, [fp, #-68]	; 0xffffffbc
20034a40:	e51b303c 	ldr	r3, [fp, #-60]	; 0xffffffc4
20034a44:	e50b3034 	str	r3, [fp, #-52]	; 0xffffffcc
20034a48:	e51b3040 	ldr	r3, [fp, #-64]	; 0xffffffc0
20034a4c:	e50b302c 	str	r3, [fp, #-44]	; 0xffffffd4
20034a50:	e51b3044 	ldr	r3, [fp, #-68]	; 0xffffffbc
20034a54:	e50b3028 	str	r3, [fp, #-40]	; 0xffffffd8
20034a58:	e59b3004 	ldr	r3, [fp, #4]
20034a5c:	e50b3024 	str	r3, [fp, #-36]	; 0xffffffdc
20034a60:	e24b3034 	sub	r3, fp, #52	; 0x34
20034a64:	e51b0038 	ldr	r0, [fp, #-56]	; 0xffffffc8
20034a68:	e1a01003 	mov	r1, r3
20034a6c:	ebffeee4 	bl	20030604 <syslog_wri_log>
20034a70:	e24bd004 	sub	sp, fp, #4
20034a74:	e8bd8800 	pop	{fp, pc}

20034a78 <sil_rew_mem>:
20034a78:	e52db004 	push	{fp}		; (str fp, [sp, #-4]!)
20034a7c:	e28db000 	add	fp, sp, #0
20034a80:	e24dd014 	sub	sp, sp, #20
20034a84:	e50b0010 	str	r0, [fp, #-16]
20034a88:	e51b3010 	ldr	r3, [fp, #-16]
20034a8c:	e5933000 	ldr	r3, [r3]
20034a90:	e50b3008 	str	r3, [fp, #-8]
20034a94:	e51b3008 	ldr	r3, [fp, #-8]
20034a98:	e1a00003 	mov	r0, r3
20034a9c:	e28bd000 	add	sp, fp, #0
20034aa0:	e49db004 	pop	{fp}		; (ldr fp, [sp], #4)
20034aa4:	e12fff1e 	bx	lr

20034aa8 <sil_wrw_mem>:
20034aa8:	e52db004 	push	{fp}		; (str fp, [sp, #-4]!)
20034aac:	e28db000 	add	fp, sp, #0
20034ab0:	e24dd00c 	sub	sp, sp, #12
20034ab4:	e50b0008 	str	r0, [fp, #-8]
20034ab8:	e50b100c 	str	r1, [fp, #-12]
20034abc:	e51b3008 	ldr	r3, [fp, #-8]
20034ac0:	e51b200c 	ldr	r2, [fp, #-12]
20034ac4:	e5832000 	str	r2, [r3]
20034ac8:	e28bd000 	add	sp, fp, #0
20034acc:	e49db004 	pop	{fp}		; (ldr fp, [sp], #4)
20034ad0:	e12fff1e 	bx	lr

20034ad4 <tzic_unlock>:
20034ad4:	e92d4800 	push	{fp, lr}
20034ad8:	e28db004 	add	fp, sp, #4
20034adc:	e30f001c 	movw	r0, #61468	; 0xf01c
20034ae0:	e3410011 	movt	r0, #4113	; 0x1011
20034ae4:	e30e1550 	movw	r1, #58704	; 0xe550
20034ae8:	e3401acc 	movt	r1, #2764	; 0xacc
20034aec:	ebffffed 	bl	20034aa8 <sil_wrw_mem>
20034af0:	e8bd8800 	pop	{fp, pc}

20034af4 <tzic_lock>:
20034af4:	e92d4800 	push	{fp, lr}
20034af8:	e28db004 	add	fp, sp, #4
20034afc:	e30f001c 	movw	r0, #61468	; 0xf01c
20034b00:	e3410011 	movt	r0, #4113	; 0x1011
20034b04:	e3a01000 	mov	r1, #0
20034b08:	ebffffe6 	bl	20034aa8 <sil_wrw_mem>
20034b0c:	e8bd8800 	pop	{fp, pc}

20034b10 <tzic_disable_int>:
20034b10:	e92d4800 	push	{fp, lr}
20034b14:	e28db004 	add	fp, sp, #4
20034b18:	e24dd008 	sub	sp, sp, #8
20034b1c:	e50b0008 	str	r0, [fp, #-8]
20034b20:	ebffffeb 	bl	20034ad4 <tzic_unlock>
20034b24:	e30f0010 	movw	r0, #61456	; 0xf010
20034b28:	e3410011 	movt	r0, #4113	; 0x1011
20034b2c:	ebffffd1 	bl	20034a78 <sil_rew_mem>
20034b30:	e1a02000 	mov	r2, r0
20034b34:	e51b3008 	ldr	r3, [fp, #-8]
20034b38:	e1823003 	orr	r3, r2, r3
20034b3c:	e30f0010 	movw	r0, #61456	; 0xf010
20034b40:	e3410011 	movt	r0, #4113	; 0x1011
20034b44:	e1a01003 	mov	r1, r3
20034b48:	ebffffd6 	bl	20034aa8 <sil_wrw_mem>
20034b4c:	ebffffe8 	bl	20034af4 <tzic_lock>
20034b50:	e24bd004 	sub	sp, fp, #4
20034b54:	e8bd8800 	pop	{fp, pc}

20034b58 <tzic_enable_int>:
20034b58:	e92d4800 	push	{fp, lr}
20034b5c:	e28db004 	add	fp, sp, #4
20034b60:	e24dd008 	sub	sp, sp, #8
20034b64:	e50b0008 	str	r0, [fp, #-8]
20034b68:	ebffffd9 	bl	20034ad4 <tzic_unlock>
20034b6c:	e30f000c 	movw	r0, #61452	; 0xf00c
20034b70:	e3410011 	movt	r0, #4113	; 0x1011
20034b74:	ebffffbf 	bl	20034a78 <sil_rew_mem>
20034b78:	e1a02000 	mov	r2, r0
20034b7c:	e51b3008 	ldr	r3, [fp, #-8]
20034b80:	e1823003 	orr	r3, r2, r3
20034b84:	e30f000c 	movw	r0, #61452	; 0xf00c
20034b88:	e3410011 	movt	r0, #4113	; 0x1011
20034b8c:	e1a01003 	mov	r1, r3
20034b90:	ebffffc4 	bl	20034aa8 <sil_wrw_mem>
20034b94:	ebffffd6 	bl	20034af4 <tzic_lock>
20034b98:	e24bd004 	sub	sp, fp, #4
20034b9c:	e8bd8800 	pop	{fp, pc}

20034ba0 <x_set_ipm>:
20034ba0:	e92d4800 	push	{fp, lr}
20034ba4:	e28db004 	add	fp, sp, #4
20034ba8:	e24dd010 	sub	sp, sp, #16
20034bac:	e50b0010 	str	r0, [fp, #-16]
20034bb0:	e51b3010 	ldr	r3, [fp, #-16]
20034bb4:	e3530000 	cmp	r3, #0
20034bb8:	1a000002 	bne	20034bc8 <x_set_ipm+0x28>
20034bbc:	e3a03000 	mov	r3, #0
20034bc0:	e50b3008 	str	r3, [fp, #-8]
20034bc4:	ea000005 	b	20034be0 <x_set_ipm+0x40>
20034bc8:	e51b3010 	ldr	r3, [fp, #-16]
20034bcc:	e1e02003 	mvn	r2, r3
20034bd0:	e30a3fec 	movw	r3, #45036	; 0xafec
20034bd4:	e3423003 	movt	r3, #8195	; 0x2003
20034bd8:	e7933102 	ldr	r3, [r3, r2, lsl #2]
20034bdc:	e50b3008 	str	r3, [fp, #-8]
20034be0:	e3e00000 	mvn	r0, #0
20034be4:	ebffffc9 	bl	20034b10 <tzic_disable_int>
20034be8:	e3013fac 	movw	r3, #8108	; 0x1fac
20034bec:	e3423004 	movt	r3, #8196	; 0x2004
20034bf0:	e5932000 	ldr	r2, [r3]
20034bf4:	e51b3008 	ldr	r3, [fp, #-8]
20034bf8:	e1823003 	orr	r3, r2, r3
20034bfc:	e1e03003 	mvn	r3, r3
20034c00:	e1a00003 	mov	r0, r3
20034c04:	ebffffd3 	bl	20034b58 <tzic_enable_int>
20034c08:	e3013fa8 	movw	r3, #8104	; 0x1fa8
20034c0c:	e3423004 	movt	r3, #8196	; 0x2004
20034c10:	e51b2010 	ldr	r2, [fp, #-16]
20034c14:	e5832000 	str	r2, [r3]
20034c18:	e24bd004 	sub	sp, fp, #4
20034c1c:	e8bd8800 	pop	{fp, pc}

20034c20 <x_get_ipm>:
20034c20:	e52db004 	push	{fp}		; (str fp, [sp, #-4]!)
20034c24:	e28db000 	add	fp, sp, #0
20034c28:	e3013fa8 	movw	r3, #8104	; 0x1fa8
20034c2c:	e3423004 	movt	r3, #8196	; 0x2004
20034c30:	e5933000 	ldr	r3, [r3]
20034c34:	e1a00003 	mov	r0, r3
20034c38:	e28bd000 	add	sp, fp, #0
20034c3c:	e49db004 	pop	{fp}		; (ldr fp, [sp], #4)
20034c40:	e12fff1e 	bx	lr

20034c44 <current_sr>:
20034c44:	e92d0810 	push	{r4, fp}
20034c48:	e28db004 	add	fp, sp, #4
20034c4c:	e24dd008 	sub	sp, sp, #8
20034c50:	e10f4000 	mrs	r4, CPSR
20034c54:	e50b4008 	str	r4, [fp, #-8]
20034c58:	e51b3008 	ldr	r3, [fp, #-8]
20034c5c:	e1a00003 	mov	r0, r3
20034c60:	e24bd004 	sub	sp, fp, #4
20034c64:	e8bd0810 	pop	{r4, fp}
20034c68:	e12fff1e 	bx	lr

20034c6c <set_sr>:
20034c6c:	e52db004 	push	{fp}		; (str fp, [sp, #-4]!)
20034c70:	e28db000 	add	fp, sp, #0
20034c74:	e24dd00c 	sub	sp, sp, #12
20034c78:	e50b0008 	str	r0, [fp, #-8]
20034c7c:	e51b3008 	ldr	r3, [fp, #-8]
20034c80:	e129f003 	msr	CPSR_fc, r3
20034c84:	e28bd000 	add	sp, fp, #0
20034c88:	e49db004 	pop	{fp}		; (ldr fp, [sp], #4)
20034c8c:	e12fff1e 	bx	lr

20034c90 <x_lock_cpu>:
20034c90:	e92d4800 	push	{fp, lr}
20034c94:	e28db004 	add	fp, sp, #4
20034c98:	ebffffe9 	bl	20034c44 <current_sr>
20034c9c:	e1a03000 	mov	r3, r0
20034ca0:	e38330c0 	orr	r3, r3, #192	; 0xc0
20034ca4:	e1a00003 	mov	r0, r3
20034ca8:	ebffffef 	bl	20034c6c <set_sr>
20034cac:	e8bd8800 	pop	{fp, pc}

20034cb0 <x_unlock_cpu>:
20034cb0:	e92d4800 	push	{fp, lr}
20034cb4:	e28db004 	add	fp, sp, #4
20034cb8:	ebffffe1 	bl	20034c44 <current_sr>
20034cbc:	e1a03000 	mov	r3, r0
20034cc0:	e3c330c0 	bic	r3, r3, #192	; 0xc0
20034cc4:	e3833080 	orr	r3, r3, #128	; 0x80
20034cc8:	e1a00003 	mov	r0, r3
20034ccc:	ebffffe6 	bl	20034c6c <set_sr>
20034cd0:	e8bd8800 	pop	{fp, pc}

20034cd4 <x_sense_lock>:
20034cd4:	e92d4800 	push	{fp, lr}
20034cd8:	e28db004 	add	fp, sp, #4
20034cdc:	ebffffd8 	bl	20034c44 <current_sr>
20034ce0:	e1a03000 	mov	r3, r0
20034ce4:	e20330c0 	and	r3, r3, #192	; 0xc0
20034ce8:	e35300c0 	cmp	r3, #192	; 0xc0
20034cec:	13a03000 	movne	r3, #0
20034cf0:	03a03001 	moveq	r3, #1
20034cf4:	e1a00003 	mov	r0, r3
20034cf8:	e8bd8800 	pop	{fp, pc}

20034cfc <queue_initialize>:
20034cfc:	e52db004 	push	{fp}		; (str fp, [sp, #-4]!)
20034d00:	e28db000 	add	fp, sp, #0
20034d04:	e24dd00c 	sub	sp, sp, #12
20034d08:	e50b0008 	str	r0, [fp, #-8]
20034d0c:	e51b3008 	ldr	r3, [fp, #-8]
20034d10:	e51b2008 	ldr	r2, [fp, #-8]
20034d14:	e5832000 	str	r2, [r3]
20034d18:	e51b3008 	ldr	r3, [fp, #-8]
20034d1c:	e5932000 	ldr	r2, [r3]
20034d20:	e51b3008 	ldr	r3, [fp, #-8]
20034d24:	e5832004 	str	r2, [r3, #4]
20034d28:	e28bd000 	add	sp, fp, #0
20034d2c:	e49db004 	pop	{fp}		; (ldr fp, [sp], #4)
20034d30:	e12fff1e 	bx	lr

20034d34 <queue_insert_prev>:
20034d34:	e52db004 	push	{fp}		; (str fp, [sp, #-4]!)
20034d38:	e28db000 	add	fp, sp, #0
20034d3c:	e24dd00c 	sub	sp, sp, #12
20034d40:	e50b0008 	str	r0, [fp, #-8]
20034d44:	e50b100c 	str	r1, [fp, #-12]
20034d48:	e51b3008 	ldr	r3, [fp, #-8]
20034d4c:	e5932004 	ldr	r2, [r3, #4]
20034d50:	e51b300c 	ldr	r3, [fp, #-12]
20034d54:	e5832004 	str	r2, [r3, #4]
20034d58:	e51b300c 	ldr	r3, [fp, #-12]
20034d5c:	e51b2008 	ldr	r2, [fp, #-8]
20034d60:	e5832000 	str	r2, [r3]
20034d64:	e51b3008 	ldr	r3, [fp, #-8]
20034d68:	e5933004 	ldr	r3, [r3, #4]
20034d6c:	e51b200c 	ldr	r2, [fp, #-12]
20034d70:	e5832000 	str	r2, [r3]
20034d74:	e51b3008 	ldr	r3, [fp, #-8]
20034d78:	e51b200c 	ldr	r2, [fp, #-12]
20034d7c:	e5832004 	str	r2, [r3, #4]
20034d80:	e28bd000 	add	sp, fp, #0
20034d84:	e49db004 	pop	{fp}		; (ldr fp, [sp], #4)
20034d88:	e12fff1e 	bx	lr

20034d8c <queue_delete>:
20034d8c:	e52db004 	push	{fp}		; (str fp, [sp, #-4]!)
20034d90:	e28db000 	add	fp, sp, #0
20034d94:	e24dd00c 	sub	sp, sp, #12
20034d98:	e50b0008 	str	r0, [fp, #-8]
20034d9c:	e51b3008 	ldr	r3, [fp, #-8]
20034da0:	e5933004 	ldr	r3, [r3, #4]
20034da4:	e51b2008 	ldr	r2, [fp, #-8]
20034da8:	e5922000 	ldr	r2, [r2]
20034dac:	e5832000 	str	r2, [r3]
20034db0:	e51b3008 	ldr	r3, [fp, #-8]
20034db4:	e5933000 	ldr	r3, [r3]
20034db8:	e51b2008 	ldr	r2, [fp, #-8]
20034dbc:	e5922004 	ldr	r2, [r2, #4]
20034dc0:	e5832004 	str	r2, [r3, #4]
20034dc4:	e28bd000 	add	sp, fp, #0
20034dc8:	e49db004 	pop	{fp}		; (ldr fp, [sp], #4)
20034dcc:	e12fff1e 	bx	lr

20034dd0 <queue_delete_next>:
20034dd0:	e92d4800 	push	{fp, lr}
20034dd4:	e28db004 	add	fp, sp, #4
20034dd8:	e24dd018 	sub	sp, sp, #24
20034ddc:	e50b0010 	str	r0, [fp, #-16]
20034de0:	e51b3010 	ldr	r3, [fp, #-16]
20034de4:	e5932000 	ldr	r2, [r3]
20034de8:	e51b3010 	ldr	r3, [fp, #-16]
20034dec:	e1520003 	cmp	r2, r3
20034df0:	1a00000a 	bne	20034e20 <queue_delete_next+0x50>
20034df4:	e30b329c 	movw	r3, #45724	; 0xb29c
20034df8:	e3423003 	movt	r3, #8195	; 0x2003
20034dfc:	e30b22b8 	movw	r2, #45752	; 0xb2b8
20034e00:	e3422003 	movt	r2, #8195	; 0x2003
20034e04:	e58d2000 	str	r2, [sp]
20034e08:	e3a00000 	mov	r0, #0
20034e0c:	e3a01002 	mov	r1, #2
20034e10:	e1a02003 	mov	r2, r3
20034e14:	e3a03086 	mov	r3, #134	; 0x86
20034e18:	ebffff01 	bl	20034a24 <_syslog_3>
20034e1c:	ebfffefd 	bl	20034a18 <TOPPERS_assert_abort>
20034e20:	e51b3010 	ldr	r3, [fp, #-16]
20034e24:	e5933000 	ldr	r3, [r3]
20034e28:	e50b3008 	str	r3, [fp, #-8]
20034e2c:	e51b3008 	ldr	r3, [fp, #-8]
20034e30:	e5932000 	ldr	r2, [r3]
20034e34:	e51b3010 	ldr	r3, [fp, #-16]
20034e38:	e5832000 	str	r2, [r3]
20034e3c:	e51b3008 	ldr	r3, [fp, #-8]
20034e40:	e5933000 	ldr	r3, [r3]
20034e44:	e51b2010 	ldr	r2, [fp, #-16]
20034e48:	e5832004 	str	r2, [r3, #4]
20034e4c:	e51b3008 	ldr	r3, [fp, #-8]
20034e50:	e1a00003 	mov	r0, r3
20034e54:	e24bd004 	sub	sp, fp, #4
20034e58:	e8bd8800 	pop	{fp, pc}

20034e5c <queue_empty>:
20034e5c:	e92d4800 	push	{fp, lr}
20034e60:	e28db004 	add	fp, sp, #4
20034e64:	e24dd010 	sub	sp, sp, #16
20034e68:	e50b0008 	str	r0, [fp, #-8]
20034e6c:	e51b3008 	ldr	r3, [fp, #-8]
20034e70:	e5932000 	ldr	r2, [r3]
20034e74:	e51b3008 	ldr	r3, [fp, #-8]
20034e78:	e1520003 	cmp	r2, r3
20034e7c:	1a000011 	bne	20034ec8 <queue_empty+0x6c>
20034e80:	e51b3008 	ldr	r3, [fp, #-8]
20034e84:	e5932004 	ldr	r2, [r3, #4]
20034e88:	e51b3008 	ldr	r3, [fp, #-8]
20034e8c:	e1520003 	cmp	r2, r3
20034e90:	0a00000a 	beq	20034ec0 <queue_empty+0x64>
20034e94:	e30b329c 	movw	r3, #45724	; 0xb29c
20034e98:	e3423003 	movt	r3, #8195	; 0x2003
20034e9c:	e30b22d4 	movw	r2, #45780	; 0xb2d4
20034ea0:	e3422003 	movt	r2, #8195	; 0x2003
20034ea4:	e58d2000 	str	r2, [sp]
20034ea8:	e3a00000 	mov	r0, #0
20034eac:	e3a01002 	mov	r1, #2
20034eb0:	e1a02003 	mov	r2, r3
20034eb4:	e3a03096 	mov	r3, #150	; 0x96
20034eb8:	ebfffed9 	bl	20034a24 <_syslog_3>
20034ebc:	ebfffed5 	bl	20034a18 <TOPPERS_assert_abort>
20034ec0:	e3a03001 	mov	r3, #1
20034ec4:	ea000000 	b	20034ecc <queue_empty+0x70>
20034ec8:	e3a03000 	mov	r3, #0
20034ecc:	e1a00003 	mov	r0, r3
20034ed0:	e24bd004 	sub	sp, fp, #4
20034ed4:	e8bd8800 	pop	{fp, pc}

20034ed8 <queue_insert_tpri>:
20034ed8:	e92d4800 	push	{fp, lr}
20034edc:	e28db004 	add	fp, sp, #4
20034ee0:	e24dd010 	sub	sp, sp, #16
20034ee4:	e50b0010 	str	r0, [fp, #-16]
20034ee8:	e50b1014 	str	r1, [fp, #-20]	; 0xffffffec
20034eec:	e51b3014 	ldr	r3, [fp, #-20]	; 0xffffffec
20034ef0:	e5d3300d 	ldrb	r3, [r3, #13]
20034ef4:	e50b300c 	str	r3, [fp, #-12]
20034ef8:	e51b3010 	ldr	r3, [fp, #-16]
20034efc:	e5933000 	ldr	r3, [r3]
20034f00:	e50b3008 	str	r3, [fp, #-8]
20034f04:	ea000008 	b	20034f2c <queue_insert_tpri+0x54>
20034f08:	e51b3008 	ldr	r3, [fp, #-8]
20034f0c:	e5d3300d 	ldrb	r3, [r3, #13]
20034f10:	e1a02003 	mov	r2, r3
20034f14:	e51b300c 	ldr	r3, [fp, #-12]
20034f18:	e1520003 	cmp	r2, r3
20034f1c:	8a000007 	bhi	20034f40 <queue_insert_tpri+0x68>
20034f20:	e51b3008 	ldr	r3, [fp, #-8]
20034f24:	e5933000 	ldr	r3, [r3]
20034f28:	e50b3008 	str	r3, [fp, #-8]
20034f2c:	e51b2008 	ldr	r2, [fp, #-8]
20034f30:	e51b3010 	ldr	r3, [fp, #-16]
20034f34:	e1520003 	cmp	r2, r3
20034f38:	1afffff2 	bne	20034f08 <queue_insert_tpri+0x30>
20034f3c:	ea000000 	b	20034f44 <queue_insert_tpri+0x6c>
20034f40:	e1a00000 	nop			; (mov r0, r0)
20034f44:	e51b3014 	ldr	r3, [fp, #-20]	; 0xffffffec
20034f48:	e51b0008 	ldr	r0, [fp, #-8]
20034f4c:	e1a01003 	mov	r1, r3
20034f50:	ebffff77 	bl	20034d34 <queue_insert_prev>
20034f54:	e24bd004 	sub	sp, fp, #4
20034f58:	e8bd8800 	pop	{fp, pc}

20034f5c <wobj_change_priority>:
20034f5c:	e92d4800 	push	{fp, lr}
20034f60:	e28db004 	add	fp, sp, #4
20034f64:	e24dd008 	sub	sp, sp, #8
20034f68:	e50b0008 	str	r0, [fp, #-8]
20034f6c:	e50b100c 	str	r1, [fp, #-12]
20034f70:	e51b3008 	ldr	r3, [fp, #-8]
20034f74:	e5933008 	ldr	r3, [r3, #8]
20034f78:	e5933000 	ldr	r3, [r3]
20034f7c:	e2033001 	and	r3, r3, #1
20034f80:	e6ef3073 	uxtb	r3, r3
20034f84:	e3530000 	cmp	r3, #0
20034f88:	0a000006 	beq	20034fa8 <wobj_change_priority+0x4c>
20034f8c:	e51b300c 	ldr	r3, [fp, #-12]
20034f90:	e1a00003 	mov	r0, r3
20034f94:	ebffff7c 	bl	20034d8c <queue_delete>
20034f98:	e51b3008 	ldr	r3, [fp, #-8]
20034f9c:	e1a00003 	mov	r0, r3
20034fa0:	e51b100c 	ldr	r1, [fp, #-12]
20034fa4:	ebffffcb 	bl	20034ed8 <queue_insert_tpri>
20034fa8:	e24bd004 	sub	sp, fp, #4
20034fac:	e8bd8800 	pop	{fp, pc}

20034fb0 <_kernel_initialize_task>:
20034fb0:	e92d4800 	push	{fp, lr}
20034fb4:	e28db004 	add	fp, sp, #4
20034fb8:	e24dd010 	sub	sp, sp, #16
20034fbc:	e3043004 	movw	r3, #16388	; 0x4004
20034fc0:	e3423005 	movt	r3, #8197	; 0x2005
20034fc4:	e3a02000 	mov	r2, #0
20034fc8:	e5832000 	str	r2, [r3]
20034fcc:	e3043004 	movw	r3, #16388	; 0x4004
20034fd0:	e3423005 	movt	r3, #8197	; 0x2005
20034fd4:	e5932000 	ldr	r2, [r3]
20034fd8:	e3043098 	movw	r3, #16536	; 0x4098
20034fdc:	e3423005 	movt	r3, #8197	; 0x2005
20034fe0:	e5832000 	str	r2, [r3]
20034fe4:	e3043008 	movw	r3, #16392	; 0x4008
20034fe8:	e3423005 	movt	r3, #8197	; 0x2005
20034fec:	e3a02000 	mov	r2, #0
20034ff0:	e5832000 	str	r2, [r3]
20034ff4:	e3043094 	movw	r3, #16532	; 0x4094
20034ff8:	e3423005 	movt	r3, #8197	; 0x2005
20034ffc:	e3a02000 	mov	r2, #0
20035000:	e5832000 	str	r2, [r3]
20035004:	e304308c 	movw	r3, #16524	; 0x408c
20035008:	e3423005 	movt	r3, #8197	; 0x2005
2003500c:	e3a02001 	mov	r2, #1
20035010:	e5832000 	str	r2, [r3]
20035014:	e3a03000 	mov	r3, #0
20035018:	e50b3008 	str	r3, [fp, #-8]
2003501c:	ea000009 	b	20035048 <_kernel_initialize_task+0x98>
20035020:	e51b3008 	ldr	r3, [fp, #-8]
20035024:	e1a02183 	lsl	r2, r3, #3
20035028:	e304300c 	movw	r3, #16396	; 0x400c
2003502c:	e3423005 	movt	r3, #8197	; 0x2005
20035030:	e0823003 	add	r3, r2, r3
20035034:	e1a00003 	mov	r0, r3
20035038:	ebffff2f 	bl	20034cfc <queue_initialize>
2003503c:	e51b3008 	ldr	r3, [fp, #-8]
20035040:	e2833001 	add	r3, r3, #1
20035044:	e50b3008 	str	r3, [fp, #-8]
20035048:	e51b3008 	ldr	r3, [fp, #-8]
2003504c:	e353000f 	cmp	r3, #15
20035050:	9afffff2 	bls	20035020 <_kernel_initialize_task+0x70>
20035054:	e3043090 	movw	r3, #16528	; 0x4090
20035058:	e3423005 	movt	r3, #8197	; 0x2005
2003505c:	e3a02000 	mov	r2, #0
20035060:	e1c320b0 	strh	r2, [r3]
20035064:	e3a03000 	mov	r3, #0
20035068:	e50b3008 	str	r3, [fp, #-8]
2003506c:	ea000027 	b	20035110 <_kernel_initialize_task+0x160>
20035070:	e30a3e74 	movw	r3, #44660	; 0xae74
20035074:	e3423003 	movt	r3, #8195	; 0x2003
20035078:	e51b2008 	ldr	r2, [fp, #-8]
2003507c:	e7933102 	ldr	r3, [r3, r2, lsl #2]
20035080:	e2433001 	sub	r3, r3, #1
20035084:	e50b300c 	str	r3, [fp, #-12]
20035088:	e51b200c 	ldr	r2, [fp, #-12]
2003508c:	e1a03002 	mov	r3, r2
20035090:	e1a03183 	lsl	r3, r3, #3
20035094:	e0833002 	add	r3, r3, r2
20035098:	e1a03103 	lsl	r3, r3, #2
2003509c:	e1a02003 	mov	r2, r3
200350a0:	e3013f14 	movw	r3, #7956	; 0x1f14
200350a4:	e3423004 	movt	r3, #8196	; 0x2004
200350a8:	e0823003 	add	r3, r2, r3
200350ac:	e50b3010 	str	r3, [fp, #-16]
200350b0:	e51b300c 	ldr	r3, [fp, #-12]
200350b4:	e1a02283 	lsl	r2, r3, #5
200350b8:	e30a3df4 	movw	r3, #44532	; 0xadf4
200350bc:	e3423003 	movt	r3, #8195	; 0x2003
200350c0:	e0822003 	add	r2, r2, r3
200350c4:	e51b3010 	ldr	r3, [fp, #-16]
200350c8:	e5832008 	str	r2, [r3, #8]
200350cc:	e51b2010 	ldr	r2, [fp, #-16]
200350d0:	e5d2300e 	ldrb	r3, [r2, #14]
200350d4:	e7c0301f 	bfc	r3, #0, #1
200350d8:	e5c2300e 	strb	r3, [r2, #14]
200350dc:	e51b0010 	ldr	r0, [fp, #-16]
200350e0:	eb0000fd 	bl	200354dc <_kernel_make_dormant>
200350e4:	e51b3010 	ldr	r3, [fp, #-16]
200350e8:	e5933008 	ldr	r3, [r3, #8]
200350ec:	e5933000 	ldr	r3, [r3]
200350f0:	e2033002 	and	r3, r3, #2
200350f4:	e3530000 	cmp	r3, #0
200350f8:	0a000001 	beq	20035104 <_kernel_initialize_task+0x154>
200350fc:	e51b0010 	ldr	r0, [fp, #-16]
20035100:	eb000113 	bl	20035554 <_kernel_make_active>
20035104:	e51b3008 	ldr	r3, [fp, #-8]
20035108:	e2833001 	add	r3, r3, #1
2003510c:	e50b3008 	str	r3, [fp, #-8]
20035110:	e30a3df0 	movw	r3, #44528	; 0xadf0
20035114:	e3423003 	movt	r3, #8195	; 0x2003
20035118:	e5933000 	ldr	r3, [r3]
2003511c:	e1a02003 	mov	r2, r3
20035120:	e51b3008 	ldr	r3, [fp, #-8]
20035124:	e1520003 	cmp	r2, r3
20035128:	8affffd0 	bhi	20035070 <_kernel_initialize_task+0xc0>
2003512c:	e24bd004 	sub	sp, fp, #4
20035130:	e8bd8800 	pop	{fp, pc}

20035134 <bitmap_search>:
20035134:	e92d4800 	push	{fp, lr}
20035138:	e28db004 	add	fp, sp, #4
2003513c:	e24dd018 	sub	sp, sp, #24
20035140:	e1a03000 	mov	r3, r0
20035144:	e14b30be 	strh	r3, [fp, #-14]
20035148:	e3a03000 	mov	r3, #0
2003514c:	e50b3008 	str	r3, [fp, #-8]
20035150:	e15b30be 	ldrh	r3, [fp, #-14]
20035154:	e3530000 	cmp	r3, #0
20035158:	1a00000a 	bne	20035188 <bitmap_search+0x54>
2003515c:	e30b3300 	movw	r3, #45824	; 0xb300
20035160:	e3423003 	movt	r3, #8195	; 0x2003
20035164:	e30b2318 	movw	r2, #45848	; 0xb318
20035168:	e3422003 	movt	r2, #8195	; 0x2003
2003516c:	e58d2000 	str	r2, [sp]
20035170:	e3a00000 	mov	r0, #0
20035174:	e3a01002 	mov	r1, #2
20035178:	e1a02003 	mov	r2, r3
2003517c:	e3a030a5 	mov	r3, #165	; 0xa5
20035180:	ebfffe27 	bl	20034a24 <_syslog_3>
20035184:	ebfffe23 	bl	20034a18 <TOPPERS_assert_abort>
20035188:	e15b30be 	ldrh	r3, [fp, #-14]
2003518c:	e20330ff 	and	r3, r3, #255	; 0xff
20035190:	e3530000 	cmp	r3, #0
20035194:	1a000005 	bne	200351b0 <bitmap_search+0x7c>
20035198:	e15b30be 	ldrh	r3, [fp, #-14]
2003519c:	e1a03423 	lsr	r3, r3, #8
200351a0:	e14b30be 	strh	r3, [fp, #-14]
200351a4:	e51b3008 	ldr	r3, [fp, #-8]
200351a8:	e2833008 	add	r3, r3, #8
200351ac:	e50b3008 	str	r3, [fp, #-8]
200351b0:	e15b30be 	ldrh	r3, [fp, #-14]
200351b4:	e203300f 	and	r3, r3, #15
200351b8:	e3530000 	cmp	r3, #0
200351bc:	1a000005 	bne	200351d8 <bitmap_search+0xa4>
200351c0:	e15b30be 	ldrh	r3, [fp, #-14]
200351c4:	e1a03223 	lsr	r3, r3, #4
200351c8:	e14b30be 	strh	r3, [fp, #-14]
200351cc:	e51b3008 	ldr	r3, [fp, #-8]
200351d0:	e2833004 	add	r3, r3, #4
200351d4:	e50b3008 	str	r3, [fp, #-8]
200351d8:	e15b30be 	ldrh	r3, [fp, #-14]
200351dc:	e203300f 	and	r3, r3, #15
200351e0:	e2432001 	sub	r2, r3, #1
200351e4:	e30b32f0 	movw	r3, #45808	; 0xb2f0
200351e8:	e3423003 	movt	r3, #8195	; 0x2003
200351ec:	e7d33002 	ldrb	r3, [r3, r2]
200351f0:	e1a02003 	mov	r2, r3
200351f4:	e51b3008 	ldr	r3, [fp, #-8]
200351f8:	e0823003 	add	r3, r2, r3
200351fc:	e1a00003 	mov	r0, r3
20035200:	e24bd004 	sub	sp, fp, #4
20035204:	e8bd8800 	pop	{fp, pc}

20035208 <primap_empty>:
20035208:	e52db004 	push	{fp}		; (str fp, [sp, #-4]!)
2003520c:	e28db000 	add	fp, sp, #0
20035210:	e3043090 	movw	r3, #16528	; 0x4090
20035214:	e3423005 	movt	r3, #8197	; 0x2005
20035218:	e1d330b0 	ldrh	r3, [r3]
2003521c:	e3530000 	cmp	r3, #0
20035220:	13a03000 	movne	r3, #0
20035224:	03a03001 	moveq	r3, #1
20035228:	e1a00003 	mov	r0, r3
2003522c:	e28bd000 	add	sp, fp, #0
20035230:	e49db004 	pop	{fp}		; (ldr fp, [sp], #4)
20035234:	e12fff1e 	bx	lr

20035238 <primap_search>:
20035238:	e92d4800 	push	{fp, lr}
2003523c:	e28db004 	add	fp, sp, #4
20035240:	e3043090 	movw	r3, #16528	; 0x4090
20035244:	e3423005 	movt	r3, #8197	; 0x2005
20035248:	e1d330b0 	ldrh	r3, [r3]
2003524c:	e1a00003 	mov	r0, r3
20035250:	ebffffb7 	bl	20035134 <bitmap_search>
20035254:	e1a03000 	mov	r3, r0
20035258:	e1a00003 	mov	r0, r3
2003525c:	e8bd8800 	pop	{fp, pc}

20035260 <primap_set>:
20035260:	e52db004 	push	{fp}		; (str fp, [sp, #-4]!)
20035264:	e28db000 	add	fp, sp, #0
20035268:	e24dd00c 	sub	sp, sp, #12
2003526c:	e50b0008 	str	r0, [fp, #-8]
20035270:	e51b3008 	ldr	r3, [fp, #-8]
20035274:	e3a02001 	mov	r2, #1
20035278:	e1a03312 	lsl	r3, r2, r3
2003527c:	e6ff2073 	uxth	r2, r3
20035280:	e3043090 	movw	r3, #16528	; 0x4090
20035284:	e3423005 	movt	r3, #8197	; 0x2005
20035288:	e1d330b0 	ldrh	r3, [r3]
2003528c:	e1823003 	orr	r3, r2, r3
20035290:	e6ff2073 	uxth	r2, r3
20035294:	e3043090 	movw	r3, #16528	; 0x4090
20035298:	e3423005 	movt	r3, #8197	; 0x2005
2003529c:	e1c320b0 	strh	r2, [r3]
200352a0:	e28bd000 	add	sp, fp, #0
200352a4:	e49db004 	pop	{fp}		; (ldr fp, [sp], #4)
200352a8:	e12fff1e 	bx	lr

200352ac <primap_clear>:
200352ac:	e52db004 	push	{fp}		; (str fp, [sp, #-4]!)
200352b0:	e28db000 	add	fp, sp, #0
200352b4:	e24dd00c 	sub	sp, sp, #12
200352b8:	e50b0008 	str	r0, [fp, #-8]
200352bc:	e51b3008 	ldr	r3, [fp, #-8]
200352c0:	e3a02001 	mov	r2, #1
200352c4:	e1a03312 	lsl	r3, r2, r3
200352c8:	e6ff3073 	uxth	r3, r3
200352cc:	e1e03003 	mvn	r3, r3
200352d0:	e6ff2073 	uxth	r2, r3
200352d4:	e3043090 	movw	r3, #16528	; 0x4090
200352d8:	e3423005 	movt	r3, #8197	; 0x2005
200352dc:	e1d330b0 	ldrh	r3, [r3]
200352e0:	e0023003 	and	r3, r2, r3
200352e4:	e6ff2073 	uxth	r2, r3
200352e8:	e3043090 	movw	r3, #16528	; 0x4090
200352ec:	e3423005 	movt	r3, #8197	; 0x2005
200352f0:	e1c320b0 	strh	r2, [r3]
200352f4:	e28bd000 	add	sp, fp, #0
200352f8:	e49db004 	pop	{fp}		; (ldr fp, [sp], #4)
200352fc:	e12fff1e 	bx	lr

20035300 <_kernel_search_schedtsk>:
20035300:	e92d4800 	push	{fp, lr}
20035304:	e28db004 	add	fp, sp, #4
20035308:	e24dd008 	sub	sp, sp, #8
2003530c:	ebffffc9 	bl	20035238 <primap_search>
20035310:	e50b0008 	str	r0, [fp, #-8]
20035314:	e304300c 	movw	r3, #16396	; 0x400c
20035318:	e3423005 	movt	r3, #8197	; 0x2005
2003531c:	e51b2008 	ldr	r2, [fp, #-8]
20035320:	e7933182 	ldr	r3, [r3, r2, lsl #3]
20035324:	e1a00003 	mov	r0, r3
20035328:	e24bd004 	sub	sp, fp, #4
2003532c:	e8bd8800 	pop	{fp, pc}

20035330 <_kernel_make_runnable>:
20035330:	e92d4800 	push	{fp, lr}
20035334:	e28db004 	add	fp, sp, #4
20035338:	e24dd010 	sub	sp, sp, #16
2003533c:	e50b0010 	str	r0, [fp, #-16]
20035340:	e51b3010 	ldr	r3, [fp, #-16]
20035344:	e5d3300d 	ldrb	r3, [r3, #13]
20035348:	e50b3008 	str	r3, [fp, #-8]
2003534c:	e51b3008 	ldr	r3, [fp, #-8]
20035350:	e1a02183 	lsl	r2, r3, #3
20035354:	e304300c 	movw	r3, #16396	; 0x400c
20035358:	e3423005 	movt	r3, #8197	; 0x2005
2003535c:	e0822003 	add	r2, r2, r3
20035360:	e51b3010 	ldr	r3, [fp, #-16]
20035364:	e1a00002 	mov	r0, r2
20035368:	e1a01003 	mov	r1, r3
2003536c:	ebfffe70 	bl	20034d34 <queue_insert_prev>
20035370:	e51b0008 	ldr	r0, [fp, #-8]
20035374:	ebffffb9 	bl	20035260 <primap_set>
20035378:	e3043004 	movw	r3, #16388	; 0x4004
2003537c:	e3423005 	movt	r3, #8197	; 0x2005
20035380:	e5933000 	ldr	r3, [r3]
20035384:	e3530000 	cmp	r3, #0
20035388:	0a000007 	beq	200353ac <_kernel_make_runnable+0x7c>
2003538c:	e3043004 	movw	r3, #16388	; 0x4004
20035390:	e3423005 	movt	r3, #8197	; 0x2005
20035394:	e5933000 	ldr	r3, [r3]
20035398:	e5d3300d 	ldrb	r3, [r3, #13]
2003539c:	e1a02003 	mov	r2, r3
200353a0:	e51b3008 	ldr	r3, [fp, #-8]
200353a4:	e1520003 	cmp	r2, r3
200353a8:	9a000007 	bls	200353cc <_kernel_make_runnable+0x9c>
200353ac:	e3043004 	movw	r3, #16388	; 0x4004
200353b0:	e3423005 	movt	r3, #8197	; 0x2005
200353b4:	e51b2010 	ldr	r2, [fp, #-16]
200353b8:	e5832000 	str	r2, [r3]
200353bc:	e304308c 	movw	r3, #16524	; 0x408c
200353c0:	e3423005 	movt	r3, #8197	; 0x2005
200353c4:	e5933000 	ldr	r3, [r3]
200353c8:	ea000000 	b	200353d0 <_kernel_make_runnable+0xa0>
200353cc:	e3a03000 	mov	r3, #0
200353d0:	e1a00003 	mov	r0, r3
200353d4:	e24bd004 	sub	sp, fp, #4
200353d8:	e8bd8800 	pop	{fp, pc}

200353dc <_kernel_make_non_runnable>:
200353dc:	e92d4800 	push	{fp, lr}
200353e0:	e28db004 	add	fp, sp, #4
200353e4:	e24dd010 	sub	sp, sp, #16
200353e8:	e50b0010 	str	r0, [fp, #-16]
200353ec:	e51b3010 	ldr	r3, [fp, #-16]
200353f0:	e5d3300d 	ldrb	r3, [r3, #13]
200353f4:	e50b3008 	str	r3, [fp, #-8]
200353f8:	e51b3008 	ldr	r3, [fp, #-8]
200353fc:	e1a02183 	lsl	r2, r3, #3
20035400:	e304300c 	movw	r3, #16396	; 0x400c
20035404:	e3423005 	movt	r3, #8197	; 0x2005
20035408:	e0823003 	add	r3, r2, r3
2003540c:	e50b300c 	str	r3, [fp, #-12]
20035410:	e51b3010 	ldr	r3, [fp, #-16]
20035414:	e1a00003 	mov	r0, r3
20035418:	ebfffe5b 	bl	20034d8c <queue_delete>
2003541c:	e51b000c 	ldr	r0, [fp, #-12]
20035420:	ebfffe8d 	bl	20034e5c <queue_empty>
20035424:	e1a03000 	mov	r3, r0
20035428:	e3530000 	cmp	r3, #0
2003542c:	0a000016 	beq	2003548c <_kernel_make_non_runnable+0xb0>
20035430:	e51b0008 	ldr	r0, [fp, #-8]
20035434:	ebffff9c 	bl	200352ac <primap_clear>
20035438:	e3043004 	movw	r3, #16388	; 0x4004
2003543c:	e3423005 	movt	r3, #8197	; 0x2005
20035440:	e5932000 	ldr	r2, [r3]
20035444:	e51b3010 	ldr	r3, [fp, #-16]
20035448:	e1520003 	cmp	r2, r3
2003544c:	1a00001e 	bne	200354cc <_kernel_make_non_runnable+0xf0>
20035450:	ebffff6c 	bl	20035208 <primap_empty>
20035454:	e1a03000 	mov	r3, r0
20035458:	e3530000 	cmp	r3, #0
2003545c:	1a000002 	bne	2003546c <_kernel_make_non_runnable+0x90>
20035460:	ebffffa6 	bl	20035300 <_kernel_search_schedtsk>
20035464:	e1a02000 	mov	r2, r0
20035468:	ea000000 	b	20035470 <_kernel_make_non_runnable+0x94>
2003546c:	e3a02000 	mov	r2, #0
20035470:	e3043004 	movw	r3, #16388	; 0x4004
20035474:	e3423005 	movt	r3, #8197	; 0x2005
20035478:	e5832000 	str	r2, [r3]
2003547c:	e304308c 	movw	r3, #16524	; 0x408c
20035480:	e3423005 	movt	r3, #8197	; 0x2005
20035484:	e5933000 	ldr	r3, [r3]
20035488:	ea000010 	b	200354d0 <_kernel_make_non_runnable+0xf4>
2003548c:	e3043004 	movw	r3, #16388	; 0x4004
20035490:	e3423005 	movt	r3, #8197	; 0x2005
20035494:	e5932000 	ldr	r2, [r3]
20035498:	e51b3010 	ldr	r3, [fp, #-16]
2003549c:	e1520003 	cmp	r2, r3
200354a0:	1a000009 	bne	200354cc <_kernel_make_non_runnable+0xf0>
200354a4:	e51b300c 	ldr	r3, [fp, #-12]
200354a8:	e5933000 	ldr	r3, [r3]
200354ac:	e1a02003 	mov	r2, r3
200354b0:	e3043004 	movw	r3, #16388	; 0x4004
200354b4:	e3423005 	movt	r3, #8197	; 0x2005
200354b8:	e5832000 	str	r2, [r3]
200354bc:	e304308c 	movw	r3, #16524	; 0x408c
200354c0:	e3423005 	movt	r3, #8197	; 0x2005
200354c4:	e5933000 	ldr	r3, [r3]
200354c8:	ea000000 	b	200354d0 <_kernel_make_non_runnable+0xf4>
200354cc:	e3a03000 	mov	r3, #0
200354d0:	e1a00003 	mov	r0, r3
200354d4:	e24bd004 	sub	sp, fp, #4
200354d8:	e8bd8800 	pop	{fp, pc}

200354dc <_kernel_make_dormant>:
200354dc:	e52db004 	push	{fp}		; (str fp, [sp, #-4]!)
200354e0:	e28db000 	add	fp, sp, #0
200354e4:	e24dd00c 	sub	sp, sp, #12
200354e8:	e50b0008 	str	r0, [fp, #-8]
200354ec:	e51b3008 	ldr	r3, [fp, #-8]
200354f0:	e3a02000 	mov	r2, #0
200354f4:	e5c3200c 	strb	r2, [r3, #12]
200354f8:	e51b3008 	ldr	r3, [fp, #-8]
200354fc:	e5933008 	ldr	r3, [r3, #8]
20035500:	e593300c 	ldr	r3, [r3, #12]
20035504:	e6ef2073 	uxtb	r2, r3
20035508:	e51b3008 	ldr	r3, [fp, #-8]
2003550c:	e5c3200d 	strb	r2, [r3, #13]
20035510:	e51b2008 	ldr	r2, [fp, #-8]
20035514:	e5d2300e 	ldrb	r3, [r2, #14]
20035518:	e7c1309f 	bfc	r3, #1, #1
2003551c:	e5c2300e 	strb	r3, [r2, #14]
20035520:	e51b2008 	ldr	r2, [fp, #-8]
20035524:	e5d2300e 	ldrb	r3, [r2, #14]
20035528:	e7c2311f 	bfc	r3, #2, #1
2003552c:	e5c2300e 	strb	r3, [r2, #14]
20035530:	e51b3008 	ldr	r3, [fp, #-8]
20035534:	e3a02000 	mov	r2, #0
20035538:	e5832010 	str	r2, [r3, #16]
2003553c:	e51b3008 	ldr	r3, [fp, #-8]
20035540:	e3a02000 	mov	r2, #0
20035544:	e5832018 	str	r2, [r3, #24]
20035548:	e28bd000 	add	sp, fp, #0
2003554c:	e49db004 	pop	{fp}		; (ldr fp, [sp], #4)
20035550:	e12fff1e 	bx	lr

20035554 <_kernel_make_active>:
20035554:	e92d4800 	push	{fp, lr}
20035558:	e28db004 	add	fp, sp, #4
2003555c:	e24dd008 	sub	sp, sp, #8
20035560:	e50b0008 	str	r0, [fp, #-8]
20035564:	e51b3008 	ldr	r3, [fp, #-8]
20035568:	e5933008 	ldr	r3, [r3, #8]
2003556c:	e5932014 	ldr	r2, [r3, #20]
20035570:	e51b3008 	ldr	r3, [fp, #-8]
20035574:	e5933008 	ldr	r3, [r3, #8]
20035578:	e5933010 	ldr	r3, [r3, #16]
2003557c:	e0822003 	add	r2, r2, r3
20035580:	e51b3008 	ldr	r3, [fp, #-8]
20035584:	e583201c 	str	r2, [r3, #28]
20035588:	e3033154 	movw	r3, #12628	; 0x3154
2003558c:	e3423003 	movt	r3, #8195	; 0x2003
20035590:	e51b2008 	ldr	r2, [fp, #-8]
20035594:	e5823020 	str	r3, [r2, #32]
20035598:	e51b3008 	ldr	r3, [fp, #-8]
2003559c:	e3a02001 	mov	r2, #1
200355a0:	e5c3200c 	strb	r2, [r3, #12]
200355a4:	e51b0008 	ldr	r0, [fp, #-8]
200355a8:	ebffff60 	bl	20035330 <_kernel_make_runnable>
200355ac:	e1a03000 	mov	r3, r0
200355b0:	e1a00003 	mov	r0, r3
200355b4:	e24bd004 	sub	sp, fp, #4
200355b8:	e8bd8800 	pop	{fp, pc}

200355bc <_kernel_change_priority>:
200355bc:	e92d4800 	push	{fp, lr}
200355c0:	e28db004 	add	fp, sp, #4
200355c4:	e24dd010 	sub	sp, sp, #16
200355c8:	e50b0010 	str	r0, [fp, #-16]
200355cc:	e50b1014 	str	r1, [fp, #-20]	; 0xffffffec
200355d0:	e51b3010 	ldr	r3, [fp, #-16]
200355d4:	e5d3300d 	ldrb	r3, [r3, #13]
200355d8:	e50b3008 	str	r3, [fp, #-8]
200355dc:	e51b3014 	ldr	r3, [fp, #-20]	; 0xffffffec
200355e0:	e6ef2073 	uxtb	r2, r3
200355e4:	e51b3010 	ldr	r3, [fp, #-16]
200355e8:	e5c3200d 	strb	r2, [r3, #13]
200355ec:	e51b3010 	ldr	r3, [fp, #-16]
200355f0:	e5d3300c 	ldrb	r3, [r3, #12]
200355f4:	e2033001 	and	r3, r3, #1
200355f8:	e6ef3073 	uxtb	r3, r3
200355fc:	e3530000 	cmp	r3, #0
20035600:	0a000047 	beq	20035724 <_kernel_change_priority+0x168>
20035604:	e51b3010 	ldr	r3, [fp, #-16]
20035608:	e1a00003 	mov	r0, r3
2003560c:	ebfffdde 	bl	20034d8c <queue_delete>
20035610:	e51b3008 	ldr	r3, [fp, #-8]
20035614:	e1a02183 	lsl	r2, r3, #3
20035618:	e304300c 	movw	r3, #16396	; 0x400c
2003561c:	e3423005 	movt	r3, #8197	; 0x2005
20035620:	e0823003 	add	r3, r2, r3
20035624:	e1a00003 	mov	r0, r3
20035628:	ebfffe0b 	bl	20034e5c <queue_empty>
2003562c:	e1a03000 	mov	r3, r0
20035630:	e3530000 	cmp	r3, #0
20035634:	0a000001 	beq	20035640 <_kernel_change_priority+0x84>
20035638:	e51b0008 	ldr	r0, [fp, #-8]
2003563c:	ebffff1a 	bl	200352ac <primap_clear>
20035640:	e51b3014 	ldr	r3, [fp, #-20]	; 0xffffffec
20035644:	e1a02183 	lsl	r2, r3, #3
20035648:	e304300c 	movw	r3, #16396	; 0x400c
2003564c:	e3423005 	movt	r3, #8197	; 0x2005
20035650:	e0822003 	add	r2, r2, r3
20035654:	e51b3010 	ldr	r3, [fp, #-16]
20035658:	e1a00002 	mov	r0, r2
2003565c:	e1a01003 	mov	r1, r3
20035660:	ebfffdb3 	bl	20034d34 <queue_insert_prev>
20035664:	e51b0014 	ldr	r0, [fp, #-20]	; 0xffffffec
20035668:	ebfffefc 	bl	20035260 <primap_set>
2003566c:	e3043004 	movw	r3, #16388	; 0x4004
20035670:	e3423005 	movt	r3, #8197	; 0x2005
20035674:	e5932000 	ldr	r2, [r3]
20035678:	e51b3010 	ldr	r3, [fp, #-16]
2003567c:	e1520003 	cmp	r2, r3
20035680:	1a000017 	bne	200356e4 <_kernel_change_priority+0x128>
20035684:	e51b2014 	ldr	r2, [fp, #-20]	; 0xffffffec
20035688:	e51b3008 	ldr	r3, [fp, #-8]
2003568c:	e1520003 	cmp	r2, r3
20035690:	3a00002e 	bcc	20035750 <_kernel_change_priority+0x194>
20035694:	ebffff19 	bl	20035300 <_kernel_search_schedtsk>
20035698:	e1a02000 	mov	r2, r0
2003569c:	e3043004 	movw	r3, #16388	; 0x4004
200356a0:	e3423005 	movt	r3, #8197	; 0x2005
200356a4:	e5832000 	str	r2, [r3]
200356a8:	e3043004 	movw	r3, #16388	; 0x4004
200356ac:	e3423005 	movt	r3, #8197	; 0x2005
200356b0:	e5932000 	ldr	r2, [r3]
200356b4:	e51b3010 	ldr	r3, [fp, #-16]
200356b8:	e1520003 	cmp	r2, r3
200356bc:	0a000006 	beq	200356dc <_kernel_change_priority+0x120>
200356c0:	e304308c 	movw	r3, #16524	; 0x408c
200356c4:	e3423005 	movt	r3, #8197	; 0x2005
200356c8:	e5933000 	ldr	r3, [r3]
200356cc:	e3530000 	cmp	r3, #0
200356d0:	0a000001 	beq	200356dc <_kernel_change_priority+0x120>
200356d4:	e3a03001 	mov	r3, #1
200356d8:	ea000000 	b	200356e0 <_kernel_change_priority+0x124>
200356dc:	e3a03000 	mov	r3, #0
200356e0:	ea00001b 	b	20035754 <_kernel_change_priority+0x198>
200356e4:	e3043004 	movw	r3, #16388	; 0x4004
200356e8:	e3423005 	movt	r3, #8197	; 0x2005
200356ec:	e5933000 	ldr	r3, [r3]
200356f0:	e5d3300d 	ldrb	r3, [r3, #13]
200356f4:	e1a02003 	mov	r2, r3
200356f8:	e51b3014 	ldr	r3, [fp, #-20]	; 0xffffffec
200356fc:	e1520003 	cmp	r2, r3
20035700:	9a000012 	bls	20035750 <_kernel_change_priority+0x194>
20035704:	e3043004 	movw	r3, #16388	; 0x4004
20035708:	e3423005 	movt	r3, #8197	; 0x2005
2003570c:	e51b2010 	ldr	r2, [fp, #-16]
20035710:	e5832000 	str	r2, [r3]
20035714:	e304308c 	movw	r3, #16524	; 0x408c
20035718:	e3423005 	movt	r3, #8197	; 0x2005
2003571c:	e5933000 	ldr	r3, [r3]
20035720:	ea00000b 	b	20035754 <_kernel_change_priority+0x198>
20035724:	e51b3010 	ldr	r3, [fp, #-16]
20035728:	e5d3300c 	ldrb	r3, [r3, #12]
2003572c:	e2033078 	and	r3, r3, #120	; 0x78
20035730:	e353001f 	cmp	r3, #31
20035734:	9a000005 	bls	20035750 <_kernel_change_priority+0x194>
20035738:	e51b3010 	ldr	r3, [fp, #-16]
2003573c:	e5933014 	ldr	r3, [r3, #20]
20035740:	e5933004 	ldr	r3, [r3, #4]
20035744:	e1a00003 	mov	r0, r3
20035748:	e51b1010 	ldr	r1, [fp, #-16]
2003574c:	ebfffe02 	bl	20034f5c <wobj_change_priority>
20035750:	e3a03000 	mov	r3, #0
20035754:	e1a00003 	mov	r0, r3
20035758:	e24bd004 	sub	sp, fp, #4
2003575c:	e8bd8800 	pop	{fp, pc}

20035760 <_kernel_rotate_ready_queue>:
20035760:	e92d4800 	push	{fp, lr}
20035764:	e28db004 	add	fp, sp, #4
20035768:	e24dd010 	sub	sp, sp, #16
2003576c:	e50b0010 	str	r0, [fp, #-16]
20035770:	e51b3010 	ldr	r3, [fp, #-16]
20035774:	e1a02183 	lsl	r2, r3, #3
20035778:	e304300c 	movw	r3, #16396	; 0x400c
2003577c:	e3423005 	movt	r3, #8197	; 0x2005
20035780:	e0823003 	add	r3, r2, r3
20035784:	e50b3008 	str	r3, [fp, #-8]
20035788:	e51b0008 	ldr	r0, [fp, #-8]
2003578c:	ebfffdb2 	bl	20034e5c <queue_empty>
20035790:	e1a03000 	mov	r3, r0
20035794:	e3530000 	cmp	r3, #0
20035798:	1a00001b 	bne	2003580c <_kernel_rotate_ready_queue+0xac>
2003579c:	e51b3008 	ldr	r3, [fp, #-8]
200357a0:	e5933000 	ldr	r3, [r3]
200357a4:	e5932000 	ldr	r2, [r3]
200357a8:	e51b3008 	ldr	r3, [fp, #-8]
200357ac:	e1520003 	cmp	r2, r3
200357b0:	0a000015 	beq	2003580c <_kernel_rotate_ready_queue+0xac>
200357b4:	e51b0008 	ldr	r0, [fp, #-8]
200357b8:	ebfffd84 	bl	20034dd0 <queue_delete_next>
200357bc:	e50b000c 	str	r0, [fp, #-12]
200357c0:	e51b0008 	ldr	r0, [fp, #-8]
200357c4:	e51b100c 	ldr	r1, [fp, #-12]
200357c8:	ebfffd59 	bl	20034d34 <queue_insert_prev>
200357cc:	e3043004 	movw	r3, #16388	; 0x4004
200357d0:	e3423005 	movt	r3, #8197	; 0x2005
200357d4:	e5932000 	ldr	r2, [r3]
200357d8:	e51b300c 	ldr	r3, [fp, #-12]
200357dc:	e1520003 	cmp	r2, r3
200357e0:	1a000009 	bne	2003580c <_kernel_rotate_ready_queue+0xac>
200357e4:	e51b3008 	ldr	r3, [fp, #-8]
200357e8:	e5933000 	ldr	r3, [r3]
200357ec:	e1a02003 	mov	r2, r3
200357f0:	e3043004 	movw	r3, #16388	; 0x4004
200357f4:	e3423005 	movt	r3, #8197	; 0x2005
200357f8:	e5832000 	str	r2, [r3]
200357fc:	e304308c 	movw	r3, #16524	; 0x408c
20035800:	e3423005 	movt	r3, #8197	; 0x2005
20035804:	e5933000 	ldr	r3, [r3]
20035808:	ea000000 	b	20035810 <_kernel_rotate_ready_queue+0xb0>
2003580c:	e3a03000 	mov	r3, #0
20035810:	e1a00003 	mov	r0, r3
20035814:	e24bd004 	sub	sp, fp, #4
20035818:	e8bd8800 	pop	{fp, pc}

2003581c <_kernel_call_texrtn>:
2003581c:	e92d4800 	push	{fp, lr}
20035820:	e28db004 	add	fp, sp, #4
20035824:	e24dd010 	sub	sp, sp, #16
20035828:	ebfffcfc 	bl	20034c20 <x_get_ipm>
2003582c:	e50b0008 	str	r0, [fp, #-8]
20035830:	e3043094 	movw	r3, #16532	; 0x4094
20035834:	e3423005 	movt	r3, #8197	; 0x2005
20035838:	e5933000 	ldr	r3, [r3]
2003583c:	e50b300c 	str	r3, [fp, #-12]
20035840:	e304308c 	movw	r3, #16524	; 0x408c
20035844:	e3423005 	movt	r3, #8197	; 0x2005
20035848:	e5933000 	ldr	r3, [r3]
2003584c:	e50b3010 	str	r3, [fp, #-16]
20035850:	e3043098 	movw	r3, #16536	; 0x4098
20035854:	e3423005 	movt	r3, #8197	; 0x2005
20035858:	e5932000 	ldr	r2, [r3]
2003585c:	e5d2300e 	ldrb	r3, [r2, #14]
20035860:	e7c2311f 	bfc	r3, #2, #1
20035864:	e5c2300e 	strb	r3, [r2, #14]
20035868:	e3043098 	movw	r3, #16536	; 0x4098
2003586c:	e3423005 	movt	r3, #8197	; 0x2005
20035870:	e5933000 	ldr	r3, [r3]
20035874:	e5933010 	ldr	r3, [r3, #16]
20035878:	e50b3014 	str	r3, [fp, #-20]	; 0xffffffec
2003587c:	e3043098 	movw	r3, #16536	; 0x4098
20035880:	e3423005 	movt	r3, #8197	; 0x2005
20035884:	e5933000 	ldr	r3, [r3]
20035888:	e3a02000 	mov	r2, #0
2003588c:	e5832010 	str	r2, [r3, #16]
20035890:	ebfffd06 	bl	20034cb0 <x_unlock_cpu>
20035894:	e3043098 	movw	r3, #16536	; 0x4098
20035898:	e3423005 	movt	r3, #8197	; 0x2005
2003589c:	e5933000 	ldr	r3, [r3]
200358a0:	e5933008 	ldr	r3, [r3, #8]
200358a4:	e593201c 	ldr	r2, [r3, #28]
200358a8:	e3043098 	movw	r3, #16536	; 0x4098
200358ac:	e3423005 	movt	r3, #8197	; 0x2005
200358b0:	e5933000 	ldr	r3, [r3]
200358b4:	e5933008 	ldr	r3, [r3, #8]
200358b8:	e5933004 	ldr	r3, [r3, #4]
200358bc:	e51b0014 	ldr	r0, [fp, #-20]	; 0xffffffec
200358c0:	e1a01003 	mov	r1, r3
200358c4:	e12fff32 	blx	r2
200358c8:	ebfffd01 	bl	20034cd4 <x_sense_lock>
200358cc:	e1a03000 	mov	r3, r0
200358d0:	e3530000 	cmp	r3, #0
200358d4:	1a000000 	bne	200358dc <_kernel_call_texrtn+0xc0>
200358d8:	ebfffcec 	bl	20034c90 <x_lock_cpu>
200358dc:	e51b0008 	ldr	r0, [fp, #-8]
200358e0:	ebfffcae 	bl	20034ba0 <x_set_ipm>
200358e4:	e3043094 	movw	r3, #16532	; 0x4094
200358e8:	e3423005 	movt	r3, #8197	; 0x2005
200358ec:	e51b200c 	ldr	r2, [fp, #-12]
200358f0:	e5832000 	str	r2, [r3]
200358f4:	e304308c 	movw	r3, #16524	; 0x408c
200358f8:	e3423005 	movt	r3, #8197	; 0x2005
200358fc:	e51b2010 	ldr	r2, [fp, #-16]
20035900:	e5832000 	str	r2, [r3]
20035904:	e3043098 	movw	r3, #16536	; 0x4098
20035908:	e3423005 	movt	r3, #8197	; 0x2005
2003590c:	e5932000 	ldr	r2, [r3]
20035910:	e5d2300e 	ldrb	r3, [r2, #14]
20035914:	e7c2311f 	bfc	r3, #2, #1
20035918:	e5c2300e 	strb	r3, [r2, #14]
2003591c:	e3043098 	movw	r3, #16536	; 0x4098
20035920:	e3423005 	movt	r3, #8197	; 0x2005
20035924:	e5932000 	ldr	r2, [r3]
20035928:	e3043004 	movw	r3, #16388	; 0x4004
2003592c:	e3423005 	movt	r3, #8197	; 0x2005
20035930:	e5933000 	ldr	r3, [r3]
20035934:	e1520003 	cmp	r2, r3
20035938:	0a000005 	beq	20035954 <_kernel_call_texrtn+0x138>
2003593c:	e304308c 	movw	r3, #16524	; 0x408c
20035940:	e3423005 	movt	r3, #8197	; 0x2005
20035944:	e5933000 	ldr	r3, [r3]
20035948:	e3530000 	cmp	r3, #0
2003594c:	0a000000 	beq	20035954 <_kernel_call_texrtn+0x138>
20035950:	ebfff5cc 	bl	20033088 <_kernel_dispatch>
20035954:	e3043098 	movw	r3, #16536	; 0x4098
20035958:	e3423005 	movt	r3, #8197	; 0x2005
2003595c:	e5933000 	ldr	r3, [r3]
20035960:	e5933010 	ldr	r3, [r3, #16]
20035964:	e3530000 	cmp	r3, #0
20035968:	1affffbe 	bne	20035868 <_kernel_call_texrtn+0x4c>
2003596c:	e3043098 	movw	r3, #16536	; 0x4098
20035970:	e3423005 	movt	r3, #8197	; 0x2005
20035974:	e5932000 	ldr	r2, [r3]
20035978:	e5d2300e 	ldrb	r3, [r2, #14]
2003597c:	e3833004 	orr	r3, r3, #4
20035980:	e5c2300e 	strb	r3, [r2, #14]
20035984:	e24bd004 	sub	sp, fp, #4
20035988:	e8bd8800 	pop	{fp, pc}

2003598c <TOPPERS_assert_abort>:
2003598c:	e52db004 	push	{fp}		; (str fp, [sp, #-4]!)
20035990:	e28db000 	add	fp, sp, #0
20035994:	eafffffe 	b	20035994 <TOPPERS_assert_abort+0x8>

20035998 <_syslog_3>:
20035998:	e92d4800 	push	{fp, lr}
2003599c:	e28db004 	add	fp, sp, #4
200359a0:	e24dd040 	sub	sp, sp, #64	; 0x40
200359a4:	e50b0038 	str	r0, [fp, #-56]	; 0xffffffc8
200359a8:	e50b103c 	str	r1, [fp, #-60]	; 0xffffffc4
200359ac:	e50b2040 	str	r2, [fp, #-64]	; 0xffffffc0
200359b0:	e50b3044 	str	r3, [fp, #-68]	; 0xffffffbc
200359b4:	e51b303c 	ldr	r3, [fp, #-60]	; 0xffffffc4
200359b8:	e50b3034 	str	r3, [fp, #-52]	; 0xffffffcc
200359bc:	e51b3040 	ldr	r3, [fp, #-64]	; 0xffffffc0
200359c0:	e50b302c 	str	r3, [fp, #-44]	; 0xffffffd4
200359c4:	e51b3044 	ldr	r3, [fp, #-68]	; 0xffffffbc
200359c8:	e50b3028 	str	r3, [fp, #-40]	; 0xffffffd8
200359cc:	e59b3004 	ldr	r3, [fp, #4]
200359d0:	e50b3024 	str	r3, [fp, #-36]	; 0xffffffdc
200359d4:	e24b3034 	sub	r3, fp, #52	; 0x34
200359d8:	e51b0038 	ldr	r0, [fp, #-56]	; 0xffffffc8
200359dc:	e1a01003 	mov	r1, r3
200359e0:	ebffeb07 	bl	20030604 <syslog_wri_log>
200359e4:	e24bd004 	sub	sp, fp, #4
200359e8:	e8bd8800 	pop	{fp, pc}

200359ec <current_sr>:
200359ec:	e92d0810 	push	{r4, fp}
200359f0:	e28db004 	add	fp, sp, #4
200359f4:	e24dd008 	sub	sp, sp, #8
200359f8:	e10f4000 	mrs	r4, CPSR
200359fc:	e50b4008 	str	r4, [fp, #-8]
20035a00:	e51b3008 	ldr	r3, [fp, #-8]
20035a04:	e1a00003 	mov	r0, r3
20035a08:	e24bd004 	sub	sp, fp, #4
20035a0c:	e8bd0810 	pop	{r4, fp}
20035a10:	e12fff1e 	bx	lr

20035a14 <set_sr>:
20035a14:	e52db004 	push	{fp}		; (str fp, [sp, #-4]!)
20035a18:	e28db000 	add	fp, sp, #0
20035a1c:	e24dd00c 	sub	sp, sp, #12
20035a20:	e50b0008 	str	r0, [fp, #-8]
20035a24:	e51b3008 	ldr	r3, [fp, #-8]
20035a28:	e129f003 	msr	CPSR_fc, r3
20035a2c:	e28bd000 	add	sp, fp, #0
20035a30:	e49db004 	pop	{fp}		; (ldr fp, [sp], #4)
20035a34:	e12fff1e 	bx	lr

20035a38 <sense_context>:
20035a38:	e52db004 	push	{fp}		; (str fp, [sp, #-4]!)
20035a3c:	e28db000 	add	fp, sp, #0
20035a40:	e3043000 	movw	r3, #16384	; 0x4000
20035a44:	e3423005 	movt	r3, #8197	; 0x2005
20035a48:	e5933000 	ldr	r3, [r3]
20035a4c:	e3530000 	cmp	r3, #0
20035a50:	03a03000 	moveq	r3, #0
20035a54:	13a03001 	movne	r3, #1
20035a58:	e1a00003 	mov	r0, r3
20035a5c:	e28bd000 	add	sp, fp, #0
20035a60:	e49db004 	pop	{fp}		; (ldr fp, [sp], #4)
20035a64:	e12fff1e 	bx	lr

20035a68 <x_lock_cpu>:
20035a68:	e92d4800 	push	{fp, lr}
20035a6c:	e28db004 	add	fp, sp, #4
20035a70:	ebffffdd 	bl	200359ec <current_sr>
20035a74:	e1a03000 	mov	r3, r0
20035a78:	e38330c0 	orr	r3, r3, #192	; 0xc0
20035a7c:	e1a00003 	mov	r0, r3
20035a80:	ebffffe3 	bl	20035a14 <set_sr>
20035a84:	e8bd8800 	pop	{fp, pc}

20035a88 <x_unlock_cpu>:
20035a88:	e92d4800 	push	{fp, lr}
20035a8c:	e28db004 	add	fp, sp, #4
20035a90:	ebffffd5 	bl	200359ec <current_sr>
20035a94:	e1a03000 	mov	r3, r0
20035a98:	e3c330c0 	bic	r3, r3, #192	; 0xc0
20035a9c:	e3833080 	orr	r3, r3, #128	; 0x80
20035aa0:	e1a00003 	mov	r0, r3
20035aa4:	ebffffda 	bl	20035a14 <set_sr>
20035aa8:	e8bd8800 	pop	{fp, pc}

20035aac <x_sense_lock>:
20035aac:	e92d4800 	push	{fp, lr}
20035ab0:	e28db004 	add	fp, sp, #4
20035ab4:	ebffffcc 	bl	200359ec <current_sr>
20035ab8:	e1a03000 	mov	r3, r0
20035abc:	e20330c0 	and	r3, r3, #192	; 0xc0
20035ac0:	e35300c0 	cmp	r3, #192	; 0xc0
20035ac4:	13a03000 	movne	r3, #0
20035ac8:	03a03001 	moveq	r3, #1
20035acc:	e1a00003 	mov	r0, r3
20035ad0:	e8bd8800 	pop	{fp, pc}

20035ad4 <_kernel_initialize_tmevt>:
20035ad4:	e52db004 	push	{fp}		; (str fp, [sp, #-4]!)
20035ad8:	e28db000 	add	fp, sp, #0
20035adc:	e304309c 	movw	r3, #16540	; 0x409c
20035ae0:	e3423005 	movt	r3, #8197	; 0x2005
20035ae4:	e3a02000 	mov	r2, #0
20035ae8:	e5832000 	str	r2, [r3]
20035aec:	e304309c 	movw	r3, #16540	; 0x409c
20035af0:	e3423005 	movt	r3, #8197	; 0x2005
20035af4:	e5932000 	ldr	r2, [r3]
20035af8:	e30430a0 	movw	r3, #16544	; 0x40a0
20035afc:	e3423005 	movt	r3, #8197	; 0x2005
20035b00:	e5832000 	str	r2, [r3]
20035b04:	e30430a0 	movw	r3, #16544	; 0x40a0
20035b08:	e3423005 	movt	r3, #8197	; 0x2005
20035b0c:	e5933000 	ldr	r3, [r3]
20035b10:	e2832001 	add	r2, r3, #1
20035b14:	e30430a4 	movw	r3, #16548	; 0x40a4
20035b18:	e3423005 	movt	r3, #8197	; 0x2005
20035b1c:	e5832000 	str	r2, [r3]
20035b20:	e30430a8 	movw	r3, #16552	; 0x40a8
20035b24:	e3423005 	movt	r3, #8197	; 0x2005
20035b28:	e3a02000 	mov	r2, #0
20035b2c:	e5832000 	str	r2, [r3]
20035b30:	e28bd000 	add	sp, fp, #0
20035b34:	e49db004 	pop	{fp}		; (ldr fp, [sp], #4)
20035b38:	e12fff1e 	bx	lr

20035b3c <_kernel_tmevt_up>:
20035b3c:	e52db004 	push	{fp}		; (str fp, [sp, #-4]!)
20035b40:	e28db000 	add	fp, sp, #0
20035b44:	e24dd014 	sub	sp, sp, #20
20035b48:	e50b0010 	str	r0, [fp, #-16]
20035b4c:	e50b1014 	str	r1, [fp, #-20]	; 0xffffffec
20035b50:	ea00002d 	b	20035c0c <_kernel_tmevt_up+0xd0>
20035b54:	e51b3010 	ldr	r3, [fp, #-16]
20035b58:	e1a030a3 	lsr	r3, r3, #1
20035b5c:	e50b3008 	str	r3, [fp, #-8]
20035b60:	e51b3008 	ldr	r3, [fp, #-8]
20035b64:	e2432001 	sub	r2, r3, #1
20035b68:	e3013eec 	movw	r3, #7916	; 0x1eec
20035b6c:	e3423004 	movt	r3, #8196	; 0x2004
20035b70:	e7932182 	ldr	r2, [r3, r2, lsl #3]
20035b74:	e304309c 	movw	r3, #16540	; 0x409c
20035b78:	e3423005 	movt	r3, #8197	; 0x2005
20035b7c:	e5933000 	ldr	r3, [r3]
20035b80:	e0632002 	rsb	r2, r3, r2
20035b84:	e304309c 	movw	r3, #16540	; 0x409c
20035b88:	e3423005 	movt	r3, #8197	; 0x2005
20035b8c:	e5933000 	ldr	r3, [r3]
20035b90:	e51b1014 	ldr	r1, [fp, #-20]	; 0xffffffec
20035b94:	e0633001 	rsb	r3, r3, r1
20035b98:	e1520003 	cmp	r2, r3
20035b9c:	9a00001e 	bls	20035c1c <_kernel_tmevt_up+0xe0>
20035ba0:	e51b3010 	ldr	r3, [fp, #-16]
20035ba4:	e2433001 	sub	r3, r3, #1
20035ba8:	e51b2008 	ldr	r2, [fp, #-8]
20035bac:	e2420001 	sub	r0, r2, #1
20035bb0:	e3012eec 	movw	r2, #7916	; 0x1eec
20035bb4:	e3422004 	movt	r2, #8196	; 0x2004
20035bb8:	e3011eec 	movw	r1, #7916	; 0x1eec
20035bbc:	e3421004 	movt	r1, #8196	; 0x2004
20035bc0:	e1a03183 	lsl	r3, r3, #3
20035bc4:	e0823003 	add	r3, r2, r3
20035bc8:	e1a02180 	lsl	r2, r0, #3
20035bcc:	e0812002 	add	r2, r1, r2
20035bd0:	e8920003 	ldm	r2, {r0, r1}
20035bd4:	e8830003 	stm	r3, {r0, r1}
20035bd8:	e51b3010 	ldr	r3, [fp, #-16]
20035bdc:	e2431001 	sub	r1, r3, #1
20035be0:	e3013eec 	movw	r3, #7916	; 0x1eec
20035be4:	e3423004 	movt	r3, #8196	; 0x2004
20035be8:	e3a02004 	mov	r2, #4
20035bec:	e1a01181 	lsl	r1, r1, #3
20035bf0:	e0833001 	add	r3, r3, r1
20035bf4:	e0833002 	add	r3, r3, r2
20035bf8:	e5933000 	ldr	r3, [r3]
20035bfc:	e51b2010 	ldr	r2, [fp, #-16]
20035c00:	e5832000 	str	r2, [r3]
20035c04:	e51b3008 	ldr	r3, [fp, #-8]
20035c08:	e50b3010 	str	r3, [fp, #-16]
20035c0c:	e51b3010 	ldr	r3, [fp, #-16]
20035c10:	e3530001 	cmp	r3, #1
20035c14:	8affffce 	bhi	20035b54 <_kernel_tmevt_up+0x18>
20035c18:	ea000000 	b	20035c20 <_kernel_tmevt_up+0xe4>
20035c1c:	e1a00000 	nop			; (mov r0, r0)
20035c20:	e51b3010 	ldr	r3, [fp, #-16]
20035c24:	e1a00003 	mov	r0, r3
20035c28:	e28bd000 	add	sp, fp, #0
20035c2c:	e49db004 	pop	{fp}		; (ldr fp, [sp], #4)
20035c30:	e12fff1e 	bx	lr

20035c34 <_kernel_tmevt_down>:
20035c34:	e52db004 	push	{fp}		; (str fp, [sp, #-4]!)
20035c38:	e28db000 	add	fp, sp, #0
20035c3c:	e24dd014 	sub	sp, sp, #20
20035c40:	e50b0010 	str	r0, [fp, #-16]
20035c44:	e50b1014 	str	r1, [fp, #-20]	; 0xffffffec
20035c48:	ea000047 	b	20035d6c <_kernel_tmevt_down+0x138>
20035c4c:	e51b3008 	ldr	r3, [fp, #-8]
20035c50:	e2832001 	add	r2, r3, #1
20035c54:	e30430a8 	movw	r3, #16552	; 0x40a8
20035c58:	e3423005 	movt	r3, #8197	; 0x2005
20035c5c:	e5933000 	ldr	r3, [r3]
20035c60:	e1520003 	cmp	r2, r3
20035c64:	8a000015 	bhi	20035cc0 <_kernel_tmevt_down+0x8c>
20035c68:	e3013eec 	movw	r3, #7916	; 0x1eec
20035c6c:	e3423004 	movt	r3, #8196	; 0x2004
20035c70:	e51b2008 	ldr	r2, [fp, #-8]
20035c74:	e7932182 	ldr	r2, [r3, r2, lsl #3]
20035c78:	e304309c 	movw	r3, #16540	; 0x409c
20035c7c:	e3423005 	movt	r3, #8197	; 0x2005
20035c80:	e5933000 	ldr	r3, [r3]
20035c84:	e0632002 	rsb	r2, r3, r2
20035c88:	e51b3008 	ldr	r3, [fp, #-8]
20035c8c:	e2431001 	sub	r1, r3, #1
20035c90:	e3013eec 	movw	r3, #7916	; 0x1eec
20035c94:	e3423004 	movt	r3, #8196	; 0x2004
20035c98:	e7931181 	ldr	r1, [r3, r1, lsl #3]
20035c9c:	e304309c 	movw	r3, #16540	; 0x409c
20035ca0:	e3423005 	movt	r3, #8197	; 0x2005
20035ca4:	e5933000 	ldr	r3, [r3]
20035ca8:	e0633001 	rsb	r3, r3, r1
20035cac:	e1520003 	cmp	r2, r3
20035cb0:	2a000002 	bcs	20035cc0 <_kernel_tmevt_down+0x8c>
20035cb4:	e51b3008 	ldr	r3, [fp, #-8]
20035cb8:	e2833001 	add	r3, r3, #1
20035cbc:	e50b3008 	str	r3, [fp, #-8]
20035cc0:	e304309c 	movw	r3, #16540	; 0x409c
20035cc4:	e3423005 	movt	r3, #8197	; 0x2005
20035cc8:	e5933000 	ldr	r3, [r3]
20035ccc:	e51b2014 	ldr	r2, [fp, #-20]	; 0xffffffec
20035cd0:	e0632002 	rsb	r2, r3, r2
20035cd4:	e51b3008 	ldr	r3, [fp, #-8]
20035cd8:	e2431001 	sub	r1, r3, #1
20035cdc:	e3013eec 	movw	r3, #7916	; 0x1eec
20035ce0:	e3423004 	movt	r3, #8196	; 0x2004
20035ce4:	e7931181 	ldr	r1, [r3, r1, lsl #3]
20035ce8:	e304309c 	movw	r3, #16540	; 0x409c
20035cec:	e3423005 	movt	r3, #8197	; 0x2005
20035cf0:	e5933000 	ldr	r3, [r3]
20035cf4:	e0633001 	rsb	r3, r3, r1
20035cf8:	e1520003 	cmp	r2, r3
20035cfc:	9a000024 	bls	20035d94 <_kernel_tmevt_down+0x160>
20035d00:	e51b3010 	ldr	r3, [fp, #-16]
20035d04:	e2433001 	sub	r3, r3, #1
20035d08:	e51b2008 	ldr	r2, [fp, #-8]
20035d0c:	e2420001 	sub	r0, r2, #1
20035d10:	e3012eec 	movw	r2, #7916	; 0x1eec
20035d14:	e3422004 	movt	r2, #8196	; 0x2004
20035d18:	e3011eec 	movw	r1, #7916	; 0x1eec
20035d1c:	e3421004 	movt	r1, #8196	; 0x2004
20035d20:	e1a03183 	lsl	r3, r3, #3
20035d24:	e0823003 	add	r3, r2, r3
20035d28:	e1a02180 	lsl	r2, r0, #3
20035d2c:	e0812002 	add	r2, r1, r2
20035d30:	e8920003 	ldm	r2, {r0, r1}
20035d34:	e8830003 	stm	r3, {r0, r1}
20035d38:	e51b3010 	ldr	r3, [fp, #-16]
20035d3c:	e2431001 	sub	r1, r3, #1
20035d40:	e3013eec 	movw	r3, #7916	; 0x1eec
20035d44:	e3423004 	movt	r3, #8196	; 0x2004
20035d48:	e3a02004 	mov	r2, #4
20035d4c:	e1a01181 	lsl	r1, r1, #3
20035d50:	e0833001 	add	r3, r3, r1
20035d54:	e0833002 	add	r3, r3, r2
20035d58:	e5933000 	ldr	r3, [r3]
20035d5c:	e51b2010 	ldr	r2, [fp, #-16]
20035d60:	e5832000 	str	r2, [r3]
20035d64:	e51b3008 	ldr	r3, [fp, #-8]
20035d68:	e50b3010 	str	r3, [fp, #-16]
20035d6c:	e51b3010 	ldr	r3, [fp, #-16]
20035d70:	e1a03083 	lsl	r3, r3, #1
20035d74:	e50b3008 	str	r3, [fp, #-8]
20035d78:	e30430a8 	movw	r3, #16552	; 0x40a8
20035d7c:	e3423005 	movt	r3, #8197	; 0x2005
20035d80:	e5933000 	ldr	r3, [r3]
20035d84:	e51b2008 	ldr	r2, [fp, #-8]
20035d88:	e1520003 	cmp	r2, r3
20035d8c:	9affffae 	bls	20035c4c <_kernel_tmevt_down+0x18>
20035d90:	ea000000 	b	20035d98 <_kernel_tmevt_down+0x164>
20035d94:	e1a00000 	nop			; (mov r0, r0)
20035d98:	e51b3010 	ldr	r3, [fp, #-16]
20035d9c:	e1a00003 	mov	r0, r3
20035da0:	e28bd000 	add	sp, fp, #0
20035da4:	e49db004 	pop	{fp}		; (ldr fp, [sp], #4)
20035da8:	e12fff1e 	bx	lr

20035dac <_kernel_tmevtb_insert>:
20035dac:	e92d4800 	push	{fp, lr}
20035db0:	e28db004 	add	fp, sp, #4
20035db4:	e24dd010 	sub	sp, sp, #16
20035db8:	e50b0010 	str	r0, [fp, #-16]
20035dbc:	e50b1014 	str	r1, [fp, #-20]	; 0xffffffec
20035dc0:	e30430a8 	movw	r3, #16552	; 0x40a8
20035dc4:	e3423005 	movt	r3, #8197	; 0x2005
20035dc8:	e5933000 	ldr	r3, [r3]
20035dcc:	e2832001 	add	r2, r3, #1
20035dd0:	e30430a8 	movw	r3, #16552	; 0x40a8
20035dd4:	e3423005 	movt	r3, #8197	; 0x2005
20035dd8:	e5832000 	str	r2, [r3]
20035ddc:	e30430a8 	movw	r3, #16552	; 0x40a8
20035de0:	e3423005 	movt	r3, #8197	; 0x2005
20035de4:	e5933000 	ldr	r3, [r3]
20035de8:	e1a00003 	mov	r0, r3
20035dec:	e51b1014 	ldr	r1, [fp, #-20]	; 0xffffffec
20035df0:	ebffff51 	bl	20035b3c <_kernel_tmevt_up>
20035df4:	e50b0008 	str	r0, [fp, #-8]
20035df8:	e51b3008 	ldr	r3, [fp, #-8]
20035dfc:	e2432001 	sub	r2, r3, #1
20035e00:	e3013eec 	movw	r3, #7916	; 0x1eec
20035e04:	e3423004 	movt	r3, #8196	; 0x2004
20035e08:	e51b1014 	ldr	r1, [fp, #-20]	; 0xffffffec
20035e0c:	e7831182 	str	r1, [r3, r2, lsl #3]
20035e10:	e51b3008 	ldr	r3, [fp, #-8]
20035e14:	e2431001 	sub	r1, r3, #1
20035e18:	e3013eec 	movw	r3, #7916	; 0x1eec
20035e1c:	e3423004 	movt	r3, #8196	; 0x2004
20035e20:	e3a02004 	mov	r2, #4
20035e24:	e1a01181 	lsl	r1, r1, #3
20035e28:	e0833001 	add	r3, r3, r1
20035e2c:	e0833002 	add	r3, r3, r2
20035e30:	e51b2010 	ldr	r2, [fp, #-16]
20035e34:	e5832000 	str	r2, [r3]
20035e38:	e51b3010 	ldr	r3, [fp, #-16]
20035e3c:	e51b2008 	ldr	r2, [fp, #-8]
20035e40:	e5832000 	str	r2, [r3]
20035e44:	e24bd004 	sub	sp, fp, #4
20035e48:	e8bd8800 	pop	{fp, pc}

20035e4c <_kernel_tmevtb_delete>:
20035e4c:	e92d4800 	push	{fp, lr}
20035e50:	e28db004 	add	fp, sp, #4
20035e54:	e24dd018 	sub	sp, sp, #24
20035e58:	e50b0018 	str	r0, [fp, #-24]	; 0xffffffe8
20035e5c:	e51b3018 	ldr	r3, [fp, #-24]	; 0xffffffe8
20035e60:	e5933000 	ldr	r3, [r3]
20035e64:	e50b3008 	str	r3, [fp, #-8]
20035e68:	e30430a8 	movw	r3, #16552	; 0x40a8
20035e6c:	e3423005 	movt	r3, #8197	; 0x2005
20035e70:	e5933000 	ldr	r3, [r3]
20035e74:	e2432001 	sub	r2, r3, #1
20035e78:	e3013eec 	movw	r3, #7916	; 0x1eec
20035e7c:	e3423004 	movt	r3, #8196	; 0x2004
20035e80:	e7933182 	ldr	r3, [r3, r2, lsl #3]
20035e84:	e50b300c 	str	r3, [fp, #-12]
20035e88:	e30430a8 	movw	r3, #16552	; 0x40a8
20035e8c:	e3423005 	movt	r3, #8197	; 0x2005
20035e90:	e5933000 	ldr	r3, [r3]
20035e94:	e2432001 	sub	r2, r3, #1
20035e98:	e30430a8 	movw	r3, #16552	; 0x40a8
20035e9c:	e3423005 	movt	r3, #8197	; 0x2005
20035ea0:	e5832000 	str	r2, [r3]
20035ea4:	e30430a8 	movw	r3, #16552	; 0x40a8
20035ea8:	e3423005 	movt	r3, #8197	; 0x2005
20035eac:	e5933000 	ldr	r3, [r3]
20035eb0:	e3530000 	cmp	r3, #0
20035eb4:	0a000052 	beq	20036004 <_kernel_tmevtb_delete+0x1b8>
20035eb8:	e51b3008 	ldr	r3, [fp, #-8]
20035ebc:	e3530001 	cmp	r3, #1
20035ec0:	9a000030 	bls	20035f88 <_kernel_tmevtb_delete+0x13c>
20035ec4:	e304309c 	movw	r3, #16540	; 0x409c
20035ec8:	e3423005 	movt	r3, #8197	; 0x2005
20035ecc:	e5933000 	ldr	r3, [r3]
20035ed0:	e51b200c 	ldr	r2, [fp, #-12]
20035ed4:	e0632002 	rsb	r2, r3, r2
20035ed8:	e51b3008 	ldr	r3, [fp, #-8]
20035edc:	e1a030a3 	lsr	r3, r3, #1
20035ee0:	e50b3010 	str	r3, [fp, #-16]
20035ee4:	e51b3010 	ldr	r3, [fp, #-16]
20035ee8:	e2431001 	sub	r1, r3, #1
20035eec:	e3013eec 	movw	r3, #7916	; 0x1eec
20035ef0:	e3423004 	movt	r3, #8196	; 0x2004
20035ef4:	e7931181 	ldr	r1, [r3, r1, lsl #3]
20035ef8:	e304309c 	movw	r3, #16540	; 0x409c
20035efc:	e3423005 	movt	r3, #8197	; 0x2005
20035f00:	e5933000 	ldr	r3, [r3]
20035f04:	e0633001 	rsb	r3, r3, r1
20035f08:	e1520003 	cmp	r2, r3
20035f0c:	2a00001d 	bcs	20035f88 <_kernel_tmevtb_delete+0x13c>
20035f10:	e51b3008 	ldr	r3, [fp, #-8]
20035f14:	e2433001 	sub	r3, r3, #1
20035f18:	e51b2010 	ldr	r2, [fp, #-16]
20035f1c:	e2420001 	sub	r0, r2, #1
20035f20:	e3012eec 	movw	r2, #7916	; 0x1eec
20035f24:	e3422004 	movt	r2, #8196	; 0x2004
20035f28:	e3011eec 	movw	r1, #7916	; 0x1eec
20035f2c:	e3421004 	movt	r1, #8196	; 0x2004
20035f30:	e1a03183 	lsl	r3, r3, #3
20035f34:	e0823003 	add	r3, r2, r3
20035f38:	e1a02180 	lsl	r2, r0, #3
20035f3c:	e0812002 	add	r2, r1, r2
20035f40:	e8920003 	ldm	r2, {r0, r1}
20035f44:	e8830003 	stm	r3, {r0, r1}
20035f48:	e51b3008 	ldr	r3, [fp, #-8]
20035f4c:	e2431001 	sub	r1, r3, #1
20035f50:	e3013eec 	movw	r3, #7916	; 0x1eec
20035f54:	e3423004 	movt	r3, #8196	; 0x2004
20035f58:	e3a02004 	mov	r2, #4
20035f5c:	e1a01181 	lsl	r1, r1, #3
20035f60:	e0833001 	add	r3, r3, r1
20035f64:	e0833002 	add	r3, r3, r2
20035f68:	e5933000 	ldr	r3, [r3]
20035f6c:	e51b2008 	ldr	r2, [fp, #-8]
20035f70:	e5832000 	str	r2, [r3]
20035f74:	e51b0010 	ldr	r0, [fp, #-16]
20035f78:	e51b100c 	ldr	r1, [fp, #-12]
20035f7c:	ebfffeee 	bl	20035b3c <_kernel_tmevt_up>
20035f80:	e50b0008 	str	r0, [fp, #-8]
20035f84:	ea000003 	b	20035f98 <_kernel_tmevtb_delete+0x14c>
20035f88:	e51b0008 	ldr	r0, [fp, #-8]
20035f8c:	e51b100c 	ldr	r1, [fp, #-12]
20035f90:	ebffff27 	bl	20035c34 <_kernel_tmevt_down>
20035f94:	e50b0008 	str	r0, [fp, #-8]
20035f98:	e51b3008 	ldr	r3, [fp, #-8]
20035f9c:	e243c001 	sub	ip, r3, #1
20035fa0:	e30430a8 	movw	r3, #16552	; 0x40a8
20035fa4:	e3423005 	movt	r3, #8197	; 0x2005
20035fa8:	e5930000 	ldr	r0, [r3]
20035fac:	e3012eec 	movw	r2, #7916	; 0x1eec
20035fb0:	e3422004 	movt	r2, #8196	; 0x2004
20035fb4:	e3011eec 	movw	r1, #7916	; 0x1eec
20035fb8:	e3421004 	movt	r1, #8196	; 0x2004
20035fbc:	e1a0318c 	lsl	r3, ip, #3
20035fc0:	e0823003 	add	r3, r2, r3
20035fc4:	e1a02180 	lsl	r2, r0, #3
20035fc8:	e0812002 	add	r2, r1, r2
20035fcc:	e8920003 	ldm	r2, {r0, r1}
20035fd0:	e8830003 	stm	r3, {r0, r1}
20035fd4:	e51b3008 	ldr	r3, [fp, #-8]
20035fd8:	e2431001 	sub	r1, r3, #1
20035fdc:	e3013eec 	movw	r3, #7916	; 0x1eec
20035fe0:	e3423004 	movt	r3, #8196	; 0x2004
20035fe4:	e3a02004 	mov	r2, #4
20035fe8:	e1a01181 	lsl	r1, r1, #3
20035fec:	e0833001 	add	r3, r3, r1
20035ff0:	e0833002 	add	r3, r3, r2
20035ff4:	e5933000 	ldr	r3, [r3]
20035ff8:	e51b2008 	ldr	r2, [fp, #-8]
20035ffc:	e5832000 	str	r2, [r3]
20036000:	ea000000 	b	20036008 <_kernel_tmevtb_delete+0x1bc>
20036004:	e1a00000 	nop			; (mov r0, r0)
20036008:	e24bd004 	sub	sp, fp, #4
2003600c:	e8bd8800 	pop	{fp, pc}

20036010 <tmevtb_delete_top>:
20036010:	e92d4800 	push	{fp, lr}
20036014:	e28db004 	add	fp, sp, #4
20036018:	e24dd008 	sub	sp, sp, #8
2003601c:	e30430a8 	movw	r3, #16552	; 0x40a8
20036020:	e3423005 	movt	r3, #8197	; 0x2005
20036024:	e5933000 	ldr	r3, [r3]
20036028:	e2432001 	sub	r2, r3, #1
2003602c:	e3013eec 	movw	r3, #7916	; 0x1eec
20036030:	e3423004 	movt	r3, #8196	; 0x2004
20036034:	e7933182 	ldr	r3, [r3, r2, lsl #3]
20036038:	e50b3008 	str	r3, [fp, #-8]
2003603c:	e30430a8 	movw	r3, #16552	; 0x40a8
20036040:	e3423005 	movt	r3, #8197	; 0x2005
20036044:	e5933000 	ldr	r3, [r3]
20036048:	e2432001 	sub	r2, r3, #1
2003604c:	e30430a8 	movw	r3, #16552	; 0x40a8
20036050:	e3423005 	movt	r3, #8197	; 0x2005
20036054:	e5832000 	str	r2, [r3]
20036058:	e30430a8 	movw	r3, #16552	; 0x40a8
2003605c:	e3423005 	movt	r3, #8197	; 0x2005
20036060:	e5933000 	ldr	r3, [r3]
20036064:	e3530000 	cmp	r3, #0
20036068:	0a00001e 	beq	200360e8 <tmevtb_delete_top+0xd8>
2003606c:	e3a00001 	mov	r0, #1
20036070:	e51b1008 	ldr	r1, [fp, #-8]
20036074:	ebfffeee 	bl	20035c34 <_kernel_tmevt_down>
20036078:	e50b000c 	str	r0, [fp, #-12]
2003607c:	e51b300c 	ldr	r3, [fp, #-12]
20036080:	e243c001 	sub	ip, r3, #1
20036084:	e30430a8 	movw	r3, #16552	; 0x40a8
20036088:	e3423005 	movt	r3, #8197	; 0x2005
2003608c:	e5930000 	ldr	r0, [r3]
20036090:	e3012eec 	movw	r2, #7916	; 0x1eec
20036094:	e3422004 	movt	r2, #8196	; 0x2004
20036098:	e3011eec 	movw	r1, #7916	; 0x1eec
2003609c:	e3421004 	movt	r1, #8196	; 0x2004
200360a0:	e1a0318c 	lsl	r3, ip, #3
200360a4:	e0823003 	add	r3, r2, r3
200360a8:	e1a02180 	lsl	r2, r0, #3
200360ac:	e0812002 	add	r2, r1, r2
200360b0:	e8920003 	ldm	r2, {r0, r1}
200360b4:	e8830003 	stm	r3, {r0, r1}
200360b8:	e51b300c 	ldr	r3, [fp, #-12]
200360bc:	e2431001 	sub	r1, r3, #1
200360c0:	e3013eec 	movw	r3, #7916	; 0x1eec
200360c4:	e3423004 	movt	r3, #8196	; 0x2004
200360c8:	e3a02004 	mov	r2, #4
200360cc:	e1a01181 	lsl	r1, r1, #3
200360d0:	e0833001 	add	r3, r3, r1
200360d4:	e0833002 	add	r3, r3, r2
200360d8:	e5933000 	ldr	r3, [r3]
200360dc:	e51b200c 	ldr	r2, [fp, #-12]
200360e0:	e5832000 	str	r2, [r3]
200360e4:	ea000000 	b	200360ec <tmevtb_delete_top+0xdc>
200360e8:	e1a00000 	nop			; (mov r0, r0)
200360ec:	e24bd004 	sub	sp, fp, #4
200360f0:	e8bd8800 	pop	{fp, pc}

200360f4 <_kernel_tmevt_lefttim>:
200360f4:	e52db004 	push	{fp}		; (str fp, [sp, #-4]!)
200360f8:	e28db000 	add	fp, sp, #0
200360fc:	e24dd014 	sub	sp, sp, #20
20036100:	e50b0010 	str	r0, [fp, #-16]
20036104:	e51b3010 	ldr	r3, [fp, #-16]
20036108:	e5933000 	ldr	r3, [r3]
2003610c:	e2432001 	sub	r2, r3, #1
20036110:	e3013eec 	movw	r3, #7916	; 0x1eec
20036114:	e3423004 	movt	r3, #8196	; 0x2004
20036118:	e7933182 	ldr	r3, [r3, r2, lsl #3]
2003611c:	e50b3008 	str	r3, [fp, #-8]
20036120:	e304309c 	movw	r3, #16540	; 0x409c
20036124:	e3423005 	movt	r3, #8197	; 0x2005
20036128:	e5933000 	ldr	r3, [r3]
2003612c:	e51b2008 	ldr	r2, [fp, #-8]
20036130:	e0632002 	rsb	r2, r3, r2
20036134:	e30430a4 	movw	r3, #16548	; 0x40a4
20036138:	e3423005 	movt	r3, #8197	; 0x2005
2003613c:	e5931000 	ldr	r1, [r3]
20036140:	e304309c 	movw	r3, #16540	; 0x409c
20036144:	e3423005 	movt	r3, #8197	; 0x2005
20036148:	e5933000 	ldr	r3, [r3]
2003614c:	e0633001 	rsb	r3, r3, r1
20036150:	e1520003 	cmp	r2, r3
20036154:	8a000001 	bhi	20036160 <_kernel_tmevt_lefttim+0x6c>
20036158:	e3a03000 	mov	r3, #0
2003615c:	ea000004 	b	20036174 <_kernel_tmevt_lefttim+0x80>
20036160:	e30430a4 	movw	r3, #16548	; 0x40a4
20036164:	e3423005 	movt	r3, #8197	; 0x2005
20036168:	e5933000 	ldr	r3, [r3]
2003616c:	e51b2008 	ldr	r2, [fp, #-8]
20036170:	e0633002 	rsb	r3, r3, r2
20036174:	e1a00003 	mov	r0, r3
20036178:	e28bd000 	add	sp, fp, #0
2003617c:	e49db004 	pop	{fp}		; (ldr fp, [sp], #4)
20036180:	e12fff1e 	bx	lr

20036184 <_kernel_signal_time>:
20036184:	e92d4800 	push	{fp, lr}
20036188:	e28db004 	add	fp, sp, #4
2003618c:	e24dd010 	sub	sp, sp, #16
20036190:	ebfffe28 	bl	20035a38 <sense_context>
20036194:	e1a03000 	mov	r3, r0
20036198:	e3530000 	cmp	r3, #0
2003619c:	1a00000a 	bne	200361cc <_kernel_signal_time+0x48>
200361a0:	e30b3328 	movw	r3, #45864	; 0xb328
200361a4:	e3423003 	movt	r3, #8195	; 0x2003
200361a8:	e30b2348 	movw	r2, #45896	; 0xb348
200361ac:	e3422003 	movt	r2, #8195	; 0x2003
200361b0:	e58d2000 	str	r2, [sp]
200361b4:	e3a00000 	mov	r0, #0
200361b8:	e3a01002 	mov	r1, #2
200361bc:	e1a02003 	mov	r2, r3
200361c0:	e3a03f59 	mov	r3, #356	; 0x164
200361c4:	ebfffdf3 	bl	20035998 <_syslog_3>
200361c8:	ebfffdef 	bl	2003598c <TOPPERS_assert_abort>
200361cc:	ebfffe36 	bl	20035aac <x_sense_lock>
200361d0:	e1a03000 	mov	r3, r0
200361d4:	e3530000 	cmp	r3, #0
200361d8:	0a00000a 	beq	20036208 <_kernel_signal_time+0x84>
200361dc:	e30b3328 	movw	r3, #45864	; 0xb328
200361e0:	e3423003 	movt	r3, #8195	; 0x2003
200361e4:	e30b2358 	movw	r2, #45912	; 0xb358
200361e8:	e3422003 	movt	r2, #8195	; 0x2003
200361ec:	e58d2000 	str	r2, [sp]
200361f0:	e3a00000 	mov	r0, #0
200361f4:	e3a01002 	mov	r1, #2
200361f8:	e1a02003 	mov	r2, r3
200361fc:	e3003165 	movw	r3, #357	; 0x165
20036200:	ebfffde4 	bl	20035998 <_syslog_3>
20036204:	ebfffde0 	bl	2003598c <TOPPERS_assert_abort>
20036208:	ebfffe16 	bl	20035a68 <x_lock_cpu>
2003620c:	e30430a4 	movw	r3, #16548	; 0x40a4
20036210:	e3423005 	movt	r3, #8197	; 0x2005
20036214:	e5932000 	ldr	r2, [r3]
20036218:	e30430a0 	movw	r3, #16544	; 0x40a0
2003621c:	e3423005 	movt	r3, #8197	; 0x2005
20036220:	e5832000 	str	r2, [r3]
20036224:	e30430a0 	movw	r3, #16544	; 0x40a0
20036228:	e3423005 	movt	r3, #8197	; 0x2005
2003622c:	e5933000 	ldr	r3, [r3]
20036230:	e2832001 	add	r2, r3, #1
20036234:	e30430a4 	movw	r3, #16548	; 0x40a4
20036238:	e3423005 	movt	r3, #8197	; 0x2005
2003623c:	e5832000 	str	r2, [r3]
20036240:	ea00000a 	b	20036270 <_kernel_signal_time+0xec>
20036244:	e3013eec 	movw	r3, #7916	; 0x1eec
20036248:	e3423004 	movt	r3, #8196	; 0x2004
2003624c:	e5933004 	ldr	r3, [r3, #4]
20036250:	e50b3008 	str	r3, [fp, #-8]
20036254:	ebffff6d 	bl	20036010 <tmevtb_delete_top>
20036258:	e51b3008 	ldr	r3, [fp, #-8]
2003625c:	e5933004 	ldr	r3, [r3, #4]
20036260:	e51b2008 	ldr	r2, [fp, #-8]
20036264:	e5922008 	ldr	r2, [r2, #8]
20036268:	e1a00002 	mov	r0, r2
2003626c:	e12fff33 	blx	r3
20036270:	e30430a8 	movw	r3, #16552	; 0x40a8
20036274:	e3423005 	movt	r3, #8197	; 0x2005
20036278:	e5933000 	ldr	r3, [r3]
2003627c:	e3530000 	cmp	r3, #0
20036280:	0a00000f 	beq	200362c4 <_kernel_signal_time+0x140>
20036284:	e3013eec 	movw	r3, #7916	; 0x1eec
20036288:	e3423004 	movt	r3, #8196	; 0x2004
2003628c:	e5932000 	ldr	r2, [r3]
20036290:	e304309c 	movw	r3, #16540	; 0x409c
20036294:	e3423005 	movt	r3, #8197	; 0x2005
20036298:	e5933000 	ldr	r3, [r3]
2003629c:	e0632002 	rsb	r2, r3, r2
200362a0:	e30430a0 	movw	r3, #16544	; 0x40a0
200362a4:	e3423005 	movt	r3, #8197	; 0x2005
200362a8:	e5931000 	ldr	r1, [r3]
200362ac:	e304309c 	movw	r3, #16540	; 0x409c
200362b0:	e3423005 	movt	r3, #8197	; 0x2005
200362b4:	e5933000 	ldr	r3, [r3]
200362b8:	e0633001 	rsb	r3, r3, r1
200362bc:	e1520003 	cmp	r2, r3
200362c0:	9affffdf 	bls	20036244 <_kernel_signal_time+0xc0>
200362c4:	e30430a0 	movw	r3, #16544	; 0x40a0
200362c8:	e3423005 	movt	r3, #8197	; 0x2005
200362cc:	e5932000 	ldr	r2, [r3]
200362d0:	e304309c 	movw	r3, #16540	; 0x409c
200362d4:	e3423005 	movt	r3, #8197	; 0x2005
200362d8:	e5832000 	str	r2, [r3]
200362dc:	ebfffde9 	bl	20035a88 <x_unlock_cpu>
200362e0:	e24bd004 	sub	sp, fp, #4
200362e4:	e8bd8800 	pop	{fp, pc}

200362e8 <sil_rew_mem>:
200362e8:	e52db004 	push	{fp}		; (str fp, [sp, #-4]!)
200362ec:	e28db000 	add	fp, sp, #0
200362f0:	e24dd014 	sub	sp, sp, #20
200362f4:	e50b0010 	str	r0, [fp, #-16]
200362f8:	e51b3010 	ldr	r3, [fp, #-16]
200362fc:	e5933000 	ldr	r3, [r3]
20036300:	e50b3008 	str	r3, [fp, #-8]
20036304:	e51b3008 	ldr	r3, [fp, #-8]
20036308:	e1a00003 	mov	r0, r3
2003630c:	e28bd000 	add	sp, fp, #0
20036310:	e49db004 	pop	{fp}		; (ldr fp, [sp], #4)
20036314:	e12fff1e 	bx	lr

20036318 <sil_wrw_mem>:
20036318:	e52db004 	push	{fp}		; (str fp, [sp, #-4]!)
2003631c:	e28db000 	add	fp, sp, #0
20036320:	e24dd00c 	sub	sp, sp, #12
20036324:	e50b0008 	str	r0, [fp, #-8]
20036328:	e50b100c 	str	r1, [fp, #-12]
2003632c:	e51b3008 	ldr	r3, [fp, #-8]
20036330:	e51b200c 	ldr	r2, [fp, #-12]
20036334:	e5832000 	str	r2, [r3]
20036338:	e28bd000 	add	sp, fp, #0
2003633c:	e49db004 	pop	{fp}		; (ldr fp, [sp], #4)
20036340:	e12fff1e 	bx	lr

20036344 <tzic_unlock>:
20036344:	e92d4800 	push	{fp, lr}
20036348:	e28db004 	add	fp, sp, #4
2003634c:	e30f001c 	movw	r0, #61468	; 0xf01c
20036350:	e3410011 	movt	r0, #4113	; 0x1011
20036354:	e30e1550 	movw	r1, #58704	; 0xe550
20036358:	e3401acc 	movt	r1, #2764	; 0xacc
2003635c:	ebffffed 	bl	20036318 <sil_wrw_mem>
20036360:	e8bd8800 	pop	{fp, pc}

20036364 <tzic_lock>:
20036364:	e92d4800 	push	{fp, lr}
20036368:	e28db004 	add	fp, sp, #4
2003636c:	e30f001c 	movw	r0, #61468	; 0xf01c
20036370:	e3410011 	movt	r0, #4113	; 0x1011
20036374:	e3a01000 	mov	r1, #0
20036378:	ebffffe6 	bl	20036318 <sil_wrw_mem>
2003637c:	e8bd8800 	pop	{fp, pc}

20036380 <tzic_disable_int>:
20036380:	e92d4800 	push	{fp, lr}
20036384:	e28db004 	add	fp, sp, #4
20036388:	e24dd008 	sub	sp, sp, #8
2003638c:	e50b0008 	str	r0, [fp, #-8]
20036390:	ebffffeb 	bl	20036344 <tzic_unlock>
20036394:	e30f0010 	movw	r0, #61456	; 0xf010
20036398:	e3410011 	movt	r0, #4113	; 0x1011
2003639c:	ebffffd1 	bl	200362e8 <sil_rew_mem>
200363a0:	e1a02000 	mov	r2, r0
200363a4:	e51b3008 	ldr	r3, [fp, #-8]
200363a8:	e1823003 	orr	r3, r2, r3
200363ac:	e30f0010 	movw	r0, #61456	; 0xf010
200363b0:	e3410011 	movt	r0, #4113	; 0x1011
200363b4:	e1a01003 	mov	r1, r3
200363b8:	ebffffd6 	bl	20036318 <sil_wrw_mem>
200363bc:	ebffffe8 	bl	20036364 <tzic_lock>
200363c0:	e24bd004 	sub	sp, fp, #4
200363c4:	e8bd8800 	pop	{fp, pc}

200363c8 <tzic_enable_int>:
200363c8:	e92d4800 	push	{fp, lr}
200363cc:	e28db004 	add	fp, sp, #4
200363d0:	e24dd008 	sub	sp, sp, #8
200363d4:	e50b0008 	str	r0, [fp, #-8]
200363d8:	ebffffd9 	bl	20036344 <tzic_unlock>
200363dc:	e30f000c 	movw	r0, #61452	; 0xf00c
200363e0:	e3410011 	movt	r0, #4113	; 0x1011
200363e4:	ebffffbf 	bl	200362e8 <sil_rew_mem>
200363e8:	e1a02000 	mov	r2, r0
200363ec:	e51b3008 	ldr	r3, [fp, #-8]
200363f0:	e1823003 	orr	r3, r2, r3
200363f4:	e30f000c 	movw	r0, #61452	; 0xf00c
200363f8:	e3410011 	movt	r0, #4113	; 0x1011
200363fc:	e1a01003 	mov	r1, r3
20036400:	ebffffc4 	bl	20036318 <sil_wrw_mem>
20036404:	ebffffd6 	bl	20036364 <tzic_lock>
20036408:	e24bd004 	sub	sp, fp, #4
2003640c:	e8bd8800 	pop	{fp, pc}

20036410 <x_set_ipm>:
20036410:	e92d4800 	push	{fp, lr}
20036414:	e28db004 	add	fp, sp, #4
20036418:	e24dd010 	sub	sp, sp, #16
2003641c:	e50b0010 	str	r0, [fp, #-16]
20036420:	e51b3010 	ldr	r3, [fp, #-16]
20036424:	e3530000 	cmp	r3, #0
20036428:	1a000002 	bne	20036438 <x_set_ipm+0x28>
2003642c:	e3a03000 	mov	r3, #0
20036430:	e50b3008 	str	r3, [fp, #-8]
20036434:	ea000005 	b	20036450 <x_set_ipm+0x40>
20036438:	e51b3010 	ldr	r3, [fp, #-16]
2003643c:	e1e02003 	mvn	r2, r3
20036440:	e30a3fec 	movw	r3, #45036	; 0xafec
20036444:	e3423003 	movt	r3, #8195	; 0x2003
20036448:	e7933102 	ldr	r3, [r3, r2, lsl #2]
2003644c:	e50b3008 	str	r3, [fp, #-8]
20036450:	e3e00000 	mvn	r0, #0
20036454:	ebffffc9 	bl	20036380 <tzic_disable_int>
20036458:	e3013fac 	movw	r3, #8108	; 0x1fac
2003645c:	e3423004 	movt	r3, #8196	; 0x2004
20036460:	e5932000 	ldr	r2, [r3]
20036464:	e51b3008 	ldr	r3, [fp, #-8]
20036468:	e1823003 	orr	r3, r2, r3
2003646c:	e1e03003 	mvn	r3, r3
20036470:	e1a00003 	mov	r0, r3
20036474:	ebffffd3 	bl	200363c8 <tzic_enable_int>
20036478:	e3013fa8 	movw	r3, #8104	; 0x1fa8
2003647c:	e3423004 	movt	r3, #8196	; 0x2004
20036480:	e51b2010 	ldr	r2, [fp, #-16]
20036484:	e5832000 	str	r2, [r3]
20036488:	e24bd004 	sub	sp, fp, #4
2003648c:	e8bd8800 	pop	{fp, pc}

20036490 <x_get_ipm>:
20036490:	e52db004 	push	{fp}		; (str fp, [sp, #-4]!)
20036494:	e28db000 	add	fp, sp, #0
20036498:	e3013fa8 	movw	r3, #8104	; 0x1fa8
2003649c:	e3423004 	movt	r3, #8196	; 0x2004
200364a0:	e5933000 	ldr	r3, [r3]
200364a4:	e1a00003 	mov	r0, r3
200364a8:	e28bd000 	add	sp, fp, #0
200364ac:	e49db004 	pop	{fp}		; (ldr fp, [sp], #4)
200364b0:	e12fff1e 	bx	lr

200364b4 <current_sr>:
200364b4:	e92d0810 	push	{r4, fp}
200364b8:	e28db004 	add	fp, sp, #4
200364bc:	e24dd008 	sub	sp, sp, #8
200364c0:	e10f4000 	mrs	r4, CPSR
200364c4:	e50b4008 	str	r4, [fp, #-8]
200364c8:	e51b3008 	ldr	r3, [fp, #-8]
200364cc:	e1a00003 	mov	r0, r3
200364d0:	e24bd004 	sub	sp, fp, #4
200364d4:	e8bd0810 	pop	{r4, fp}
200364d8:	e12fff1e 	bx	lr

200364dc <set_sr>:
200364dc:	e52db004 	push	{fp}		; (str fp, [sp, #-4]!)
200364e0:	e28db000 	add	fp, sp, #0
200364e4:	e24dd00c 	sub	sp, sp, #12
200364e8:	e50b0008 	str	r0, [fp, #-8]
200364ec:	e51b3008 	ldr	r3, [fp, #-8]
200364f0:	e129f003 	msr	CPSR_fc, r3
200364f4:	e28bd000 	add	sp, fp, #0
200364f8:	e49db004 	pop	{fp}		; (ldr fp, [sp], #4)
200364fc:	e12fff1e 	bx	lr

20036500 <sense_context>:
20036500:	e52db004 	push	{fp}		; (str fp, [sp, #-4]!)
20036504:	e28db000 	add	fp, sp, #0
20036508:	e3043000 	movw	r3, #16384	; 0x4000
2003650c:	e3423005 	movt	r3, #8197	; 0x2005
20036510:	e5933000 	ldr	r3, [r3]
20036514:	e3530000 	cmp	r3, #0
20036518:	03a03000 	moveq	r3, #0
2003651c:	13a03001 	movne	r3, #1
20036520:	e1a00003 	mov	r0, r3
20036524:	e28bd000 	add	sp, fp, #0
20036528:	e49db004 	pop	{fp}		; (ldr fp, [sp], #4)
2003652c:	e12fff1e 	bx	lr

20036530 <x_lock_cpu>:
20036530:	e92d4800 	push	{fp, lr}
20036534:	e28db004 	add	fp, sp, #4
20036538:	ebffffdd 	bl	200364b4 <current_sr>
2003653c:	e1a03000 	mov	r3, r0
20036540:	e38330c0 	orr	r3, r3, #192	; 0xc0
20036544:	e1a00003 	mov	r0, r3
20036548:	ebffffe3 	bl	200364dc <set_sr>
2003654c:	e8bd8800 	pop	{fp, pc}

20036550 <x_unlock_cpu>:
20036550:	e92d4800 	push	{fp, lr}
20036554:	e28db004 	add	fp, sp, #4
20036558:	ebffffd5 	bl	200364b4 <current_sr>
2003655c:	e1a03000 	mov	r3, r0
20036560:	e3c330c0 	bic	r3, r3, #192	; 0xc0
20036564:	e3833080 	orr	r3, r3, #128	; 0x80
20036568:	e1a00003 	mov	r0, r3
2003656c:	ebffffda 	bl	200364dc <set_sr>
20036570:	e8bd8800 	pop	{fp, pc}

20036574 <x_sense_lock>:
20036574:	e92d4800 	push	{fp, lr}
20036578:	e28db004 	add	fp, sp, #4
2003657c:	ebffffcc 	bl	200364b4 <current_sr>
20036580:	e1a03000 	mov	r3, r0
20036584:	e20330c0 	and	r3, r3, #192	; 0xc0
20036588:	e35300c0 	cmp	r3, #192	; 0xc0
2003658c:	13a03000 	movne	r3, #0
20036590:	03a03001 	moveq	r3, #1
20036594:	e1a00003 	mov	r0, r3
20036598:	e8bd8800 	pop	{fp, pc}

2003659c <queue_delete>:
2003659c:	e52db004 	push	{fp}		; (str fp, [sp, #-4]!)
200365a0:	e28db000 	add	fp, sp, #0
200365a4:	e24dd00c 	sub	sp, sp, #12
200365a8:	e50b0008 	str	r0, [fp, #-8]
200365ac:	e51b3008 	ldr	r3, [fp, #-8]
200365b0:	e5933004 	ldr	r3, [r3, #4]
200365b4:	e51b2008 	ldr	r2, [fp, #-8]
200365b8:	e5922000 	ldr	r2, [r2]
200365bc:	e5832000 	str	r2, [r3]
200365c0:	e51b3008 	ldr	r3, [fp, #-8]
200365c4:	e5933000 	ldr	r3, [r3]
200365c8:	e51b2008 	ldr	r2, [fp, #-8]
200365cc:	e5922004 	ldr	r2, [r2, #4]
200365d0:	e5832004 	str	r2, [r3, #4]
200365d4:	e28bd000 	add	sp, fp, #0
200365d8:	e49db004 	pop	{fp}		; (ldr fp, [sp], #4)
200365dc:	e12fff1e 	bx	lr

200365e0 <tmevtb_dequeue>:
200365e0:	e92d4800 	push	{fp, lr}
200365e4:	e28db004 	add	fp, sp, #4
200365e8:	e24dd008 	sub	sp, sp, #8
200365ec:	e50b0008 	str	r0, [fp, #-8]
200365f0:	e51b0008 	ldr	r0, [fp, #-8]
200365f4:	ebfffe14 	bl	20035e4c <_kernel_tmevtb_delete>
200365f8:	e24bd004 	sub	sp, fp, #4
200365fc:	e8bd8800 	pop	{fp, pc}

20036600 <wait_dequeue_wobj>:
20036600:	e92d4800 	push	{fp, lr}
20036604:	e28db004 	add	fp, sp, #4
20036608:	e24dd008 	sub	sp, sp, #8
2003660c:	e50b0008 	str	r0, [fp, #-8]
20036610:	e51b3008 	ldr	r3, [fp, #-8]
20036614:	e5d3300c 	ldrb	r3, [r3, #12]
20036618:	e2033078 	and	r3, r3, #120	; 0x78
2003661c:	e353000f 	cmp	r3, #15
20036620:	9a000002 	bls	20036630 <wait_dequeue_wobj+0x30>
20036624:	e51b3008 	ldr	r3, [fp, #-8]
20036628:	e1a00003 	mov	r0, r3
2003662c:	ebffffda 	bl	2003659c <queue_delete>
20036630:	e24bd004 	sub	sp, fp, #4
20036634:	e8bd8800 	pop	{fp, pc}

20036638 <wait_dequeue_tmevtb>:
20036638:	e92d4800 	push	{fp, lr}
2003663c:	e28db004 	add	fp, sp, #4
20036640:	e24dd008 	sub	sp, sp, #8
20036644:	e50b0008 	str	r0, [fp, #-8]
20036648:	e51b3008 	ldr	r3, [fp, #-8]
2003664c:	e5933014 	ldr	r3, [r3, #20]
20036650:	e5933000 	ldr	r3, [r3]
20036654:	e3530000 	cmp	r3, #0
20036658:	0a000004 	beq	20036670 <wait_dequeue_tmevtb+0x38>
2003665c:	e51b3008 	ldr	r3, [fp, #-8]
20036660:	e5933014 	ldr	r3, [r3, #20]
20036664:	e5933000 	ldr	r3, [r3]
20036668:	e1a00003 	mov	r0, r3
2003666c:	ebffffdb 	bl	200365e0 <tmevtb_dequeue>
20036670:	e24bd004 	sub	sp, fp, #4
20036674:	e8bd8800 	pop	{fp, pc}

20036678 <act_tsk>:
20036678:	e92d4800 	push	{fp, lr}
2003667c:	e28db004 	add	fp, sp, #4
20036680:	e24dd010 	sub	sp, sp, #16
20036684:	e50b0010 	str	r0, [fp, #-16]
20036688:	ebffff9c 	bl	20036500 <sense_context>
2003668c:	e1a03000 	mov	r3, r0
20036690:	e3530000 	cmp	r3, #0
20036694:	1a000003 	bne	200366a8 <act_tsk+0x30>
20036698:	ebffffb5 	bl	20036574 <x_sense_lock>
2003669c:	e1a03000 	mov	r3, r0
200366a0:	e3530000 	cmp	r3, #0
200366a4:	0a000002 	beq	200366b4 <act_tsk+0x3c>
200366a8:	e3e03018 	mvn	r3, #24
200366ac:	e50b3008 	str	r3, [fp, #-8]
200366b0:	ea00003e 	b	200367b0 <act_tsk+0x138>
200366b4:	e51b3010 	ldr	r3, [fp, #-16]
200366b8:	e3530000 	cmp	r3, #0
200366bc:	da000005 	ble	200366d8 <act_tsk+0x60>
200366c0:	e30a3df0 	movw	r3, #44528	; 0xadf0
200366c4:	e3423003 	movt	r3, #8195	; 0x2003
200366c8:	e5933000 	ldr	r3, [r3]
200366cc:	e51b2010 	ldr	r2, [fp, #-16]
200366d0:	e1520003 	cmp	r2, r3
200366d4:	da000005 	ble	200366f0 <act_tsk+0x78>
200366d8:	e51b3010 	ldr	r3, [fp, #-16]
200366dc:	e3530000 	cmp	r3, #0
200366e0:	0a000002 	beq	200366f0 <act_tsk+0x78>
200366e4:	e3e03011 	mvn	r3, #17
200366e8:	e50b3008 	str	r3, [fp, #-8]
200366ec:	ea00002f 	b	200367b0 <act_tsk+0x138>
200366f0:	e51b3010 	ldr	r3, [fp, #-16]
200366f4:	e3530000 	cmp	r3, #0
200366f8:	0a00000a 	beq	20036728 <act_tsk+0xb0>
200366fc:	e51b3010 	ldr	r3, [fp, #-16]
20036700:	e2432001 	sub	r2, r3, #1
20036704:	e1a03002 	mov	r3, r2
20036708:	e1a03183 	lsl	r3, r3, #3
2003670c:	e0833002 	add	r3, r3, r2
20036710:	e1a03103 	lsl	r3, r3, #2
20036714:	e1a02003 	mov	r2, r3
20036718:	e3013f14 	movw	r3, #7956	; 0x1f14
2003671c:	e3423004 	movt	r3, #8196	; 0x2004
20036720:	e0823003 	add	r3, r2, r3
20036724:	ea000002 	b	20036734 <act_tsk+0xbc>
20036728:	e3043098 	movw	r3, #16536	; 0x4098
2003672c:	e3423005 	movt	r3, #8197	; 0x2005
20036730:	e5933000 	ldr	r3, [r3]
20036734:	e50b300c 	str	r3, [fp, #-12]
20036738:	ebffff7c 	bl	20036530 <x_lock_cpu>
2003673c:	e51b300c 	ldr	r3, [fp, #-12]
20036740:	e5d3300c 	ldrb	r3, [r3, #12]
20036744:	e3530000 	cmp	r3, #0
20036748:	1a000008 	bne	20036770 <act_tsk+0xf8>
2003674c:	e51b000c 	ldr	r0, [fp, #-12]
20036750:	ebfffb7f 	bl	20035554 <_kernel_make_active>
20036754:	e1a03000 	mov	r3, r0
20036758:	e3530000 	cmp	r3, #0
2003675c:	0a000000 	beq	20036764 <act_tsk+0xec>
20036760:	ebfff248 	bl	20033088 <_kernel_dispatch>
20036764:	e3a03000 	mov	r3, #0
20036768:	e50b3008 	str	r3, [fp, #-8]
2003676c:	ea00000e 	b	200367ac <act_tsk+0x134>
20036770:	e51b300c 	ldr	r3, [fp, #-12]
20036774:	e5d3300e 	ldrb	r3, [r3, #14]
20036778:	e2033001 	and	r3, r3, #1
2003677c:	e6ef3073 	uxtb	r3, r3
20036780:	e3530000 	cmp	r3, #0
20036784:	1a000006 	bne	200367a4 <act_tsk+0x12c>
20036788:	e51b200c 	ldr	r2, [fp, #-12]
2003678c:	e5d2300e 	ldrb	r3, [r2, #14]
20036790:	e3833001 	orr	r3, r3, #1
20036794:	e5c2300e 	strb	r3, [r2, #14]
20036798:	e3a03000 	mov	r3, #0
2003679c:	e50b3008 	str	r3, [fp, #-8]
200367a0:	ea000001 	b	200367ac <act_tsk+0x134>
200367a4:	e3e0302a 	mvn	r3, #42	; 0x2a
200367a8:	e50b3008 	str	r3, [fp, #-8]
200367ac:	ebffff67 	bl	20036550 <x_unlock_cpu>
200367b0:	e51b3008 	ldr	r3, [fp, #-8]
200367b4:	e1a00003 	mov	r0, r3
200367b8:	e24bd004 	sub	sp, fp, #4
200367bc:	e8bd8800 	pop	{fp, pc}

200367c0 <iact_tsk>:
200367c0:	e92d4800 	push	{fp, lr}
200367c4:	e28db004 	add	fp, sp, #4
200367c8:	e24dd010 	sub	sp, sp, #16
200367cc:	e50b0010 	str	r0, [fp, #-16]
200367d0:	ebffff4a 	bl	20036500 <sense_context>
200367d4:	e1a03000 	mov	r3, r0
200367d8:	e3530000 	cmp	r3, #0
200367dc:	0a000003 	beq	200367f0 <iact_tsk+0x30>
200367e0:	ebffff63 	bl	20036574 <x_sense_lock>
200367e4:	e1a03000 	mov	r3, r0
200367e8:	e3530000 	cmp	r3, #0
200367ec:	0a000002 	beq	200367fc <iact_tsk+0x3c>
200367f0:	e3e03018 	mvn	r3, #24
200367f4:	e50b3008 	str	r3, [fp, #-8]
200367f8:	ea000037 	b	200368dc <iact_tsk+0x11c>
200367fc:	e51b3010 	ldr	r3, [fp, #-16]
20036800:	e3530000 	cmp	r3, #0
20036804:	da000005 	ble	20036820 <iact_tsk+0x60>
20036808:	e30a3df0 	movw	r3, #44528	; 0xadf0
2003680c:	e3423003 	movt	r3, #8195	; 0x2003
20036810:	e5933000 	ldr	r3, [r3]
20036814:	e51b2010 	ldr	r2, [fp, #-16]
20036818:	e1520003 	cmp	r2, r3
2003681c:	da000002 	ble	2003682c <iact_tsk+0x6c>
20036820:	e3e03011 	mvn	r3, #17
20036824:	e50b3008 	str	r3, [fp, #-8]
20036828:	ea00002b 	b	200368dc <iact_tsk+0x11c>
2003682c:	e51b3010 	ldr	r3, [fp, #-16]
20036830:	e2432001 	sub	r2, r3, #1
20036834:	e1a03002 	mov	r3, r2
20036838:	e1a03183 	lsl	r3, r3, #3
2003683c:	e0833002 	add	r3, r3, r2
20036840:	e1a03103 	lsl	r3, r3, #2
20036844:	e1a02003 	mov	r2, r3
20036848:	e3013f14 	movw	r3, #7956	; 0x1f14
2003684c:	e3423004 	movt	r3, #8196	; 0x2004
20036850:	e0823003 	add	r3, r2, r3
20036854:	e50b300c 	str	r3, [fp, #-12]
20036858:	ebffff34 	bl	20036530 <x_lock_cpu>
2003685c:	e51b300c 	ldr	r3, [fp, #-12]
20036860:	e5d3300c 	ldrb	r3, [r3, #12]
20036864:	e3530000 	cmp	r3, #0
20036868:	1a00000b 	bne	2003689c <iact_tsk+0xdc>
2003686c:	e51b000c 	ldr	r0, [fp, #-12]
20036870:	ebfffb37 	bl	20035554 <_kernel_make_active>
20036874:	e1a03000 	mov	r3, r0
20036878:	e3530000 	cmp	r3, #0
2003687c:	0a000003 	beq	20036890 <iact_tsk+0xd0>
20036880:	e3043008 	movw	r3, #16392	; 0x4008
20036884:	e3423005 	movt	r3, #8197	; 0x2005
20036888:	e3a02001 	mov	r2, #1
2003688c:	e5832000 	str	r2, [r3]
20036890:	e3a03000 	mov	r3, #0
20036894:	e50b3008 	str	r3, [fp, #-8]
20036898:	ea00000e 	b	200368d8 <iact_tsk+0x118>
2003689c:	e51b300c 	ldr	r3, [fp, #-12]
200368a0:	e5d3300e 	ldrb	r3, [r3, #14]
200368a4:	e2033001 	and	r3, r3, #1
200368a8:	e6ef3073 	uxtb	r3, r3
200368ac:	e3530000 	cmp	r3, #0
200368b0:	1a000006 	bne	200368d0 <iact_tsk+0x110>
200368b4:	e51b200c 	ldr	r2, [fp, #-12]
200368b8:	e5d2300e 	ldrb	r3, [r2, #14]
200368bc:	e3833001 	orr	r3, r3, #1
200368c0:	e5c2300e 	strb	r3, [r2, #14]
200368c4:	e3a03000 	mov	r3, #0
200368c8:	e50b3008 	str	r3, [fp, #-8]
200368cc:	ea000001 	b	200368d8 <iact_tsk+0x118>
200368d0:	e3e0302a 	mvn	r3, #42	; 0x2a
200368d4:	e50b3008 	str	r3, [fp, #-8]
200368d8:	ebffff1c 	bl	20036550 <x_unlock_cpu>
200368dc:	e51b3008 	ldr	r3, [fp, #-8]
200368e0:	e1a00003 	mov	r0, r3
200368e4:	e24bd004 	sub	sp, fp, #4
200368e8:	e8bd8800 	pop	{fp, pc}

200368ec <can_act>:
200368ec:	e92d4800 	push	{fp, lr}
200368f0:	e28db004 	add	fp, sp, #4
200368f4:	e24dd010 	sub	sp, sp, #16
200368f8:	e50b0010 	str	r0, [fp, #-16]
200368fc:	ebfffeff 	bl	20036500 <sense_context>
20036900:	e1a03000 	mov	r3, r0
20036904:	e3530000 	cmp	r3, #0
20036908:	1a000003 	bne	2003691c <can_act+0x30>
2003690c:	ebffff18 	bl	20036574 <x_sense_lock>
20036910:	e1a03000 	mov	r3, r0
20036914:	e3530000 	cmp	r3, #0
20036918:	0a000002 	beq	20036928 <can_act+0x3c>
2003691c:	e3e03018 	mvn	r3, #24
20036920:	e50b3008 	str	r3, [fp, #-8]
20036924:	ea00002e 	b	200369e4 <can_act+0xf8>
20036928:	e51b3010 	ldr	r3, [fp, #-16]
2003692c:	e3530000 	cmp	r3, #0
20036930:	da000005 	ble	2003694c <can_act+0x60>
20036934:	e30a3df0 	movw	r3, #44528	; 0xadf0
20036938:	e3423003 	movt	r3, #8195	; 0x2003
2003693c:	e5933000 	ldr	r3, [r3]
20036940:	e51b2010 	ldr	r2, [fp, #-16]
20036944:	e1520003 	cmp	r2, r3
20036948:	da000005 	ble	20036964 <can_act+0x78>
2003694c:	e51b3010 	ldr	r3, [fp, #-16]
20036950:	e3530000 	cmp	r3, #0
20036954:	0a000002 	beq	20036964 <can_act+0x78>
20036958:	e3e03011 	mvn	r3, #17
2003695c:	e50b3008 	str	r3, [fp, #-8]
20036960:	ea00001f 	b	200369e4 <can_act+0xf8>
20036964:	e51b3010 	ldr	r3, [fp, #-16]
20036968:	e3530000 	cmp	r3, #0
2003696c:	0a00000a 	beq	2003699c <can_act+0xb0>
20036970:	e51b3010 	ldr	r3, [fp, #-16]
20036974:	e2432001 	sub	r2, r3, #1
20036978:	e1a03002 	mov	r3, r2
2003697c:	e1a03183 	lsl	r3, r3, #3
20036980:	e0833002 	add	r3, r3, r2
20036984:	e1a03103 	lsl	r3, r3, #2
20036988:	e1a02003 	mov	r2, r3
2003698c:	e3013f14 	movw	r3, #7956	; 0x1f14
20036990:	e3423004 	movt	r3, #8196	; 0x2004
20036994:	e0823003 	add	r3, r2, r3
20036998:	ea000002 	b	200369a8 <can_act+0xbc>
2003699c:	e3043098 	movw	r3, #16536	; 0x4098
200369a0:	e3423005 	movt	r3, #8197	; 0x2005
200369a4:	e5933000 	ldr	r3, [r3]
200369a8:	e50b300c 	str	r3, [fp, #-12]
200369ac:	ebfffedf 	bl	20036530 <x_lock_cpu>
200369b0:	e51b300c 	ldr	r3, [fp, #-12]
200369b4:	e5d3300e 	ldrb	r3, [r3, #14]
200369b8:	e2033001 	and	r3, r3, #1
200369bc:	e6ef3073 	uxtb	r3, r3
200369c0:	e3530000 	cmp	r3, #0
200369c4:	03a03000 	moveq	r3, #0
200369c8:	13a03001 	movne	r3, #1
200369cc:	e50b3008 	str	r3, [fp, #-8]
200369d0:	e51b200c 	ldr	r2, [fp, #-12]
200369d4:	e5d2300e 	ldrb	r3, [r2, #14]
200369d8:	e7c0301f 	bfc	r3, #0, #1
200369dc:	e5c2300e 	strb	r3, [r2, #14]
200369e0:	ebfffeda 	bl	20036550 <x_unlock_cpu>
200369e4:	e51b3008 	ldr	r3, [fp, #-8]
200369e8:	e1a00003 	mov	r0, r3
200369ec:	e24bd004 	sub	sp, fp, #4
200369f0:	e8bd8800 	pop	{fp, pc}

200369f4 <ext_tsk>:
200369f4:	e92d4800 	push	{fp, lr}
200369f8:	e28db004 	add	fp, sp, #4
200369fc:	e24dd008 	sub	sp, sp, #8
20036a00:	ebfffebe 	bl	20036500 <sense_context>
20036a04:	e1a03000 	mov	r3, r0
20036a08:	e3530000 	cmp	r3, #0
20036a0c:	0a000005 	beq	20036a28 <ext_tsk+0x34>
20036a10:	e3e03018 	mvn	r3, #24
20036a14:	e50b3008 	str	r3, [fp, #-8]
20036a18:	e51b3008 	ldr	r3, [fp, #-8]
20036a1c:	e1a00003 	mov	r0, r3
20036a20:	e24bd004 	sub	sp, fp, #4
20036a24:	e8bd8800 	pop	{fp, pc}
20036a28:	ebfffed1 	bl	20036574 <x_sense_lock>
20036a2c:	e1a03000 	mov	r3, r0
20036a30:	e3530000 	cmp	r3, #0
20036a34:	1a000000 	bne	20036a3c <ext_tsk+0x48>
20036a38:	ebfffebc 	bl	20036530 <x_lock_cpu>
20036a3c:	e3043094 	movw	r3, #16532	; 0x4094
20036a40:	e3423005 	movt	r3, #8197	; 0x2005
20036a44:	e5933000 	ldr	r3, [r3]
20036a48:	e3530000 	cmp	r3, #0
20036a4c:	0a000003 	beq	20036a60 <ext_tsk+0x6c>
20036a50:	e3043094 	movw	r3, #16532	; 0x4094
20036a54:	e3423005 	movt	r3, #8197	; 0x2005
20036a58:	e3a02000 	mov	r2, #0
20036a5c:	e5832000 	str	r2, [r3]
20036a60:	ebfffe8a 	bl	20036490 <x_get_ipm>
20036a64:	e1a03000 	mov	r3, r0
20036a68:	e3530000 	cmp	r3, #0
20036a6c:	0a000001 	beq	20036a78 <ext_tsk+0x84>
20036a70:	e3a00000 	mov	r0, #0
20036a74:	ebfffe65 	bl	20036410 <x_set_ipm>
20036a78:	e304308c 	movw	r3, #16524	; 0x408c
20036a7c:	e3423005 	movt	r3, #8197	; 0x2005
20036a80:	e3a02001 	mov	r2, #1
20036a84:	e5832000 	str	r2, [r3]
20036a88:	e3043098 	movw	r3, #16536	; 0x4098
20036a8c:	e3423005 	movt	r3, #8197	; 0x2005
20036a90:	e5933000 	ldr	r3, [r3]
20036a94:	e1a00003 	mov	r0, r3
20036a98:	ebfffa4f 	bl	200353dc <_kernel_make_non_runnable>
20036a9c:	e3043098 	movw	r3, #16536	; 0x4098
20036aa0:	e3423005 	movt	r3, #8197	; 0x2005
20036aa4:	e5933000 	ldr	r3, [r3]
20036aa8:	e1a00003 	mov	r0, r3
20036aac:	ebfffa8a 	bl	200354dc <_kernel_make_dormant>
20036ab0:	e3043098 	movw	r3, #16536	; 0x4098
20036ab4:	e3423005 	movt	r3, #8197	; 0x2005
20036ab8:	e5933000 	ldr	r3, [r3]
20036abc:	e5d3300e 	ldrb	r3, [r3, #14]
20036ac0:	e2033001 	and	r3, r3, #1
20036ac4:	e6ef3073 	uxtb	r3, r3
20036ac8:	e3530000 	cmp	r3, #0
20036acc:	0a00000a 	beq	20036afc <ext_tsk+0x108>
20036ad0:	e3043098 	movw	r3, #16536	; 0x4098
20036ad4:	e3423005 	movt	r3, #8197	; 0x2005
20036ad8:	e5932000 	ldr	r2, [r3]
20036adc:	e5d2300e 	ldrb	r3, [r2, #14]
20036ae0:	e7c0301f 	bfc	r3, #0, #1
20036ae4:	e5c2300e 	strb	r3, [r2, #14]
20036ae8:	e3043098 	movw	r3, #16536	; 0x4098
20036aec:	e3423005 	movt	r3, #8197	; 0x2005
20036af0:	e5933000 	ldr	r3, [r3]
20036af4:	e1a00003 	mov	r0, r3
20036af8:	ebfffa95 	bl	20035554 <_kernel_make_active>
20036afc:	ebfff175 	bl	200330d8 <_kernel_exit_and_dispatch>

20036b00 <ter_tsk>:
20036b00:	e92d4800 	push	{fp, lr}
20036b04:	e28db004 	add	fp, sp, #4
20036b08:	e24dd010 	sub	sp, sp, #16
20036b0c:	e50b0010 	str	r0, [fp, #-16]
20036b10:	ebfffe7a 	bl	20036500 <sense_context>
20036b14:	e1a03000 	mov	r3, r0
20036b18:	e3530000 	cmp	r3, #0
20036b1c:	1a000003 	bne	20036b30 <ter_tsk+0x30>
20036b20:	ebfffe93 	bl	20036574 <x_sense_lock>
20036b24:	e1a03000 	mov	r3, r0
20036b28:	e3530000 	cmp	r3, #0
20036b2c:	0a000002 	beq	20036b3c <ter_tsk+0x3c>
20036b30:	e3e03018 	mvn	r3, #24
20036b34:	e50b3008 	str	r3, [fp, #-8]
20036b38:	ea00004e 	b	20036c78 <ter_tsk+0x178>
20036b3c:	e51b3010 	ldr	r3, [fp, #-16]
20036b40:	e3530000 	cmp	r3, #0
20036b44:	da000005 	ble	20036b60 <ter_tsk+0x60>
20036b48:	e30a3df0 	movw	r3, #44528	; 0xadf0
20036b4c:	e3423003 	movt	r3, #8195	; 0x2003
20036b50:	e5933000 	ldr	r3, [r3]
20036b54:	e51b2010 	ldr	r2, [fp, #-16]
20036b58:	e1520003 	cmp	r2, r3
20036b5c:	da000002 	ble	20036b6c <ter_tsk+0x6c>
20036b60:	e3e03011 	mvn	r3, #17
20036b64:	e50b3008 	str	r3, [fp, #-8]
20036b68:	ea000042 	b	20036c78 <ter_tsk+0x178>
20036b6c:	e51b3010 	ldr	r3, [fp, #-16]
20036b70:	e2432001 	sub	r2, r3, #1
20036b74:	e1a03002 	mov	r3, r2
20036b78:	e1a03183 	lsl	r3, r3, #3
20036b7c:	e0833002 	add	r3, r3, r2
20036b80:	e1a03103 	lsl	r3, r3, #2
20036b84:	e1a02003 	mov	r2, r3
20036b88:	e3013f14 	movw	r3, #7956	; 0x1f14
20036b8c:	e3423004 	movt	r3, #8196	; 0x2004
20036b90:	e0823003 	add	r3, r2, r3
20036b94:	e50b300c 	str	r3, [fp, #-12]
20036b98:	e3043098 	movw	r3, #16536	; 0x4098
20036b9c:	e3423005 	movt	r3, #8197	; 0x2005
20036ba0:	e5933000 	ldr	r3, [r3]
20036ba4:	e51b200c 	ldr	r2, [fp, #-12]
20036ba8:	e1520003 	cmp	r2, r3
20036bac:	1a000002 	bne	20036bbc <ter_tsk+0xbc>
20036bb0:	e3e0301b 	mvn	r3, #27
20036bb4:	e50b3008 	str	r3, [fp, #-8]
20036bb8:	ea00002e 	b	20036c78 <ter_tsk+0x178>
20036bbc:	ebfffe5b 	bl	20036530 <x_lock_cpu>
20036bc0:	e51b300c 	ldr	r3, [fp, #-12]
20036bc4:	e5d3300c 	ldrb	r3, [r3, #12]
20036bc8:	e3530000 	cmp	r3, #0
20036bcc:	1a000002 	bne	20036bdc <ter_tsk+0xdc>
20036bd0:	e3e03028 	mvn	r3, #40	; 0x28
20036bd4:	e50b3008 	str	r3, [fp, #-8]
20036bd8:	ea000025 	b	20036c74 <ter_tsk+0x174>
20036bdc:	e51b300c 	ldr	r3, [fp, #-12]
20036be0:	e5d3300c 	ldrb	r3, [r3, #12]
20036be4:	e2033001 	and	r3, r3, #1
20036be8:	e6ef3073 	uxtb	r3, r3
20036bec:	e3530000 	cmp	r3, #0
20036bf0:	0a000002 	beq	20036c00 <ter_tsk+0x100>
20036bf4:	e51b000c 	ldr	r0, [fp, #-12]
20036bf8:	ebfff9f7 	bl	200353dc <_kernel_make_non_runnable>
20036bfc:	ea000008 	b	20036c24 <ter_tsk+0x124>
20036c00:	e51b300c 	ldr	r3, [fp, #-12]
20036c04:	e5d3300c 	ldrb	r3, [r3, #12]
20036c08:	e2033002 	and	r3, r3, #2
20036c0c:	e3530000 	cmp	r3, #0
20036c10:	0a000003 	beq	20036c24 <ter_tsk+0x124>
20036c14:	e51b000c 	ldr	r0, [fp, #-12]
20036c18:	ebfffe78 	bl	20036600 <wait_dequeue_wobj>
20036c1c:	e51b000c 	ldr	r0, [fp, #-12]
20036c20:	ebfffe84 	bl	20036638 <wait_dequeue_tmevtb>
20036c24:	e51b000c 	ldr	r0, [fp, #-12]
20036c28:	ebfffa2b 	bl	200354dc <_kernel_make_dormant>
20036c2c:	e51b300c 	ldr	r3, [fp, #-12]
20036c30:	e5d3300e 	ldrb	r3, [r3, #14]
20036c34:	e2033001 	and	r3, r3, #1
20036c38:	e6ef3073 	uxtb	r3, r3
20036c3c:	e3530000 	cmp	r3, #0
20036c40:	0a000009 	beq	20036c6c <ter_tsk+0x16c>
20036c44:	e51b200c 	ldr	r2, [fp, #-12]
20036c48:	e5d2300e 	ldrb	r3, [r2, #14]
20036c4c:	e7c0301f 	bfc	r3, #0, #1
20036c50:	e5c2300e 	strb	r3, [r2, #14]
20036c54:	e51b000c 	ldr	r0, [fp, #-12]
20036c58:	ebfffa3d 	bl	20035554 <_kernel_make_active>
20036c5c:	e1a03000 	mov	r3, r0
20036c60:	e3530000 	cmp	r3, #0
20036c64:	0a000000 	beq	20036c6c <ter_tsk+0x16c>
20036c68:	ebfff106 	bl	20033088 <_kernel_dispatch>
20036c6c:	e3a03000 	mov	r3, #0
20036c70:	e50b3008 	str	r3, [fp, #-8]
20036c74:	ebfffe35 	bl	20036550 <x_unlock_cpu>
20036c78:	e51b3008 	ldr	r3, [fp, #-8]
20036c7c:	e1a00003 	mov	r0, r3
20036c80:	e24bd004 	sub	sp, fp, #4
20036c84:	e8bd8800 	pop	{fp, pc}

20036c88 <chg_pri>:
20036c88:	e92d4800 	push	{fp, lr}
20036c8c:	e28db004 	add	fp, sp, #4
20036c90:	e24dd018 	sub	sp, sp, #24
20036c94:	e50b0018 	str	r0, [fp, #-24]	; 0xffffffe8
20036c98:	e50b101c 	str	r1, [fp, #-28]	; 0xffffffe4
20036c9c:	ebfffe17 	bl	20036500 <sense_context>
20036ca0:	e1a03000 	mov	r3, r0
20036ca4:	e3530000 	cmp	r3, #0
20036ca8:	1a000003 	bne	20036cbc <chg_pri+0x34>
20036cac:	ebfffe30 	bl	20036574 <x_sense_lock>
20036cb0:	e1a03000 	mov	r3, r0
20036cb4:	e3530000 	cmp	r3, #0
20036cb8:	0a000002 	beq	20036cc8 <chg_pri+0x40>
20036cbc:	e3e03018 	mvn	r3, #24
20036cc0:	e50b3008 	str	r3, [fp, #-8]
20036cc4:	ea000048 	b	20036dec <chg_pri+0x164>
20036cc8:	e51b3018 	ldr	r3, [fp, #-24]	; 0xffffffe8
20036ccc:	e3530000 	cmp	r3, #0
20036cd0:	da000005 	ble	20036cec <chg_pri+0x64>
20036cd4:	e30a3df0 	movw	r3, #44528	; 0xadf0
20036cd8:	e3423003 	movt	r3, #8195	; 0x2003
20036cdc:	e5933000 	ldr	r3, [r3]
20036ce0:	e51b2018 	ldr	r2, [fp, #-24]	; 0xffffffe8
20036ce4:	e1520003 	cmp	r2, r3
20036ce8:	da000005 	ble	20036d04 <chg_pri+0x7c>
20036cec:	e51b3018 	ldr	r3, [fp, #-24]	; 0xffffffe8
20036cf0:	e3530000 	cmp	r3, #0
20036cf4:	0a000002 	beq	20036d04 <chg_pri+0x7c>
20036cf8:	e3e03011 	mvn	r3, #17
20036cfc:	e50b3008 	str	r3, [fp, #-8]
20036d00:	ea000039 	b	20036dec <chg_pri+0x164>
20036d04:	e51b301c 	ldr	r3, [fp, #-28]	; 0xffffffe4
20036d08:	e3530000 	cmp	r3, #0
20036d0c:	da000002 	ble	20036d1c <chg_pri+0x94>
20036d10:	e51b301c 	ldr	r3, [fp, #-28]	; 0xffffffe4
20036d14:	e3530010 	cmp	r3, #16
20036d18:	da000005 	ble	20036d34 <chg_pri+0xac>
20036d1c:	e51b301c 	ldr	r3, [fp, #-28]	; 0xffffffe4
20036d20:	e3530000 	cmp	r3, #0
20036d24:	0a000002 	beq	20036d34 <chg_pri+0xac>
20036d28:	e3e03010 	mvn	r3, #16
20036d2c:	e50b3008 	str	r3, [fp, #-8]
20036d30:	ea00002d 	b	20036dec <chg_pri+0x164>
20036d34:	e51b3018 	ldr	r3, [fp, #-24]	; 0xffffffe8
20036d38:	e3530000 	cmp	r3, #0
20036d3c:	0a00000a 	beq	20036d6c <chg_pri+0xe4>
20036d40:	e51b3018 	ldr	r3, [fp, #-24]	; 0xffffffe8
20036d44:	e2432001 	sub	r2, r3, #1
20036d48:	e1a03002 	mov	r3, r2
20036d4c:	e1a03183 	lsl	r3, r3, #3
20036d50:	e0833002 	add	r3, r3, r2
20036d54:	e1a03103 	lsl	r3, r3, #2
20036d58:	e1a02003 	mov	r2, r3
20036d5c:	e3013f14 	movw	r3, #7956	; 0x1f14
20036d60:	e3423004 	movt	r3, #8196	; 0x2004
20036d64:	e0823003 	add	r3, r2, r3
20036d68:	ea000002 	b	20036d78 <chg_pri+0xf0>
20036d6c:	e3043098 	movw	r3, #16536	; 0x4098
20036d70:	e3423005 	movt	r3, #8197	; 0x2005
20036d74:	e5933000 	ldr	r3, [r3]
20036d78:	e50b300c 	str	r3, [fp, #-12]
20036d7c:	e51b301c 	ldr	r3, [fp, #-28]	; 0xffffffe4
20036d80:	e3530000 	cmp	r3, #0
20036d84:	1a000003 	bne	20036d98 <chg_pri+0x110>
20036d88:	e51b300c 	ldr	r3, [fp, #-12]
20036d8c:	e5933008 	ldr	r3, [r3, #8]
20036d90:	e593300c 	ldr	r3, [r3, #12]
20036d94:	ea000001 	b	20036da0 <chg_pri+0x118>
20036d98:	e51b301c 	ldr	r3, [fp, #-28]	; 0xffffffe4
20036d9c:	e2433001 	sub	r3, r3, #1
20036da0:	e50b3010 	str	r3, [fp, #-16]
20036da4:	ebfffde1 	bl	20036530 <x_lock_cpu>
20036da8:	e51b300c 	ldr	r3, [fp, #-12]
20036dac:	e5d3300c 	ldrb	r3, [r3, #12]
20036db0:	e3530000 	cmp	r3, #0
20036db4:	1a000002 	bne	20036dc4 <chg_pri+0x13c>
20036db8:	e3e03028 	mvn	r3, #40	; 0x28
20036dbc:	e50b3008 	str	r3, [fp, #-8]
20036dc0:	ea000008 	b	20036de8 <chg_pri+0x160>
20036dc4:	e51b000c 	ldr	r0, [fp, #-12]
20036dc8:	e51b1010 	ldr	r1, [fp, #-16]
20036dcc:	ebfff9fa 	bl	200355bc <_kernel_change_priority>
20036dd0:	e1a03000 	mov	r3, r0
20036dd4:	e3530000 	cmp	r3, #0
20036dd8:	0a000000 	beq	20036de0 <chg_pri+0x158>
20036ddc:	ebfff0a9 	bl	20033088 <_kernel_dispatch>
20036de0:	e3a03000 	mov	r3, #0
20036de4:	e50b3008 	str	r3, [fp, #-8]
20036de8:	ebfffdd8 	bl	20036550 <x_unlock_cpu>
20036dec:	e51b3008 	ldr	r3, [fp, #-8]
20036df0:	e1a00003 	mov	r0, r3
20036df4:	e24bd004 	sub	sp, fp, #4
20036df8:	e8bd8800 	pop	{fp, pc}

20036dfc <get_pri>:
20036dfc:	e92d4800 	push	{fp, lr}
20036e00:	e28db004 	add	fp, sp, #4
20036e04:	e24dd010 	sub	sp, sp, #16
20036e08:	e50b0010 	str	r0, [fp, #-16]
20036e0c:	e50b1014 	str	r1, [fp, #-20]	; 0xffffffec
20036e10:	ebfffdba 	bl	20036500 <sense_context>
20036e14:	e1a03000 	mov	r3, r0
20036e18:	e3530000 	cmp	r3, #0
20036e1c:	1a000003 	bne	20036e30 <get_pri+0x34>
20036e20:	ebfffdd3 	bl	20036574 <x_sense_lock>
20036e24:	e1a03000 	mov	r3, r0
20036e28:	e3530000 	cmp	r3, #0
20036e2c:	0a000002 	beq	20036e3c <get_pri+0x40>
20036e30:	e3e03018 	mvn	r3, #24
20036e34:	e50b3008 	str	r3, [fp, #-8]
20036e38:	ea000030 	b	20036f00 <get_pri+0x104>
20036e3c:	e51b3010 	ldr	r3, [fp, #-16]
20036e40:	e3530000 	cmp	r3, #0
20036e44:	da000005 	ble	20036e60 <get_pri+0x64>
20036e48:	e30a3df0 	movw	r3, #44528	; 0xadf0
20036e4c:	e3423003 	movt	r3, #8195	; 0x2003
20036e50:	e5933000 	ldr	r3, [r3]
20036e54:	e51b2010 	ldr	r2, [fp, #-16]
20036e58:	e1520003 	cmp	r2, r3
20036e5c:	da000005 	ble	20036e78 <get_pri+0x7c>
20036e60:	e51b3010 	ldr	r3, [fp, #-16]
20036e64:	e3530000 	cmp	r3, #0
20036e68:	0a000002 	beq	20036e78 <get_pri+0x7c>
20036e6c:	e3e03011 	mvn	r3, #17
20036e70:	e50b3008 	str	r3, [fp, #-8]
20036e74:	ea000021 	b	20036f00 <get_pri+0x104>
20036e78:	e51b3010 	ldr	r3, [fp, #-16]
20036e7c:	e3530000 	cmp	r3, #0
20036e80:	0a00000a 	beq	20036eb0 <get_pri+0xb4>
20036e84:	e51b3010 	ldr	r3, [fp, #-16]
20036e88:	e2432001 	sub	r2, r3, #1
20036e8c:	e1a03002 	mov	r3, r2
20036e90:	e1a03183 	lsl	r3, r3, #3
20036e94:	e0833002 	add	r3, r3, r2
20036e98:	e1a03103 	lsl	r3, r3, #2
20036e9c:	e1a02003 	mov	r2, r3
20036ea0:	e3013f14 	movw	r3, #7956	; 0x1f14
20036ea4:	e3423004 	movt	r3, #8196	; 0x2004
20036ea8:	e0823003 	add	r3, r2, r3
20036eac:	ea000002 	b	20036ebc <get_pri+0xc0>
20036eb0:	e3043098 	movw	r3, #16536	; 0x4098
20036eb4:	e3423005 	movt	r3, #8197	; 0x2005
20036eb8:	e5933000 	ldr	r3, [r3]
20036ebc:	e50b300c 	str	r3, [fp, #-12]
20036ec0:	ebfffd9a 	bl	20036530 <x_lock_cpu>
20036ec4:	e51b300c 	ldr	r3, [fp, #-12]
20036ec8:	e5d3300c 	ldrb	r3, [r3, #12]
20036ecc:	e3530000 	cmp	r3, #0
20036ed0:	1a000002 	bne	20036ee0 <get_pri+0xe4>
20036ed4:	e3e03028 	mvn	r3, #40	; 0x28
20036ed8:	e50b3008 	str	r3, [fp, #-8]
20036edc:	ea000006 	b	20036efc <get_pri+0x100>
20036ee0:	e51b300c 	ldr	r3, [fp, #-12]
20036ee4:	e5d3300d 	ldrb	r3, [r3, #13]
20036ee8:	e2832001 	add	r2, r3, #1
20036eec:	e51b3014 	ldr	r3, [fp, #-20]	; 0xffffffec
20036ef0:	e5832000 	str	r2, [r3]
20036ef4:	e3a03000 	mov	r3, #0
20036ef8:	e50b3008 	str	r3, [fp, #-8]
20036efc:	ebfffd93 	bl	20036550 <x_unlock_cpu>
20036f00:	e51b3008 	ldr	r3, [fp, #-8]
20036f04:	e1a00003 	mov	r0, r3
20036f08:	e24bd004 	sub	sp, fp, #4
20036f0c:	e8bd8800 	pop	{fp, pc}

20036f10 <get_inf>:
20036f10:	e92d4800 	push	{fp, lr}
20036f14:	e28db004 	add	fp, sp, #4
20036f18:	e24dd010 	sub	sp, sp, #16
20036f1c:	e50b0010 	str	r0, [fp, #-16]
20036f20:	ebfffd76 	bl	20036500 <sense_context>
20036f24:	e1a03000 	mov	r3, r0
20036f28:	e3530000 	cmp	r3, #0
20036f2c:	1a000003 	bne	20036f40 <get_inf+0x30>
20036f30:	ebfffd8f 	bl	20036574 <x_sense_lock>
20036f34:	e1a03000 	mov	r3, r0
20036f38:	e3530000 	cmp	r3, #0
20036f3c:	0a000002 	beq	20036f4c <get_inf+0x3c>
20036f40:	e3e03018 	mvn	r3, #24
20036f44:	e50b3008 	str	r3, [fp, #-8]
20036f48:	ea00000a 	b	20036f78 <get_inf+0x68>
20036f4c:	ebfffd77 	bl	20036530 <x_lock_cpu>
20036f50:	e3043098 	movw	r3, #16536	; 0x4098
20036f54:	e3423005 	movt	r3, #8197	; 0x2005
20036f58:	e5933000 	ldr	r3, [r3]
20036f5c:	e5933008 	ldr	r3, [r3, #8]
20036f60:	e5932004 	ldr	r2, [r3, #4]
20036f64:	e51b3010 	ldr	r3, [fp, #-16]
20036f68:	e5832000 	str	r2, [r3]
20036f6c:	e3a03000 	mov	r3, #0
20036f70:	e50b3008 	str	r3, [fp, #-8]
20036f74:	ebfffd75 	bl	20036550 <x_unlock_cpu>
20036f78:	e51b3008 	ldr	r3, [fp, #-8]
20036f7c:	e1a00003 	mov	r0, r3
20036f80:	e24bd004 	sub	sp, fp, #4
20036f84:	e8bd8800 	pop	{fp, pc}

20036f88 <TOPPERS_assert_abort>:
20036f88:	e52db004 	push	{fp}		; (str fp, [sp, #-4]!)
20036f8c:	e28db000 	add	fp, sp, #0
20036f90:	eafffffe 	b	20036f90 <TOPPERS_assert_abort+0x8>

20036f94 <_syslog_3>:
20036f94:	e92d4800 	push	{fp, lr}
20036f98:	e28db004 	add	fp, sp, #4
20036f9c:	e24dd040 	sub	sp, sp, #64	; 0x40
20036fa0:	e50b0038 	str	r0, [fp, #-56]	; 0xffffffc8
20036fa4:	e50b103c 	str	r1, [fp, #-60]	; 0xffffffc4
20036fa8:	e50b2040 	str	r2, [fp, #-64]	; 0xffffffc0
20036fac:	e50b3044 	str	r3, [fp, #-68]	; 0xffffffbc
20036fb0:	e51b303c 	ldr	r3, [fp, #-60]	; 0xffffffc4
20036fb4:	e50b3034 	str	r3, [fp, #-52]	; 0xffffffcc
20036fb8:	e51b3040 	ldr	r3, [fp, #-64]	; 0xffffffc0
20036fbc:	e50b302c 	str	r3, [fp, #-44]	; 0xffffffd4
20036fc0:	e51b3044 	ldr	r3, [fp, #-68]	; 0xffffffbc
20036fc4:	e50b3028 	str	r3, [fp, #-40]	; 0xffffffd8
20036fc8:	e59b3004 	ldr	r3, [fp, #4]
20036fcc:	e50b3024 	str	r3, [fp, #-36]	; 0xffffffdc
20036fd0:	e24b3034 	sub	r3, fp, #52	; 0x34
20036fd4:	e51b0038 	ldr	r0, [fp, #-56]	; 0xffffffc8
20036fd8:	e1a01003 	mov	r1, r3
20036fdc:	ebffe588 	bl	20030604 <syslog_wri_log>
20036fe0:	e24bd004 	sub	sp, fp, #4
20036fe4:	e8bd8800 	pop	{fp, pc}

20036fe8 <current_sr>:
20036fe8:	e92d0810 	push	{r4, fp}
20036fec:	e28db004 	add	fp, sp, #4
20036ff0:	e24dd008 	sub	sp, sp, #8
20036ff4:	e10f4000 	mrs	r4, CPSR
20036ff8:	e50b4008 	str	r4, [fp, #-8]
20036ffc:	e51b3008 	ldr	r3, [fp, #-8]
20037000:	e1a00003 	mov	r0, r3
20037004:	e24bd004 	sub	sp, fp, #4
20037008:	e8bd0810 	pop	{r4, fp}
2003700c:	e12fff1e 	bx	lr

20037010 <set_sr>:
20037010:	e52db004 	push	{fp}		; (str fp, [sp, #-4]!)
20037014:	e28db000 	add	fp, sp, #0
20037018:	e24dd00c 	sub	sp, sp, #12
2003701c:	e50b0008 	str	r0, [fp, #-8]
20037020:	e51b3008 	ldr	r3, [fp, #-8]
20037024:	e129f003 	msr	CPSR_fc, r3
20037028:	e28bd000 	add	sp, fp, #0
2003702c:	e49db004 	pop	{fp}		; (ldr fp, [sp], #4)
20037030:	e12fff1e 	bx	lr

20037034 <sense_context>:
20037034:	e52db004 	push	{fp}		; (str fp, [sp, #-4]!)
20037038:	e28db000 	add	fp, sp, #0
2003703c:	e3043000 	movw	r3, #16384	; 0x4000
20037040:	e3423005 	movt	r3, #8197	; 0x2005
20037044:	e5933000 	ldr	r3, [r3]
20037048:	e3530000 	cmp	r3, #0
2003704c:	03a03000 	moveq	r3, #0
20037050:	13a03001 	movne	r3, #1
20037054:	e1a00003 	mov	r0, r3
20037058:	e28bd000 	add	sp, fp, #0
2003705c:	e49db004 	pop	{fp}		; (ldr fp, [sp], #4)
20037060:	e12fff1e 	bx	lr

20037064 <x_lock_cpu>:
20037064:	e92d4800 	push	{fp, lr}
20037068:	e28db004 	add	fp, sp, #4
2003706c:	ebffffdd 	bl	20036fe8 <current_sr>
20037070:	e1a03000 	mov	r3, r0
20037074:	e38330c0 	orr	r3, r3, #192	; 0xc0
20037078:	e1a00003 	mov	r0, r3
2003707c:	ebffffe3 	bl	20037010 <set_sr>
20037080:	e8bd8800 	pop	{fp, pc}

20037084 <x_unlock_cpu>:
20037084:	e92d4800 	push	{fp, lr}
20037088:	e28db004 	add	fp, sp, #4
2003708c:	ebffffd5 	bl	20036fe8 <current_sr>
20037090:	e1a03000 	mov	r3, r0
20037094:	e3c330c0 	bic	r3, r3, #192	; 0xc0
20037098:	e3833080 	orr	r3, r3, #128	; 0x80
2003709c:	e1a00003 	mov	r0, r3
200370a0:	ebffffda 	bl	20037010 <set_sr>
200370a4:	e8bd8800 	pop	{fp, pc}

200370a8 <x_sense_lock>:
200370a8:	e92d4800 	push	{fp, lr}
200370ac:	e28db004 	add	fp, sp, #4
200370b0:	ebffffcc 	bl	20036fe8 <current_sr>
200370b4:	e1a03000 	mov	r3, r0
200370b8:	e20330c0 	and	r3, r3, #192	; 0xc0
200370bc:	e35300c0 	cmp	r3, #192	; 0xc0
200370c0:	13a03000 	movne	r3, #0
200370c4:	03a03001 	moveq	r3, #1
200370c8:	e1a00003 	mov	r0, r3
200370cc:	e8bd8800 	pop	{fp, pc}

200370d0 <tmevtb_enqueue>:
200370d0:	e92d4800 	push	{fp, lr}
200370d4:	e28db004 	add	fp, sp, #4
200370d8:	e24dd018 	sub	sp, sp, #24
200370dc:	e50b0008 	str	r0, [fp, #-8]
200370e0:	e50b100c 	str	r1, [fp, #-12]
200370e4:	e50b2010 	str	r2, [fp, #-16]
200370e8:	e50b3014 	str	r3, [fp, #-20]	; 0xffffffec
200370ec:	e51b300c 	ldr	r3, [fp, #-12]
200370f0:	e3530000 	cmp	r3, #0
200370f4:	aa00000a 	bge	20037124 <tmevtb_enqueue+0x54>
200370f8:	e30b3368 	movw	r3, #45928	; 0xb368
200370fc:	e3423003 	movt	r3, #8195	; 0x2003
20037100:	e30b2388 	movw	r2, #45960	; 0xb388
20037104:	e3422003 	movt	r2, #8195	; 0x2003
20037108:	e58d2000 	str	r2, [sp]
2003710c:	e3a00000 	mov	r0, #0
20037110:	e3a01002 	mov	r1, #2
20037114:	e1a02003 	mov	r2, r3
20037118:	e3a030a0 	mov	r3, #160	; 0xa0
2003711c:	ebffff9c 	bl	20036f94 <_syslog_3>
20037120:	ebffff98 	bl	20036f88 <TOPPERS_assert_abort>
20037124:	e51b3008 	ldr	r3, [fp, #-8]
20037128:	e51b2010 	ldr	r2, [fp, #-16]
2003712c:	e5832004 	str	r2, [r3, #4]
20037130:	e51b3008 	ldr	r3, [fp, #-8]
20037134:	e51b2014 	ldr	r2, [fp, #-20]	; 0xffffffec
20037138:	e5832008 	str	r2, [r3, #8]
2003713c:	e30430a4 	movw	r3, #16548	; 0x40a4
20037140:	e3423005 	movt	r3, #8197	; 0x2005
20037144:	e5932000 	ldr	r2, [r3]
20037148:	e51b300c 	ldr	r3, [fp, #-12]
2003714c:	e0823003 	add	r3, r2, r3
20037150:	e51b0008 	ldr	r0, [fp, #-8]
20037154:	e1a01003 	mov	r1, r3
20037158:	ebfffb13 	bl	20035dac <_kernel_tmevtb_insert>
2003715c:	e24bd004 	sub	sp, fp, #4
20037160:	e8bd8800 	pop	{fp, pc}

20037164 <make_wait>:
20037164:	e92d4800 	push	{fp, lr}
20037168:	e28db004 	add	fp, sp, #4
2003716c:	e24dd008 	sub	sp, sp, #8
20037170:	e50b0008 	str	r0, [fp, #-8]
20037174:	e3043098 	movw	r3, #16536	; 0x4098
20037178:	e3423005 	movt	r3, #8197	; 0x2005
2003717c:	e5933000 	ldr	r3, [r3]
20037180:	e1a00003 	mov	r0, r3
20037184:	ebfff894 	bl	200353dc <_kernel_make_non_runnable>
20037188:	e3043098 	movw	r3, #16536	; 0x4098
2003718c:	e3423005 	movt	r3, #8197	; 0x2005
20037190:	e5933000 	ldr	r3, [r3]
20037194:	e51b2008 	ldr	r2, [fp, #-8]
20037198:	e5832014 	str	r2, [r3, #20]
2003719c:	e51b3008 	ldr	r3, [fp, #-8]
200371a0:	e3a02000 	mov	r2, #0
200371a4:	e5832000 	str	r2, [r3]
200371a8:	e24bd004 	sub	sp, fp, #4
200371ac:	e8bd8800 	pop	{fp, pc}

200371b0 <slp_tsk>:
200371b0:	e92d4800 	push	{fp, lr}
200371b4:	e28db004 	add	fp, sp, #4
200371b8:	e24dd008 	sub	sp, sp, #8
200371bc:	ebffff9c 	bl	20037034 <sense_context>
200371c0:	e1a03000 	mov	r3, r0
200371c4:	e3530000 	cmp	r3, #0
200371c8:	1a000008 	bne	200371f0 <slp_tsk+0x40>
200371cc:	ebffffb5 	bl	200370a8 <x_sense_lock>
200371d0:	e1a03000 	mov	r3, r0
200371d4:	e3530000 	cmp	r3, #0
200371d8:	1a000004 	bne	200371f0 <slp_tsk+0x40>
200371dc:	e304308c 	movw	r3, #16524	; 0x408c
200371e0:	e3423005 	movt	r3, #8197	; 0x2005
200371e4:	e5933000 	ldr	r3, [r3]
200371e8:	e3530000 	cmp	r3, #0
200371ec:	1a000002 	bne	200371fc <slp_tsk+0x4c>
200371f0:	e3e03018 	mvn	r3, #24
200371f4:	e50b3008 	str	r3, [fp, #-8]
200371f8:	ea00001d 	b	20037274 <slp_tsk+0xc4>
200371fc:	ebffff98 	bl	20037064 <x_lock_cpu>
20037200:	e3043098 	movw	r3, #16536	; 0x4098
20037204:	e3423005 	movt	r3, #8197	; 0x2005
20037208:	e5933000 	ldr	r3, [r3]
2003720c:	e5d3300e 	ldrb	r3, [r3, #14]
20037210:	e2033002 	and	r3, r3, #2
20037214:	e6ef3073 	uxtb	r3, r3
20037218:	e3530000 	cmp	r3, #0
2003721c:	0a000008 	beq	20037244 <slp_tsk+0x94>
20037220:	e3043098 	movw	r3, #16536	; 0x4098
20037224:	e3423005 	movt	r3, #8197	; 0x2005
20037228:	e5932000 	ldr	r2, [r3]
2003722c:	e5d2300e 	ldrb	r3, [r2, #14]
20037230:	e7c1309f 	bfc	r3, #1, #1
20037234:	e5c2300e 	strb	r3, [r2, #14]
20037238:	e3a03000 	mov	r3, #0
2003723c:	e50b3008 	str	r3, [fp, #-8]
20037240:	ea00000a 	b	20037270 <slp_tsk+0xc0>
20037244:	e3043098 	movw	r3, #16536	; 0x4098
20037248:	e3423005 	movt	r3, #8197	; 0x2005
2003724c:	e5933000 	ldr	r3, [r3]
20037250:	e3a0200a 	mov	r2, #10
20037254:	e5c3200c 	strb	r2, [r3, #12]
20037258:	e24b300c 	sub	r3, fp, #12
2003725c:	e1a00003 	mov	r0, r3
20037260:	ebffffbf 	bl	20037164 <make_wait>
20037264:	ebffef87 	bl	20033088 <_kernel_dispatch>
20037268:	e51b300c 	ldr	r3, [fp, #-12]
2003726c:	e50b3008 	str	r3, [fp, #-8]
20037270:	ebffff83 	bl	20037084 <x_unlock_cpu>
20037274:	e51b3008 	ldr	r3, [fp, #-8]
20037278:	e1a00003 	mov	r0, r3
2003727c:	e24bd004 	sub	sp, fp, #4
20037280:	e8bd8800 	pop	{fp, pc}

20037284 <tslp_tsk>:
20037284:	e92d4800 	push	{fp, lr}
20037288:	e28db004 	add	fp, sp, #4
2003728c:	e24dd020 	sub	sp, sp, #32
20037290:	e50b0020 	str	r0, [fp, #-32]	; 0xffffffe0
20037294:	ebffff66 	bl	20037034 <sense_context>
20037298:	e1a03000 	mov	r3, r0
2003729c:	e3530000 	cmp	r3, #0
200372a0:	1a000008 	bne	200372c8 <tslp_tsk+0x44>
200372a4:	ebffff7f 	bl	200370a8 <x_sense_lock>
200372a8:	e1a03000 	mov	r3, r0
200372ac:	e3530000 	cmp	r3, #0
200372b0:	1a000004 	bne	200372c8 <tslp_tsk+0x44>
200372b4:	e304308c 	movw	r3, #16524	; 0x408c
200372b8:	e3423005 	movt	r3, #8197	; 0x2005
200372bc:	e5933000 	ldr	r3, [r3]
200372c0:	e3530000 	cmp	r3, #0
200372c4:	1a000002 	bne	200372d4 <tslp_tsk+0x50>
200372c8:	e3e03018 	mvn	r3, #24
200372cc:	e50b3008 	str	r3, [fp, #-8]
200372d0:	ea00002c 	b	20037388 <tslp_tsk+0x104>
200372d4:	e51b3020 	ldr	r3, [fp, #-32]	; 0xffffffe0
200372d8:	e3730001 	cmn	r3, #1
200372dc:	aa000002 	bge	200372ec <tslp_tsk+0x68>
200372e0:	e3e03010 	mvn	r3, #16
200372e4:	e50b3008 	str	r3, [fp, #-8]
200372e8:	ea000026 	b	20037388 <tslp_tsk+0x104>
200372ec:	ebffff5c 	bl	20037064 <x_lock_cpu>
200372f0:	e3043098 	movw	r3, #16536	; 0x4098
200372f4:	e3423005 	movt	r3, #8197	; 0x2005
200372f8:	e5933000 	ldr	r3, [r3]
200372fc:	e5d3300e 	ldrb	r3, [r3, #14]
20037300:	e2033002 	and	r3, r3, #2
20037304:	e6ef3073 	uxtb	r3, r3
20037308:	e3530000 	cmp	r3, #0
2003730c:	0a000008 	beq	20037334 <tslp_tsk+0xb0>
20037310:	e3043098 	movw	r3, #16536	; 0x4098
20037314:	e3423005 	movt	r3, #8197	; 0x2005
20037318:	e5932000 	ldr	r2, [r3]
2003731c:	e5d2300e 	ldrb	r3, [r2, #14]
20037320:	e7c1309f 	bfc	r3, #1, #1
20037324:	e5c2300e 	strb	r3, [r2, #14]
20037328:	e3a03000 	mov	r3, #0
2003732c:	e50b3008 	str	r3, [fp, #-8]
20037330:	ea000013 	b	20037384 <tslp_tsk+0x100>
20037334:	e51b3020 	ldr	r3, [fp, #-32]	; 0xffffffe0
20037338:	e3530000 	cmp	r3, #0
2003733c:	1a000002 	bne	2003734c <tslp_tsk+0xc8>
20037340:	e3e03031 	mvn	r3, #49	; 0x31
20037344:	e50b3008 	str	r3, [fp, #-8]
20037348:	ea00000d 	b	20037384 <tslp_tsk+0x100>
2003734c:	e3043098 	movw	r3, #16536	; 0x4098
20037350:	e3423005 	movt	r3, #8197	; 0x2005
20037354:	e5933000 	ldr	r3, [r3]
20037358:	e3a0200a 	mov	r2, #10
2003735c:	e5c3200c 	strb	r2, [r3, #12]
20037360:	e24b200c 	sub	r2, fp, #12
20037364:	e24b3018 	sub	r3, fp, #24
20037368:	e1a00002 	mov	r0, r2
2003736c:	e1a01003 	mov	r1, r3
20037370:	e51b2020 	ldr	r2, [fp, #-32]	; 0xffffffe0
20037374:	eb000c48 	bl	2003a49c <_kernel_make_wait_tmout>
20037378:	ebffef42 	bl	20033088 <_kernel_dispatch>
2003737c:	e51b300c 	ldr	r3, [fp, #-12]
20037380:	e50b3008 	str	r3, [fp, #-8]
20037384:	ebffff3e 	bl	20037084 <x_unlock_cpu>
20037388:	e51b3008 	ldr	r3, [fp, #-8]
2003738c:	e1a00003 	mov	r0, r3
20037390:	e24bd004 	sub	sp, fp, #4
20037394:	e8bd8800 	pop	{fp, pc}

20037398 <wup_tsk>:
20037398:	e92d4800 	push	{fp, lr}
2003739c:	e28db004 	add	fp, sp, #4
200373a0:	e24dd010 	sub	sp, sp, #16
200373a4:	e50b0010 	str	r0, [fp, #-16]
200373a8:	ebffff21 	bl	20037034 <sense_context>
200373ac:	e1a03000 	mov	r3, r0
200373b0:	e3530000 	cmp	r3, #0
200373b4:	1a000003 	bne	200373c8 <wup_tsk+0x30>
200373b8:	ebffff3a 	bl	200370a8 <x_sense_lock>
200373bc:	e1a03000 	mov	r3, r0
200373c0:	e3530000 	cmp	r3, #0
200373c4:	0a000002 	beq	200373d4 <wup_tsk+0x3c>
200373c8:	e3e03018 	mvn	r3, #24
200373cc:	e50b3008 	str	r3, [fp, #-8]
200373d0:	ea000046 	b	200374f0 <wup_tsk+0x158>
200373d4:	e51b3010 	ldr	r3, [fp, #-16]
200373d8:	e3530000 	cmp	r3, #0
200373dc:	da000005 	ble	200373f8 <wup_tsk+0x60>
200373e0:	e30a3df0 	movw	r3, #44528	; 0xadf0
200373e4:	e3423003 	movt	r3, #8195	; 0x2003
200373e8:	e5933000 	ldr	r3, [r3]
200373ec:	e51b2010 	ldr	r2, [fp, #-16]
200373f0:	e1520003 	cmp	r2, r3
200373f4:	da000005 	ble	20037410 <wup_tsk+0x78>
200373f8:	e51b3010 	ldr	r3, [fp, #-16]
200373fc:	e3530000 	cmp	r3, #0
20037400:	0a000002 	beq	20037410 <wup_tsk+0x78>
20037404:	e3e03011 	mvn	r3, #17
20037408:	e50b3008 	str	r3, [fp, #-8]
2003740c:	ea000037 	b	200374f0 <wup_tsk+0x158>
20037410:	e51b3010 	ldr	r3, [fp, #-16]
20037414:	e3530000 	cmp	r3, #0
20037418:	0a00000a 	beq	20037448 <wup_tsk+0xb0>
2003741c:	e51b3010 	ldr	r3, [fp, #-16]
20037420:	e2432001 	sub	r2, r3, #1
20037424:	e1a03002 	mov	r3, r2
20037428:	e1a03183 	lsl	r3, r3, #3
2003742c:	e0833002 	add	r3, r3, r2
20037430:	e1a03103 	lsl	r3, r3, #2
20037434:	e1a02003 	mov	r2, r3
20037438:	e3013f14 	movw	r3, #7956	; 0x1f14
2003743c:	e3423004 	movt	r3, #8196	; 0x2004
20037440:	e0823003 	add	r3, r2, r3
20037444:	ea000002 	b	20037454 <wup_tsk+0xbc>
20037448:	e3043098 	movw	r3, #16536	; 0x4098
2003744c:	e3423005 	movt	r3, #8197	; 0x2005
20037450:	e5933000 	ldr	r3, [r3]
20037454:	e50b300c 	str	r3, [fp, #-12]
20037458:	ebffff01 	bl	20037064 <x_lock_cpu>
2003745c:	e51b300c 	ldr	r3, [fp, #-12]
20037460:	e5d3300c 	ldrb	r3, [r3, #12]
20037464:	e3530000 	cmp	r3, #0
20037468:	1a000002 	bne	20037478 <wup_tsk+0xe0>
2003746c:	e3e03028 	mvn	r3, #40	; 0x28
20037470:	e50b3008 	str	r3, [fp, #-8]
20037474:	ea00001c 	b	200374ec <wup_tsk+0x154>
20037478:	e51b300c 	ldr	r3, [fp, #-12]
2003747c:	e5d3300c 	ldrb	r3, [r3, #12]
20037480:	e2033078 	and	r3, r3, #120	; 0x78
20037484:	e3530008 	cmp	r3, #8
20037488:	1a000008 	bne	200374b0 <wup_tsk+0x118>
2003748c:	e51b000c 	ldr	r0, [fp, #-12]
20037490:	eb000c35 	bl	2003a56c <_kernel_wait_complete>
20037494:	e1a03000 	mov	r3, r0
20037498:	e3530000 	cmp	r3, #0
2003749c:	0a000000 	beq	200374a4 <wup_tsk+0x10c>
200374a0:	ebffeef8 	bl	20033088 <_kernel_dispatch>
200374a4:	e3a03000 	mov	r3, #0
200374a8:	e50b3008 	str	r3, [fp, #-8]
200374ac:	ea00000e 	b	200374ec <wup_tsk+0x154>
200374b0:	e51b300c 	ldr	r3, [fp, #-12]
200374b4:	e5d3300e 	ldrb	r3, [r3, #14]
200374b8:	e2033002 	and	r3, r3, #2
200374bc:	e6ef3073 	uxtb	r3, r3
200374c0:	e3530000 	cmp	r3, #0
200374c4:	1a000006 	bne	200374e4 <wup_tsk+0x14c>
200374c8:	e51b200c 	ldr	r2, [fp, #-12]
200374cc:	e5d2300e 	ldrb	r3, [r2, #14]
200374d0:	e3833002 	orr	r3, r3, #2
200374d4:	e5c2300e 	strb	r3, [r2, #14]
200374d8:	e3a03000 	mov	r3, #0
200374dc:	e50b3008 	str	r3, [fp, #-8]
200374e0:	ea000001 	b	200374ec <wup_tsk+0x154>
200374e4:	e3e0302a 	mvn	r3, #42	; 0x2a
200374e8:	e50b3008 	str	r3, [fp, #-8]
200374ec:	ebfffee4 	bl	20037084 <x_unlock_cpu>
200374f0:	e51b3008 	ldr	r3, [fp, #-8]
200374f4:	e1a00003 	mov	r0, r3
200374f8:	e24bd004 	sub	sp, fp, #4
200374fc:	e8bd8800 	pop	{fp, pc}

20037500 <iwup_tsk>:
20037500:	e92d4800 	push	{fp, lr}
20037504:	e28db004 	add	fp, sp, #4
20037508:	e24dd010 	sub	sp, sp, #16
2003750c:	e50b0010 	str	r0, [fp, #-16]
20037510:	ebfffec7 	bl	20037034 <sense_context>
20037514:	e1a03000 	mov	r3, r0
20037518:	e3530000 	cmp	r3, #0
2003751c:	0a000003 	beq	20037530 <iwup_tsk+0x30>
20037520:	ebfffee0 	bl	200370a8 <x_sense_lock>
20037524:	e1a03000 	mov	r3, r0
20037528:	e3530000 	cmp	r3, #0
2003752c:	0a000002 	beq	2003753c <iwup_tsk+0x3c>
20037530:	e3e03018 	mvn	r3, #24
20037534:	e50b3008 	str	r3, [fp, #-8]
20037538:	ea00003f 	b	2003763c <iwup_tsk+0x13c>
2003753c:	e51b3010 	ldr	r3, [fp, #-16]
20037540:	e3530000 	cmp	r3, #0
20037544:	da000005 	ble	20037560 <iwup_tsk+0x60>
20037548:	e30a3df0 	movw	r3, #44528	; 0xadf0
2003754c:	e3423003 	movt	r3, #8195	; 0x2003
20037550:	e5933000 	ldr	r3, [r3]
20037554:	e51b2010 	ldr	r2, [fp, #-16]
20037558:	e1520003 	cmp	r2, r3
2003755c:	da000002 	ble	2003756c <iwup_tsk+0x6c>
20037560:	e3e03011 	mvn	r3, #17
20037564:	e50b3008 	str	r3, [fp, #-8]
20037568:	ea000033 	b	2003763c <iwup_tsk+0x13c>
2003756c:	e51b3010 	ldr	r3, [fp, #-16]
20037570:	e2432001 	sub	r2, r3, #1
20037574:	e1a03002 	mov	r3, r2
20037578:	e1a03183 	lsl	r3, r3, #3
2003757c:	e0833002 	add	r3, r3, r2
20037580:	e1a03103 	lsl	r3, r3, #2
20037584:	e1a02003 	mov	r2, r3
20037588:	e3013f14 	movw	r3, #7956	; 0x1f14
2003758c:	e3423004 	movt	r3, #8196	; 0x2004
20037590:	e0823003 	add	r3, r2, r3
20037594:	e50b300c 	str	r3, [fp, #-12]
20037598:	ebfffeb1 	bl	20037064 <x_lock_cpu>
2003759c:	e51b300c 	ldr	r3, [fp, #-12]
200375a0:	e5d3300c 	ldrb	r3, [r3, #12]
200375a4:	e3530000 	cmp	r3, #0
200375a8:	1a000002 	bne	200375b8 <iwup_tsk+0xb8>
200375ac:	e3e03028 	mvn	r3, #40	; 0x28
200375b0:	e50b3008 	str	r3, [fp, #-8]
200375b4:	ea00001f 	b	20037638 <iwup_tsk+0x138>
200375b8:	e51b300c 	ldr	r3, [fp, #-12]
200375bc:	e5d3300c 	ldrb	r3, [r3, #12]
200375c0:	e2033078 	and	r3, r3, #120	; 0x78
200375c4:	e3530008 	cmp	r3, #8
200375c8:	1a00000b 	bne	200375fc <iwup_tsk+0xfc>
200375cc:	e51b000c 	ldr	r0, [fp, #-12]
200375d0:	eb000be5 	bl	2003a56c <_kernel_wait_complete>
200375d4:	e1a03000 	mov	r3, r0
200375d8:	e3530000 	cmp	r3, #0
200375dc:	0a000003 	beq	200375f0 <iwup_tsk+0xf0>
200375e0:	e3043008 	movw	r3, #16392	; 0x4008
200375e4:	e3423005 	movt	r3, #8197	; 0x2005
200375e8:	e3a02001 	mov	r2, #1
200375ec:	e5832000 	str	r2, [r3]
200375f0:	e3a03000 	mov	r3, #0
200375f4:	e50b3008 	str	r3, [fp, #-8]
200375f8:	ea00000e 	b	20037638 <iwup_tsk+0x138>
200375fc:	e51b300c 	ldr	r3, [fp, #-12]
20037600:	e5d3300e 	ldrb	r3, [r3, #14]
20037604:	e2033002 	and	r3, r3, #2
20037608:	e6ef3073 	uxtb	r3, r3
2003760c:	e3530000 	cmp	r3, #0
20037610:	1a000006 	bne	20037630 <iwup_tsk+0x130>
20037614:	e51b200c 	ldr	r2, [fp, #-12]
20037618:	e5d2300e 	ldrb	r3, [r2, #14]
2003761c:	e3833002 	orr	r3, r3, #2
20037620:	e5c2300e 	strb	r3, [r2, #14]
20037624:	e3a03000 	mov	r3, #0
20037628:	e50b3008 	str	r3, [fp, #-8]
2003762c:	ea000001 	b	20037638 <iwup_tsk+0x138>
20037630:	e3e0302a 	mvn	r3, #42	; 0x2a
20037634:	e50b3008 	str	r3, [fp, #-8]
20037638:	ebfffe91 	bl	20037084 <x_unlock_cpu>
2003763c:	e51b3008 	ldr	r3, [fp, #-8]
20037640:	e1a00003 	mov	r0, r3
20037644:	e24bd004 	sub	sp, fp, #4
20037648:	e8bd8800 	pop	{fp, pc}

2003764c <can_wup>:
2003764c:	e92d4800 	push	{fp, lr}
20037650:	e28db004 	add	fp, sp, #4
20037654:	e24dd010 	sub	sp, sp, #16
20037658:	e50b0010 	str	r0, [fp, #-16]
2003765c:	ebfffe74 	bl	20037034 <sense_context>
20037660:	e1a03000 	mov	r3, r0
20037664:	e3530000 	cmp	r3, #0
20037668:	1a000003 	bne	2003767c <can_wup+0x30>
2003766c:	ebfffe8d 	bl	200370a8 <x_sense_lock>
20037670:	e1a03000 	mov	r3, r0
20037674:	e3530000 	cmp	r3, #0
20037678:	0a000002 	beq	20037688 <can_wup+0x3c>
2003767c:	e3e03018 	mvn	r3, #24
20037680:	e50b3008 	str	r3, [fp, #-8]
20037684:	ea000035 	b	20037760 <can_wup+0x114>
20037688:	e51b3010 	ldr	r3, [fp, #-16]
2003768c:	e3530000 	cmp	r3, #0
20037690:	da000005 	ble	200376ac <can_wup+0x60>
20037694:	e30a3df0 	movw	r3, #44528	; 0xadf0
20037698:	e3423003 	movt	r3, #8195	; 0x2003
2003769c:	e5933000 	ldr	r3, [r3]
200376a0:	e51b2010 	ldr	r2, [fp, #-16]
200376a4:	e1520003 	cmp	r2, r3
200376a8:	da000005 	ble	200376c4 <can_wup+0x78>
200376ac:	e51b3010 	ldr	r3, [fp, #-16]
200376b0:	e3530000 	cmp	r3, #0
200376b4:	0a000002 	beq	200376c4 <can_wup+0x78>
200376b8:	e3e03011 	mvn	r3, #17
200376bc:	e50b3008 	str	r3, [fp, #-8]
200376c0:	ea000026 	b	20037760 <can_wup+0x114>
200376c4:	e51b3010 	ldr	r3, [fp, #-16]
200376c8:	e3530000 	cmp	r3, #0
200376cc:	0a00000a 	beq	200376fc <can_wup+0xb0>
200376d0:	e51b3010 	ldr	r3, [fp, #-16]
200376d4:	e2432001 	sub	r2, r3, #1
200376d8:	e1a03002 	mov	r3, r2
200376dc:	e1a03183 	lsl	r3, r3, #3
200376e0:	e0833002 	add	r3, r3, r2
200376e4:	e1a03103 	lsl	r3, r3, #2
200376e8:	e1a02003 	mov	r2, r3
200376ec:	e3013f14 	movw	r3, #7956	; 0x1f14
200376f0:	e3423004 	movt	r3, #8196	; 0x2004
200376f4:	e0823003 	add	r3, r2, r3
200376f8:	ea000002 	b	20037708 <can_wup+0xbc>
200376fc:	e3043098 	movw	r3, #16536	; 0x4098
20037700:	e3423005 	movt	r3, #8197	; 0x2005
20037704:	e5933000 	ldr	r3, [r3]
20037708:	e50b300c 	str	r3, [fp, #-12]
2003770c:	ebfffe54 	bl	20037064 <x_lock_cpu>
20037710:	e51b300c 	ldr	r3, [fp, #-12]
20037714:	e5d3300c 	ldrb	r3, [r3, #12]
20037718:	e3530000 	cmp	r3, #0
2003771c:	1a000002 	bne	2003772c <can_wup+0xe0>
20037720:	e3e03028 	mvn	r3, #40	; 0x28
20037724:	e50b3008 	str	r3, [fp, #-8]
20037728:	ea00000b 	b	2003775c <can_wup+0x110>
2003772c:	e51b300c 	ldr	r3, [fp, #-12]
20037730:	e5d3300e 	ldrb	r3, [r3, #14]
20037734:	e2033002 	and	r3, r3, #2
20037738:	e6ef3073 	uxtb	r3, r3
2003773c:	e3530000 	cmp	r3, #0
20037740:	03a03000 	moveq	r3, #0
20037744:	13a03001 	movne	r3, #1
20037748:	e50b3008 	str	r3, [fp, #-8]
2003774c:	e51b200c 	ldr	r2, [fp, #-12]
20037750:	e5d2300e 	ldrb	r3, [r2, #14]
20037754:	e7c1309f 	bfc	r3, #1, #1
20037758:	e5c2300e 	strb	r3, [r2, #14]
2003775c:	ebfffe48 	bl	20037084 <x_unlock_cpu>
20037760:	e51b3008 	ldr	r3, [fp, #-8]
20037764:	e1a00003 	mov	r0, r3
20037768:	e24bd004 	sub	sp, fp, #4
2003776c:	e8bd8800 	pop	{fp, pc}

20037770 <rel_wai>:
20037770:	e92d4800 	push	{fp, lr}
20037774:	e28db004 	add	fp, sp, #4
20037778:	e24dd010 	sub	sp, sp, #16
2003777c:	e50b0010 	str	r0, [fp, #-16]
20037780:	ebfffe2b 	bl	20037034 <sense_context>
20037784:	e1a03000 	mov	r3, r0
20037788:	e3530000 	cmp	r3, #0
2003778c:	1a000003 	bne	200377a0 <rel_wai+0x30>
20037790:	ebfffe44 	bl	200370a8 <x_sense_lock>
20037794:	e1a03000 	mov	r3, r0
20037798:	e3530000 	cmp	r3, #0
2003779c:	0a000002 	beq	200377ac <rel_wai+0x3c>
200377a0:	e3e03018 	mvn	r3, #24
200377a4:	e50b3008 	str	r3, [fp, #-8]
200377a8:	ea000028 	b	20037850 <rel_wai+0xe0>
200377ac:	e51b3010 	ldr	r3, [fp, #-16]
200377b0:	e3530000 	cmp	r3, #0
200377b4:	da000005 	ble	200377d0 <rel_wai+0x60>
200377b8:	e30a3df0 	movw	r3, #44528	; 0xadf0
200377bc:	e3423003 	movt	r3, #8195	; 0x2003
200377c0:	e5933000 	ldr	r3, [r3]
200377c4:	e51b2010 	ldr	r2, [fp, #-16]
200377c8:	e1520003 	cmp	r2, r3
200377cc:	da000002 	ble	200377dc <rel_wai+0x6c>
200377d0:	e3e03011 	mvn	r3, #17
200377d4:	e50b3008 	str	r3, [fp, #-8]
200377d8:	ea00001c 	b	20037850 <rel_wai+0xe0>
200377dc:	e51b3010 	ldr	r3, [fp, #-16]
200377e0:	e2432001 	sub	r2, r3, #1
200377e4:	e1a03002 	mov	r3, r2
200377e8:	e1a03183 	lsl	r3, r3, #3
200377ec:	e0833002 	add	r3, r3, r2
200377f0:	e1a03103 	lsl	r3, r3, #2
200377f4:	e1a02003 	mov	r2, r3
200377f8:	e3013f14 	movw	r3, #7956	; 0x1f14
200377fc:	e3423004 	movt	r3, #8196	; 0x2004
20037800:	e0823003 	add	r3, r2, r3
20037804:	e50b300c 	str	r3, [fp, #-12]
20037808:	ebfffe15 	bl	20037064 <x_lock_cpu>
2003780c:	e51b300c 	ldr	r3, [fp, #-12]
20037810:	e5d3300c 	ldrb	r3, [r3, #12]
20037814:	e2033002 	and	r3, r3, #2
20037818:	e3530000 	cmp	r3, #0
2003781c:	1a000002 	bne	2003782c <rel_wai+0xbc>
20037820:	e3e03028 	mvn	r3, #40	; 0x28
20037824:	e50b3008 	str	r3, [fp, #-8]
20037828:	ea000007 	b	2003784c <rel_wai+0xdc>
2003782c:	e51b000c 	ldr	r0, [fp, #-12]
20037830:	eb000b89 	bl	2003a65c <_kernel_wait_release>
20037834:	e1a03000 	mov	r3, r0
20037838:	e3530000 	cmp	r3, #0
2003783c:	0a000000 	beq	20037844 <rel_wai+0xd4>
20037840:	ebffee10 	bl	20033088 <_kernel_dispatch>
20037844:	e3a03000 	mov	r3, #0
20037848:	e50b3008 	str	r3, [fp, #-8]
2003784c:	ebfffe0c 	bl	20037084 <x_unlock_cpu>
20037850:	e51b3008 	ldr	r3, [fp, #-8]
20037854:	e1a00003 	mov	r0, r3
20037858:	e24bd004 	sub	sp, fp, #4
2003785c:	e8bd8800 	pop	{fp, pc}

20037860 <irel_wai>:
20037860:	e92d4800 	push	{fp, lr}
20037864:	e28db004 	add	fp, sp, #4
20037868:	e24dd010 	sub	sp, sp, #16
2003786c:	e50b0010 	str	r0, [fp, #-16]
20037870:	ebfffdef 	bl	20037034 <sense_context>
20037874:	e1a03000 	mov	r3, r0
20037878:	e3530000 	cmp	r3, #0
2003787c:	0a000003 	beq	20037890 <irel_wai+0x30>
20037880:	ebfffe08 	bl	200370a8 <x_sense_lock>
20037884:	e1a03000 	mov	r3, r0
20037888:	e3530000 	cmp	r3, #0
2003788c:	0a000002 	beq	2003789c <irel_wai+0x3c>
20037890:	e3e03018 	mvn	r3, #24
20037894:	e50b3008 	str	r3, [fp, #-8]
20037898:	ea00002b 	b	2003794c <irel_wai+0xec>
2003789c:	e51b3010 	ldr	r3, [fp, #-16]
200378a0:	e3530000 	cmp	r3, #0
200378a4:	da000005 	ble	200378c0 <irel_wai+0x60>
200378a8:	e30a3df0 	movw	r3, #44528	; 0xadf0
200378ac:	e3423003 	movt	r3, #8195	; 0x2003
200378b0:	e5933000 	ldr	r3, [r3]
200378b4:	e51b2010 	ldr	r2, [fp, #-16]
200378b8:	e1520003 	cmp	r2, r3
200378bc:	da000002 	ble	200378cc <irel_wai+0x6c>
200378c0:	e3e03011 	mvn	r3, #17
200378c4:	e50b3008 	str	r3, [fp, #-8]
200378c8:	ea00001f 	b	2003794c <irel_wai+0xec>
200378cc:	e51b3010 	ldr	r3, [fp, #-16]
200378d0:	e2432001 	sub	r2, r3, #1
200378d4:	e1a03002 	mov	r3, r2
200378d8:	e1a03183 	lsl	r3, r3, #3
200378dc:	e0833002 	add	r3, r3, r2
200378e0:	e1a03103 	lsl	r3, r3, #2
200378e4:	e1a02003 	mov	r2, r3
200378e8:	e3013f14 	movw	r3, #7956	; 0x1f14
200378ec:	e3423004 	movt	r3, #8196	; 0x2004
200378f0:	e0823003 	add	r3, r2, r3
200378f4:	e50b300c 	str	r3, [fp, #-12]
200378f8:	ebfffdd9 	bl	20037064 <x_lock_cpu>
200378fc:	e51b300c 	ldr	r3, [fp, #-12]
20037900:	e5d3300c 	ldrb	r3, [r3, #12]
20037904:	e2033002 	and	r3, r3, #2
20037908:	e3530000 	cmp	r3, #0
2003790c:	1a000002 	bne	2003791c <irel_wai+0xbc>
20037910:	e3e03028 	mvn	r3, #40	; 0x28
20037914:	e50b3008 	str	r3, [fp, #-8]
20037918:	ea00000a 	b	20037948 <irel_wai+0xe8>
2003791c:	e51b000c 	ldr	r0, [fp, #-12]
20037920:	eb000b4d 	bl	2003a65c <_kernel_wait_release>
20037924:	e1a03000 	mov	r3, r0
20037928:	e3530000 	cmp	r3, #0
2003792c:	0a000003 	beq	20037940 <irel_wai+0xe0>
20037930:	e3043008 	movw	r3, #16392	; 0x4008
20037934:	e3423005 	movt	r3, #8197	; 0x2005
20037938:	e3a02001 	mov	r2, #1
2003793c:	e5832000 	str	r2, [r3]
20037940:	e3a03000 	mov	r3, #0
20037944:	e50b3008 	str	r3, [fp, #-8]
20037948:	ebfffdcd 	bl	20037084 <x_unlock_cpu>
2003794c:	e51b3008 	ldr	r3, [fp, #-8]
20037950:	e1a00003 	mov	r0, r3
20037954:	e24bd004 	sub	sp, fp, #4
20037958:	e8bd8800 	pop	{fp, pc}

2003795c <sus_tsk>:
2003795c:	e92d4800 	push	{fp, lr}
20037960:	e28db004 	add	fp, sp, #4
20037964:	e24dd010 	sub	sp, sp, #16
20037968:	e50b0010 	str	r0, [fp, #-16]
2003796c:	ebfffdb0 	bl	20037034 <sense_context>
20037970:	e1a03000 	mov	r3, r0
20037974:	e3530000 	cmp	r3, #0
20037978:	1a000003 	bne	2003798c <sus_tsk+0x30>
2003797c:	ebfffdc9 	bl	200370a8 <x_sense_lock>
20037980:	e1a03000 	mov	r3, r0
20037984:	e3530000 	cmp	r3, #0
20037988:	0a000002 	beq	20037998 <sus_tsk+0x3c>
2003798c:	e3e03018 	mvn	r3, #24
20037990:	e50b3008 	str	r3, [fp, #-8]
20037994:	ea000059 	b	20037b00 <sus_tsk+0x1a4>
20037998:	e51b3010 	ldr	r3, [fp, #-16]
2003799c:	e3530000 	cmp	r3, #0
200379a0:	da000005 	ble	200379bc <sus_tsk+0x60>
200379a4:	e30a3df0 	movw	r3, #44528	; 0xadf0
200379a8:	e3423003 	movt	r3, #8195	; 0x2003
200379ac:	e5933000 	ldr	r3, [r3]
200379b0:	e51b2010 	ldr	r2, [fp, #-16]
200379b4:	e1520003 	cmp	r2, r3
200379b8:	da000005 	ble	200379d4 <sus_tsk+0x78>
200379bc:	e51b3010 	ldr	r3, [fp, #-16]
200379c0:	e3530000 	cmp	r3, #0
200379c4:	0a000002 	beq	200379d4 <sus_tsk+0x78>
200379c8:	e3e03011 	mvn	r3, #17
200379cc:	e50b3008 	str	r3, [fp, #-8]
200379d0:	ea00004a 	b	20037b00 <sus_tsk+0x1a4>
200379d4:	e51b3010 	ldr	r3, [fp, #-16]
200379d8:	e3530000 	cmp	r3, #0
200379dc:	0a00000a 	beq	20037a0c <sus_tsk+0xb0>
200379e0:	e51b3010 	ldr	r3, [fp, #-16]
200379e4:	e2432001 	sub	r2, r3, #1
200379e8:	e1a03002 	mov	r3, r2
200379ec:	e1a03183 	lsl	r3, r3, #3
200379f0:	e0833002 	add	r3, r3, r2
200379f4:	e1a03103 	lsl	r3, r3, #2
200379f8:	e1a02003 	mov	r2, r3
200379fc:	e3013f14 	movw	r3, #7956	; 0x1f14
20037a00:	e3423004 	movt	r3, #8196	; 0x2004
20037a04:	e0823003 	add	r3, r2, r3
20037a08:	ea000002 	b	20037a18 <sus_tsk+0xbc>
20037a0c:	e3043098 	movw	r3, #16536	; 0x4098
20037a10:	e3423005 	movt	r3, #8197	; 0x2005
20037a14:	e5933000 	ldr	r3, [r3]
20037a18:	e50b300c 	str	r3, [fp, #-12]
20037a1c:	ebfffd90 	bl	20037064 <x_lock_cpu>
20037a20:	e3043098 	movw	r3, #16536	; 0x4098
20037a24:	e3423005 	movt	r3, #8197	; 0x2005
20037a28:	e5933000 	ldr	r3, [r3]
20037a2c:	e51b200c 	ldr	r2, [fp, #-12]
20037a30:	e1520003 	cmp	r2, r3
20037a34:	1a000007 	bne	20037a58 <sus_tsk+0xfc>
20037a38:	e304308c 	movw	r3, #16524	; 0x408c
20037a3c:	e3423005 	movt	r3, #8197	; 0x2005
20037a40:	e5933000 	ldr	r3, [r3]
20037a44:	e3530000 	cmp	r3, #0
20037a48:	1a000002 	bne	20037a58 <sus_tsk+0xfc>
20037a4c:	e3e03018 	mvn	r3, #24
20037a50:	e50b3008 	str	r3, [fp, #-8]
20037a54:	ea000028 	b	20037afc <sus_tsk+0x1a0>
20037a58:	e51b300c 	ldr	r3, [fp, #-12]
20037a5c:	e5d3300c 	ldrb	r3, [r3, #12]
20037a60:	e3530000 	cmp	r3, #0
20037a64:	1a000002 	bne	20037a74 <sus_tsk+0x118>
20037a68:	e3e03028 	mvn	r3, #40	; 0x28
20037a6c:	e50b3008 	str	r3, [fp, #-8]
20037a70:	ea000021 	b	20037afc <sus_tsk+0x1a0>
20037a74:	e51b300c 	ldr	r3, [fp, #-12]
20037a78:	e5d3300c 	ldrb	r3, [r3, #12]
20037a7c:	e2033001 	and	r3, r3, #1
20037a80:	e6ef3073 	uxtb	r3, r3
20037a84:	e3530000 	cmp	r3, #0
20037a88:	0a00000b 	beq	20037abc <sus_tsk+0x160>
20037a8c:	e51b300c 	ldr	r3, [fp, #-12]
20037a90:	e3a02004 	mov	r2, #4
20037a94:	e5c3200c 	strb	r2, [r3, #12]
20037a98:	e51b000c 	ldr	r0, [fp, #-12]
20037a9c:	ebfff64e 	bl	200353dc <_kernel_make_non_runnable>
20037aa0:	e1a03000 	mov	r3, r0
20037aa4:	e3530000 	cmp	r3, #0
20037aa8:	0a000000 	beq	20037ab0 <sus_tsk+0x154>
20037aac:	ebffed75 	bl	20033088 <_kernel_dispatch>
20037ab0:	e3a03000 	mov	r3, #0
20037ab4:	e50b3008 	str	r3, [fp, #-8]
20037ab8:	ea00000f 	b	20037afc <sus_tsk+0x1a0>
20037abc:	e51b300c 	ldr	r3, [fp, #-12]
20037ac0:	e5d3300c 	ldrb	r3, [r3, #12]
20037ac4:	e2033004 	and	r3, r3, #4
20037ac8:	e3530000 	cmp	r3, #0
20037acc:	0a000002 	beq	20037adc <sus_tsk+0x180>
20037ad0:	e3e0302a 	mvn	r3, #42	; 0x2a
20037ad4:	e50b3008 	str	r3, [fp, #-8]
20037ad8:	ea000007 	b	20037afc <sus_tsk+0x1a0>
20037adc:	e51b300c 	ldr	r3, [fp, #-12]
20037ae0:	e5d3300c 	ldrb	r3, [r3, #12]
20037ae4:	e3833004 	orr	r3, r3, #4
20037ae8:	e6ef2073 	uxtb	r2, r3
20037aec:	e51b300c 	ldr	r3, [fp, #-12]
20037af0:	e5c3200c 	strb	r2, [r3, #12]
20037af4:	e3a03000 	mov	r3, #0
20037af8:	e50b3008 	str	r3, [fp, #-8]
20037afc:	ebfffd60 	bl	20037084 <x_unlock_cpu>
20037b00:	e51b3008 	ldr	r3, [fp, #-8]
20037b04:	e1a00003 	mov	r0, r3
20037b08:	e24bd004 	sub	sp, fp, #4
20037b0c:	e8bd8800 	pop	{fp, pc}

20037b10 <rsm_tsk>:
20037b10:	e92d4800 	push	{fp, lr}
20037b14:	e28db004 	add	fp, sp, #4
20037b18:	e24dd010 	sub	sp, sp, #16
20037b1c:	e50b0010 	str	r0, [fp, #-16]
20037b20:	ebfffd43 	bl	20037034 <sense_context>
20037b24:	e1a03000 	mov	r3, r0
20037b28:	e3530000 	cmp	r3, #0
20037b2c:	1a000003 	bne	20037b40 <rsm_tsk+0x30>
20037b30:	ebfffd5c 	bl	200370a8 <x_sense_lock>
20037b34:	e1a03000 	mov	r3, r0
20037b38:	e3530000 	cmp	r3, #0
20037b3c:	0a000002 	beq	20037b4c <rsm_tsk+0x3c>
20037b40:	e3e03018 	mvn	r3, #24
20037b44:	e50b3008 	str	r3, [fp, #-8]
20037b48:	ea000039 	b	20037c34 <rsm_tsk+0x124>
20037b4c:	e51b3010 	ldr	r3, [fp, #-16]
20037b50:	e3530000 	cmp	r3, #0
20037b54:	da000005 	ble	20037b70 <rsm_tsk+0x60>
20037b58:	e30a3df0 	movw	r3, #44528	; 0xadf0
20037b5c:	e3423003 	movt	r3, #8195	; 0x2003
20037b60:	e5933000 	ldr	r3, [r3]
20037b64:	e51b2010 	ldr	r2, [fp, #-16]
20037b68:	e1520003 	cmp	r2, r3
20037b6c:	da000002 	ble	20037b7c <rsm_tsk+0x6c>
20037b70:	e3e03011 	mvn	r3, #17
20037b74:	e50b3008 	str	r3, [fp, #-8]
20037b78:	ea00002d 	b	20037c34 <rsm_tsk+0x124>
20037b7c:	e51b3010 	ldr	r3, [fp, #-16]
20037b80:	e2432001 	sub	r2, r3, #1
20037b84:	e1a03002 	mov	r3, r2
20037b88:	e1a03183 	lsl	r3, r3, #3
20037b8c:	e0833002 	add	r3, r3, r2
20037b90:	e1a03103 	lsl	r3, r3, #2
20037b94:	e1a02003 	mov	r2, r3
20037b98:	e3013f14 	movw	r3, #7956	; 0x1f14
20037b9c:	e3423004 	movt	r3, #8196	; 0x2004
20037ba0:	e0823003 	add	r3, r2, r3
20037ba4:	e50b300c 	str	r3, [fp, #-12]
20037ba8:	ebfffd2d 	bl	20037064 <x_lock_cpu>
20037bac:	e51b300c 	ldr	r3, [fp, #-12]
20037bb0:	e5d3300c 	ldrb	r3, [r3, #12]
20037bb4:	e2033004 	and	r3, r3, #4
20037bb8:	e3530000 	cmp	r3, #0
20037bbc:	1a000002 	bne	20037bcc <rsm_tsk+0xbc>
20037bc0:	e3e03028 	mvn	r3, #40	; 0x28
20037bc4:	e50b3008 	str	r3, [fp, #-8]
20037bc8:	ea000018 	b	20037c30 <rsm_tsk+0x120>
20037bcc:	e51b300c 	ldr	r3, [fp, #-12]
20037bd0:	e5d3300c 	ldrb	r3, [r3, #12]
20037bd4:	e2033002 	and	r3, r3, #2
20037bd8:	e3530000 	cmp	r3, #0
20037bdc:	1a00000b 	bne	20037c10 <rsm_tsk+0x100>
20037be0:	e51b300c 	ldr	r3, [fp, #-12]
20037be4:	e3a02001 	mov	r2, #1
20037be8:	e5c3200c 	strb	r2, [r3, #12]
20037bec:	e51b000c 	ldr	r0, [fp, #-12]
20037bf0:	ebfff5ce 	bl	20035330 <_kernel_make_runnable>
20037bf4:	e1a03000 	mov	r3, r0
20037bf8:	e3530000 	cmp	r3, #0
20037bfc:	0a000000 	beq	20037c04 <rsm_tsk+0xf4>
20037c00:	ebffed20 	bl	20033088 <_kernel_dispatch>
20037c04:	e3a03000 	mov	r3, #0
20037c08:	e50b3008 	str	r3, [fp, #-8]
20037c0c:	ea000007 	b	20037c30 <rsm_tsk+0x120>
20037c10:	e51b300c 	ldr	r3, [fp, #-12]
20037c14:	e5d3300c 	ldrb	r3, [r3, #12]
20037c18:	e3c33004 	bic	r3, r3, #4
20037c1c:	e6ef2073 	uxtb	r2, r3
20037c20:	e51b300c 	ldr	r3, [fp, #-12]
20037c24:	e5c3200c 	strb	r2, [r3, #12]
20037c28:	e3a03000 	mov	r3, #0
20037c2c:	e50b3008 	str	r3, [fp, #-8]
20037c30:	ebfffd13 	bl	20037084 <x_unlock_cpu>
20037c34:	e51b3008 	ldr	r3, [fp, #-8]
20037c38:	e1a00003 	mov	r0, r3
20037c3c:	e24bd004 	sub	sp, fp, #4
20037c40:	e8bd8800 	pop	{fp, pc}

20037c44 <dly_tsk>:
20037c44:	e92d4800 	push	{fp, lr}
20037c48:	e28db004 	add	fp, sp, #4
20037c4c:	e24dd020 	sub	sp, sp, #32
20037c50:	e50b0020 	str	r0, [fp, #-32]	; 0xffffffe0
20037c54:	ebfffcf6 	bl	20037034 <sense_context>
20037c58:	e1a03000 	mov	r3, r0
20037c5c:	e3530000 	cmp	r3, #0
20037c60:	1a000008 	bne	20037c88 <dly_tsk+0x44>
20037c64:	ebfffd0f 	bl	200370a8 <x_sense_lock>
20037c68:	e1a03000 	mov	r3, r0
20037c6c:	e3530000 	cmp	r3, #0
20037c70:	1a000004 	bne	20037c88 <dly_tsk+0x44>
20037c74:	e304308c 	movw	r3, #16524	; 0x408c
20037c78:	e3423005 	movt	r3, #8197	; 0x2005
20037c7c:	e5933000 	ldr	r3, [r3]
20037c80:	e3530000 	cmp	r3, #0
20037c84:	1a000002 	bne	20037c94 <dly_tsk+0x50>
20037c88:	e3e03018 	mvn	r3, #24
20037c8c:	e50b3008 	str	r3, [fp, #-8]
20037c90:	ea000026 	b	20037d30 <dly_tsk+0xec>
20037c94:	e51b3020 	ldr	r3, [fp, #-32]	; 0xffffffe0
20037c98:	e3530000 	cmp	r3, #0
20037c9c:	aa000002 	bge	20037cac <dly_tsk+0x68>
20037ca0:	e3e03010 	mvn	r3, #16
20037ca4:	e50b3008 	str	r3, [fp, #-8]
20037ca8:	ea000020 	b	20037d30 <dly_tsk+0xec>
20037cac:	ebfffcec 	bl	20037064 <x_lock_cpu>
20037cb0:	e3043098 	movw	r3, #16536	; 0x4098
20037cb4:	e3423005 	movt	r3, #8197	; 0x2005
20037cb8:	e5933000 	ldr	r3, [r3]
20037cbc:	e3a02002 	mov	r2, #2
20037cc0:	e5c3200c 	strb	r2, [r3, #12]
20037cc4:	e3043098 	movw	r3, #16536	; 0x4098
20037cc8:	e3423005 	movt	r3, #8197	; 0x2005
20037ccc:	e5933000 	ldr	r3, [r3]
20037cd0:	e1a00003 	mov	r0, r3
20037cd4:	ebfff5c0 	bl	200353dc <_kernel_make_non_runnable>
20037cd8:	e3043098 	movw	r3, #16536	; 0x4098
20037cdc:	e3423005 	movt	r3, #8197	; 0x2005
20037ce0:	e5933000 	ldr	r3, [r3]
20037ce4:	e24b200c 	sub	r2, fp, #12
20037ce8:	e5832014 	str	r2, [r3, #20]
20037cec:	e24b3018 	sub	r3, fp, #24
20037cf0:	e50b300c 	str	r3, [fp, #-12]
20037cf4:	e30a3608 	movw	r3, #42504	; 0xa608
20037cf8:	e3423003 	movt	r3, #8195	; 0x2003
20037cfc:	e3042098 	movw	r2, #16536	; 0x4098
20037d00:	e3422005 	movt	r2, #8197	; 0x2005
20037d04:	e592c000 	ldr	ip, [r2]
20037d08:	e24b2018 	sub	r2, fp, #24
20037d0c:	e1a00002 	mov	r0, r2
20037d10:	e51b1020 	ldr	r1, [fp, #-32]	; 0xffffffe0
20037d14:	e1a02003 	mov	r2, r3
20037d18:	e1a0300c 	mov	r3, ip
20037d1c:	ebfffceb 	bl	200370d0 <tmevtb_enqueue>
20037d20:	ebffecd8 	bl	20033088 <_kernel_dispatch>
20037d24:	e51b300c 	ldr	r3, [fp, #-12]
20037d28:	e50b3008 	str	r3, [fp, #-8]
20037d2c:	ebfffcd4 	bl	20037084 <x_unlock_cpu>
20037d30:	e51b3008 	ldr	r3, [fp, #-8]
20037d34:	e1a00003 	mov	r0, r3
20037d38:	e24bd004 	sub	sp, fp, #4
20037d3c:	e8bd8800 	pop	{fp, pc}

20037d40 <TOPPERS_assert_abort>:
20037d40:	e52db004 	push	{fp}		; (str fp, [sp, #-4]!)
20037d44:	e28db000 	add	fp, sp, #0
20037d48:	eafffffe 	b	20037d48 <TOPPERS_assert_abort+0x8>

20037d4c <_syslog_3>:
20037d4c:	e92d4800 	push	{fp, lr}
20037d50:	e28db004 	add	fp, sp, #4
20037d54:	e24dd040 	sub	sp, sp, #64	; 0x40
20037d58:	e50b0038 	str	r0, [fp, #-56]	; 0xffffffc8
20037d5c:	e50b103c 	str	r1, [fp, #-60]	; 0xffffffc4
20037d60:	e50b2040 	str	r2, [fp, #-64]	; 0xffffffc0
20037d64:	e50b3044 	str	r3, [fp, #-68]	; 0xffffffbc
20037d68:	e51b303c 	ldr	r3, [fp, #-60]	; 0xffffffc4
20037d6c:	e50b3034 	str	r3, [fp, #-52]	; 0xffffffcc
20037d70:	e51b3040 	ldr	r3, [fp, #-64]	; 0xffffffc0
20037d74:	e50b302c 	str	r3, [fp, #-44]	; 0xffffffd4
20037d78:	e51b3044 	ldr	r3, [fp, #-68]	; 0xffffffbc
20037d7c:	e50b3028 	str	r3, [fp, #-40]	; 0xffffffd8
20037d80:	e59b3004 	ldr	r3, [fp, #4]
20037d84:	e50b3024 	str	r3, [fp, #-36]	; 0xffffffdc
20037d88:	e24b3034 	sub	r3, fp, #52	; 0x34
20037d8c:	e51b0038 	ldr	r0, [fp, #-56]	; 0xffffffc8
20037d90:	e1a01003 	mov	r1, r3
20037d94:	ebffe21a 	bl	20030604 <syslog_wri_log>
20037d98:	e24bd004 	sub	sp, fp, #4
20037d9c:	e8bd8800 	pop	{fp, pc}

20037da0 <current_sr>:
20037da0:	e92d0810 	push	{r4, fp}
20037da4:	e28db004 	add	fp, sp, #4
20037da8:	e24dd008 	sub	sp, sp, #8
20037dac:	e10f4000 	mrs	r4, CPSR
20037db0:	e50b4008 	str	r4, [fp, #-8]
20037db4:	e51b3008 	ldr	r3, [fp, #-8]
20037db8:	e1a00003 	mov	r0, r3
20037dbc:	e24bd004 	sub	sp, fp, #4
20037dc0:	e8bd0810 	pop	{r4, fp}
20037dc4:	e12fff1e 	bx	lr

20037dc8 <set_sr>:
20037dc8:	e52db004 	push	{fp}		; (str fp, [sp, #-4]!)
20037dcc:	e28db000 	add	fp, sp, #0
20037dd0:	e24dd00c 	sub	sp, sp, #12
20037dd4:	e50b0008 	str	r0, [fp, #-8]
20037dd8:	e51b3008 	ldr	r3, [fp, #-8]
20037ddc:	e129f003 	msr	CPSR_fc, r3
20037de0:	e28bd000 	add	sp, fp, #0
20037de4:	e49db004 	pop	{fp}		; (ldr fp, [sp], #4)
20037de8:	e12fff1e 	bx	lr

20037dec <sense_context>:
20037dec:	e52db004 	push	{fp}		; (str fp, [sp, #-4]!)
20037df0:	e28db000 	add	fp, sp, #0
20037df4:	e3043000 	movw	r3, #16384	; 0x4000
20037df8:	e3423005 	movt	r3, #8197	; 0x2005
20037dfc:	e5933000 	ldr	r3, [r3]
20037e00:	e3530000 	cmp	r3, #0
20037e04:	03a03000 	moveq	r3, #0
20037e08:	13a03001 	movne	r3, #1
20037e0c:	e1a00003 	mov	r0, r3
20037e10:	e28bd000 	add	sp, fp, #0
20037e14:	e49db004 	pop	{fp}		; (ldr fp, [sp], #4)
20037e18:	e12fff1e 	bx	lr

20037e1c <x_lock_cpu>:
20037e1c:	e92d4800 	push	{fp, lr}
20037e20:	e28db004 	add	fp, sp, #4
20037e24:	ebffffdd 	bl	20037da0 <current_sr>
20037e28:	e1a03000 	mov	r3, r0
20037e2c:	e38330c0 	orr	r3, r3, #192	; 0xc0
20037e30:	e1a00003 	mov	r0, r3
20037e34:	ebffffe3 	bl	20037dc8 <set_sr>
20037e38:	e8bd8800 	pop	{fp, pc}

20037e3c <x_unlock_cpu>:
20037e3c:	e92d4800 	push	{fp, lr}
20037e40:	e28db004 	add	fp, sp, #4
20037e44:	ebffffd5 	bl	20037da0 <current_sr>
20037e48:	e1a03000 	mov	r3, r0
20037e4c:	e3c330c0 	bic	r3, r3, #192	; 0xc0
20037e50:	e3833080 	orr	r3, r3, #128	; 0x80
20037e54:	e1a00003 	mov	r0, r3
20037e58:	ebffffda 	bl	20037dc8 <set_sr>
20037e5c:	e8bd8800 	pop	{fp, pc}

20037e60 <x_sense_lock>:
20037e60:	e92d4800 	push	{fp, lr}
20037e64:	e28db004 	add	fp, sp, #4
20037e68:	ebffffcc 	bl	20037da0 <current_sr>
20037e6c:	e1a03000 	mov	r3, r0
20037e70:	e20330c0 	and	r3, r3, #192	; 0xc0
20037e74:	e35300c0 	cmp	r3, #192	; 0xc0
20037e78:	13a03000 	movne	r3, #0
20037e7c:	03a03001 	moveq	r3, #1
20037e80:	e1a00003 	mov	r0, r3
20037e84:	e8bd8800 	pop	{fp, pc}

20037e88 <queue_initialize>:
20037e88:	e52db004 	push	{fp}		; (str fp, [sp, #-4]!)
20037e8c:	e28db000 	add	fp, sp, #0
20037e90:	e24dd00c 	sub	sp, sp, #12
20037e94:	e50b0008 	str	r0, [fp, #-8]
20037e98:	e51b3008 	ldr	r3, [fp, #-8]
20037e9c:	e51b2008 	ldr	r2, [fp, #-8]
20037ea0:	e5832000 	str	r2, [r3]
20037ea4:	e51b3008 	ldr	r3, [fp, #-8]
20037ea8:	e5932000 	ldr	r2, [r3]
20037eac:	e51b3008 	ldr	r3, [fp, #-8]
20037eb0:	e5832004 	str	r2, [r3, #4]
20037eb4:	e28bd000 	add	sp, fp, #0
20037eb8:	e49db004 	pop	{fp}		; (ldr fp, [sp], #4)
20037ebc:	e12fff1e 	bx	lr

20037ec0 <queue_delete_next>:
20037ec0:	e92d4800 	push	{fp, lr}
20037ec4:	e28db004 	add	fp, sp, #4
20037ec8:	e24dd018 	sub	sp, sp, #24
20037ecc:	e50b0010 	str	r0, [fp, #-16]
20037ed0:	e51b3010 	ldr	r3, [fp, #-16]
20037ed4:	e5932000 	ldr	r2, [r3]
20037ed8:	e51b3010 	ldr	r3, [fp, #-16]
20037edc:	e1520003 	cmp	r2, r3
20037ee0:	1a00000a 	bne	20037f10 <queue_delete_next+0x50>
20037ee4:	e30b339c 	movw	r3, #45980	; 0xb39c
20037ee8:	e3423003 	movt	r3, #8195	; 0x2003
20037eec:	e30b23b8 	movw	r2, #46008	; 0xb3b8
20037ef0:	e3422003 	movt	r2, #8195	; 0x2003
20037ef4:	e58d2000 	str	r2, [sp]
20037ef8:	e3a00000 	mov	r0, #0
20037efc:	e3a01002 	mov	r1, #2
20037f00:	e1a02003 	mov	r2, r3
20037f04:	e3a03086 	mov	r3, #134	; 0x86
20037f08:	ebffff8f 	bl	20037d4c <_syslog_3>
20037f0c:	ebffff8b 	bl	20037d40 <TOPPERS_assert_abort>
20037f10:	e51b3010 	ldr	r3, [fp, #-16]
20037f14:	e5933000 	ldr	r3, [r3]
20037f18:	e50b3008 	str	r3, [fp, #-8]
20037f1c:	e51b3008 	ldr	r3, [fp, #-8]
20037f20:	e5932000 	ldr	r2, [r3]
20037f24:	e51b3010 	ldr	r3, [fp, #-16]
20037f28:	e5832000 	str	r2, [r3]
20037f2c:	e51b3008 	ldr	r3, [fp, #-8]
20037f30:	e5933000 	ldr	r3, [r3]
20037f34:	e51b2010 	ldr	r2, [fp, #-16]
20037f38:	e5832004 	str	r2, [r3, #4]
20037f3c:	e51b3008 	ldr	r3, [fp, #-8]
20037f40:	e1a00003 	mov	r0, r3
20037f44:	e24bd004 	sub	sp, fp, #4
20037f48:	e8bd8800 	pop	{fp, pc}

20037f4c <queue_empty>:
20037f4c:	e92d4800 	push	{fp, lr}
20037f50:	e28db004 	add	fp, sp, #4
20037f54:	e24dd010 	sub	sp, sp, #16
20037f58:	e50b0008 	str	r0, [fp, #-8]
20037f5c:	e51b3008 	ldr	r3, [fp, #-8]
20037f60:	e5932000 	ldr	r2, [r3]
20037f64:	e51b3008 	ldr	r3, [fp, #-8]
20037f68:	e1520003 	cmp	r2, r3
20037f6c:	1a000011 	bne	20037fb8 <queue_empty+0x6c>
20037f70:	e51b3008 	ldr	r3, [fp, #-8]
20037f74:	e5932004 	ldr	r2, [r3, #4]
20037f78:	e51b3008 	ldr	r3, [fp, #-8]
20037f7c:	e1520003 	cmp	r2, r3
20037f80:	0a00000a 	beq	20037fb0 <queue_empty+0x64>
20037f84:	e30b339c 	movw	r3, #45980	; 0xb39c
20037f88:	e3423003 	movt	r3, #8195	; 0x2003
20037f8c:	e30b23d4 	movw	r2, #46036	; 0xb3d4
20037f90:	e3422003 	movt	r2, #8195	; 0x2003
20037f94:	e58d2000 	str	r2, [sp]
20037f98:	e3a00000 	mov	r0, #0
20037f9c:	e3a01002 	mov	r1, #2
20037fa0:	e1a02003 	mov	r2, r3
20037fa4:	e3a03096 	mov	r3, #150	; 0x96
20037fa8:	ebffff67 	bl	20037d4c <_syslog_3>
20037fac:	ebffff63 	bl	20037d40 <TOPPERS_assert_abort>
20037fb0:	e3a03001 	mov	r3, #1
20037fb4:	ea000000 	b	20037fbc <queue_empty+0x70>
20037fb8:	e3a03000 	mov	r3, #0
20037fbc:	e1a00003 	mov	r0, r3
20037fc0:	e24bd004 	sub	sp, fp, #4
20037fc4:	e8bd8800 	pop	{fp, pc}

20037fc8 <wait_tskid>:
20037fc8:	e92d4800 	push	{fp, lr}
20037fcc:	e28db004 	add	fp, sp, #4
20037fd0:	e24dd008 	sub	sp, sp, #8
20037fd4:	e50b0008 	str	r0, [fp, #-8]
20037fd8:	e51b0008 	ldr	r0, [fp, #-8]
20037fdc:	ebffffda 	bl	20037f4c <queue_empty>
20037fe0:	e1a03000 	mov	r3, r0
20037fe4:	e3530000 	cmp	r3, #0
20037fe8:	1a000014 	bne	20038040 <wait_tskid+0x78>
20037fec:	e51b3008 	ldr	r3, [fp, #-8]
20037ff0:	e5933000 	ldr	r3, [r3]
20037ff4:	e1a02003 	mov	r2, r3
20037ff8:	e3013f14 	movw	r3, #7956	; 0x1f14
20037ffc:	e3423004 	movt	r3, #8196	; 0x2004
20038000:	e0633002 	rsb	r3, r3, r2
20038004:	e1a01143 	asr	r1, r3, #2
20038008:	e1a03001 	mov	r3, r1
2003800c:	e1a03183 	lsl	r3, r3, #3
20038010:	e0613003 	rsb	r3, r1, r3
20038014:	e1a02303 	lsl	r2, r3, #6
20038018:	e0833002 	add	r3, r3, r2
2003801c:	e1a03183 	lsl	r3, r3, #3
20038020:	e0833001 	add	r3, r3, r1
20038024:	e1a02783 	lsl	r2, r3, #15
20038028:	e0632002 	rsb	r2, r3, r2
2003802c:	e1a02182 	lsl	r2, r2, #3
20038030:	e0822001 	add	r2, r2, r1
20038034:	e1a03002 	mov	r3, r2
20038038:	e2833001 	add	r3, r3, #1
2003803c:	ea000000 	b	20038044 <wait_tskid+0x7c>
20038040:	e3a03000 	mov	r3, #0
20038044:	e1a00003 	mov	r0, r3
20038048:	e24bd004 	sub	sp, fp, #4
2003804c:	e8bd8800 	pop	{fp, pc}

20038050 <_kernel_initialize_semaphore>:
20038050:	e92d4800 	push	{fp, lr}
20038054:	e28db004 	add	fp, sp, #4
20038058:	e24dd008 	sub	sp, sp, #8
2003805c:	e3013eac 	movw	r3, #7852	; 0x1eac
20038060:	e3423004 	movt	r3, #8196	; 0x2004
20038064:	e50b300c 	str	r3, [fp, #-12]
20038068:	e3a03000 	mov	r3, #0
2003806c:	e50b3008 	str	r3, [fp, #-8]
20038070:	ea000018 	b	200380d8 <_kernel_initialize_semaphore+0x88>
20038074:	e51b300c 	ldr	r3, [fp, #-12]
20038078:	e1a00003 	mov	r0, r3
2003807c:	ebffff81 	bl	20037e88 <queue_initialize>
20038080:	e51b2008 	ldr	r2, [fp, #-8]
20038084:	e1a03002 	mov	r3, r2
20038088:	e1a03083 	lsl	r3, r3, #1
2003808c:	e0833002 	add	r3, r3, r2
20038090:	e1a03103 	lsl	r3, r3, #2
20038094:	e1a02003 	mov	r2, r3
20038098:	e30a3e88 	movw	r3, #44680	; 0xae88
2003809c:	e3423003 	movt	r3, #8195	; 0x2003
200380a0:	e0822003 	add	r2, r2, r3
200380a4:	e51b300c 	ldr	r3, [fp, #-12]
200380a8:	e5832008 	str	r2, [r3, #8]
200380ac:	e51b300c 	ldr	r3, [fp, #-12]
200380b0:	e5933008 	ldr	r3, [r3, #8]
200380b4:	e5932004 	ldr	r2, [r3, #4]
200380b8:	e51b300c 	ldr	r3, [fp, #-12]
200380bc:	e583200c 	str	r2, [r3, #12]
200380c0:	e51b300c 	ldr	r3, [fp, #-12]
200380c4:	e2833010 	add	r3, r3, #16
200380c8:	e50b300c 	str	r3, [fp, #-12]
200380cc:	e51b3008 	ldr	r3, [fp, #-8]
200380d0:	e2833001 	add	r3, r3, #1
200380d4:	e50b3008 	str	r3, [fp, #-8]
200380d8:	e30a3e84 	movw	r3, #44676	; 0xae84
200380dc:	e3423003 	movt	r3, #8195	; 0x2003
200380e0:	e5933000 	ldr	r3, [r3]
200380e4:	e1a02003 	mov	r2, r3
200380e8:	e51b3008 	ldr	r3, [fp, #-8]
200380ec:	e1520003 	cmp	r2, r3
200380f0:	8affffdf 	bhi	20038074 <_kernel_initialize_semaphore+0x24>
200380f4:	e24bd004 	sub	sp, fp, #4
200380f8:	e8bd8800 	pop	{fp, pc}

200380fc <sig_sem>:
200380fc:	e92d4800 	push	{fp, lr}
20038100:	e28db004 	add	fp, sp, #4
20038104:	e24dd018 	sub	sp, sp, #24
20038108:	e50b0018 	str	r0, [fp, #-24]	; 0xffffffe8
2003810c:	ebffff36 	bl	20037dec <sense_context>
20038110:	e1a03000 	mov	r3, r0
20038114:	e3530000 	cmp	r3, #0
20038118:	1a000003 	bne	2003812c <sig_sem+0x30>
2003811c:	ebffff4f 	bl	20037e60 <x_sense_lock>
20038120:	e1a03000 	mov	r3, r0
20038124:	e3530000 	cmp	r3, #0
20038128:	0a000002 	beq	20038138 <sig_sem+0x3c>
2003812c:	e3e03018 	mvn	r3, #24
20038130:	e50b3008 	str	r3, [fp, #-8]
20038134:	ea00003a 	b	20038224 <sig_sem+0x128>
20038138:	e51b3018 	ldr	r3, [fp, #-24]	; 0xffffffe8
2003813c:	e3530000 	cmp	r3, #0
20038140:	da000005 	ble	2003815c <sig_sem+0x60>
20038144:	e30a3e84 	movw	r3, #44676	; 0xae84
20038148:	e3423003 	movt	r3, #8195	; 0x2003
2003814c:	e5933000 	ldr	r3, [r3]
20038150:	e51b2018 	ldr	r2, [fp, #-24]	; 0xffffffe8
20038154:	e1520003 	cmp	r2, r3
20038158:	da000002 	ble	20038168 <sig_sem+0x6c>
2003815c:	e3e03011 	mvn	r3, #17
20038160:	e50b3008 	str	r3, [fp, #-8]
20038164:	ea00002e 	b	20038224 <sig_sem+0x128>
20038168:	e51b3018 	ldr	r3, [fp, #-24]	; 0xffffffe8
2003816c:	e2433001 	sub	r3, r3, #1
20038170:	e1a03203 	lsl	r3, r3, #4
20038174:	e1a02003 	mov	r2, r3
20038178:	e3013eac 	movw	r3, #7852	; 0x1eac
2003817c:	e3423004 	movt	r3, #8196	; 0x2004
20038180:	e0823003 	add	r3, r2, r3
20038184:	e50b300c 	str	r3, [fp, #-12]
20038188:	ebffff23 	bl	20037e1c <x_lock_cpu>
2003818c:	e51b300c 	ldr	r3, [fp, #-12]
20038190:	e1a00003 	mov	r0, r3
20038194:	ebffff6c 	bl	20037f4c <queue_empty>
20038198:	e1a03000 	mov	r3, r0
2003819c:	e3530000 	cmp	r3, #0
200381a0:	1a00000d 	bne	200381dc <sig_sem+0xe0>
200381a4:	e51b300c 	ldr	r3, [fp, #-12]
200381a8:	e1a00003 	mov	r0, r3
200381ac:	ebffff43 	bl	20037ec0 <queue_delete_next>
200381b0:	e1a03000 	mov	r3, r0
200381b4:	e50b3010 	str	r3, [fp, #-16]
200381b8:	e51b0010 	ldr	r0, [fp, #-16]
200381bc:	eb0008ea 	bl	2003a56c <_kernel_wait_complete>
200381c0:	e1a03000 	mov	r3, r0
200381c4:	e3530000 	cmp	r3, #0
200381c8:	0a000000 	beq	200381d0 <sig_sem+0xd4>
200381cc:	ebffebad 	bl	20033088 <_kernel_dispatch>
200381d0:	e3a03000 	mov	r3, #0
200381d4:	e50b3008 	str	r3, [fp, #-8]
200381d8:	ea000010 	b	20038220 <sig_sem+0x124>
200381dc:	e51b300c 	ldr	r3, [fp, #-12]
200381e0:	e593200c 	ldr	r2, [r3, #12]
200381e4:	e51b300c 	ldr	r3, [fp, #-12]
200381e8:	e5933008 	ldr	r3, [r3, #8]
200381ec:	e5933008 	ldr	r3, [r3, #8]
200381f0:	e1520003 	cmp	r2, r3
200381f4:	2a000007 	bcs	20038218 <sig_sem+0x11c>
200381f8:	e51b300c 	ldr	r3, [fp, #-12]
200381fc:	e593300c 	ldr	r3, [r3, #12]
20038200:	e2832001 	add	r2, r3, #1
20038204:	e51b300c 	ldr	r3, [fp, #-12]
20038208:	e583200c 	str	r2, [r3, #12]
2003820c:	e3a03000 	mov	r3, #0
20038210:	e50b3008 	str	r3, [fp, #-8]
20038214:	ea000001 	b	20038220 <sig_sem+0x124>
20038218:	e3e0302a 	mvn	r3, #42	; 0x2a
2003821c:	e50b3008 	str	r3, [fp, #-8]
20038220:	ebffff05 	bl	20037e3c <x_unlock_cpu>
20038224:	e51b3008 	ldr	r3, [fp, #-8]
20038228:	e1a00003 	mov	r0, r3
2003822c:	e24bd004 	sub	sp, fp, #4
20038230:	e8bd8800 	pop	{fp, pc}

20038234 <isig_sem>:
20038234:	e92d4800 	push	{fp, lr}
20038238:	e28db004 	add	fp, sp, #4
2003823c:	e24dd018 	sub	sp, sp, #24
20038240:	e50b0018 	str	r0, [fp, #-24]	; 0xffffffe8
20038244:	ebfffee8 	bl	20037dec <sense_context>
20038248:	e1a03000 	mov	r3, r0
2003824c:	e3530000 	cmp	r3, #0
20038250:	0a000003 	beq	20038264 <isig_sem+0x30>
20038254:	ebffff01 	bl	20037e60 <x_sense_lock>
20038258:	e1a03000 	mov	r3, r0
2003825c:	e3530000 	cmp	r3, #0
20038260:	0a000002 	beq	20038270 <isig_sem+0x3c>
20038264:	e3e03018 	mvn	r3, #24
20038268:	e50b3008 	str	r3, [fp, #-8]
2003826c:	ea00003d 	b	20038368 <isig_sem+0x134>
20038270:	e51b3018 	ldr	r3, [fp, #-24]	; 0xffffffe8
20038274:	e3530000 	cmp	r3, #0
20038278:	da000005 	ble	20038294 <isig_sem+0x60>
2003827c:	e30a3e84 	movw	r3, #44676	; 0xae84
20038280:	e3423003 	movt	r3, #8195	; 0x2003
20038284:	e5933000 	ldr	r3, [r3]
20038288:	e51b2018 	ldr	r2, [fp, #-24]	; 0xffffffe8
2003828c:	e1520003 	cmp	r2, r3
20038290:	da000002 	ble	200382a0 <isig_sem+0x6c>
20038294:	e3e03011 	mvn	r3, #17
20038298:	e50b3008 	str	r3, [fp, #-8]
2003829c:	ea000031 	b	20038368 <isig_sem+0x134>
200382a0:	e51b3018 	ldr	r3, [fp, #-24]	; 0xffffffe8
200382a4:	e2433001 	sub	r3, r3, #1
200382a8:	e1a03203 	lsl	r3, r3, #4
200382ac:	e1a02003 	mov	r2, r3
200382b0:	e3013eac 	movw	r3, #7852	; 0x1eac
200382b4:	e3423004 	movt	r3, #8196	; 0x2004
200382b8:	e0823003 	add	r3, r2, r3
200382bc:	e50b300c 	str	r3, [fp, #-12]
200382c0:	ebfffed5 	bl	20037e1c <x_lock_cpu>
200382c4:	e51b300c 	ldr	r3, [fp, #-12]
200382c8:	e1a00003 	mov	r0, r3
200382cc:	ebffff1e 	bl	20037f4c <queue_empty>
200382d0:	e1a03000 	mov	r3, r0
200382d4:	e3530000 	cmp	r3, #0
200382d8:	1a000010 	bne	20038320 <isig_sem+0xec>
200382dc:	e51b300c 	ldr	r3, [fp, #-12]
200382e0:	e1a00003 	mov	r0, r3
200382e4:	ebfffef5 	bl	20037ec0 <queue_delete_next>
200382e8:	e1a03000 	mov	r3, r0
200382ec:	e50b3010 	str	r3, [fp, #-16]
200382f0:	e51b0010 	ldr	r0, [fp, #-16]
200382f4:	eb00089c 	bl	2003a56c <_kernel_wait_complete>
200382f8:	e1a03000 	mov	r3, r0
200382fc:	e3530000 	cmp	r3, #0
20038300:	0a000003 	beq	20038314 <isig_sem+0xe0>
20038304:	e3043008 	movw	r3, #16392	; 0x4008
20038308:	e3423005 	movt	r3, #8197	; 0x2005
2003830c:	e3a02001 	mov	r2, #1
20038310:	e5832000 	str	r2, [r3]
20038314:	e3a03000 	mov	r3, #0
20038318:	e50b3008 	str	r3, [fp, #-8]
2003831c:	ea000010 	b	20038364 <isig_sem+0x130>
20038320:	e51b300c 	ldr	r3, [fp, #-12]
20038324:	e593200c 	ldr	r2, [r3, #12]
20038328:	e51b300c 	ldr	r3, [fp, #-12]
2003832c:	e5933008 	ldr	r3, [r3, #8]
20038330:	e5933008 	ldr	r3, [r3, #8]
20038334:	e1520003 	cmp	r2, r3
20038338:	2a000007 	bcs	2003835c <isig_sem+0x128>
2003833c:	e51b300c 	ldr	r3, [fp, #-12]
20038340:	e593300c 	ldr	r3, [r3, #12]
20038344:	e2832001 	add	r2, r3, #1
20038348:	e51b300c 	ldr	r3, [fp, #-12]
2003834c:	e583200c 	str	r2, [r3, #12]
20038350:	e3a03000 	mov	r3, #0
20038354:	e50b3008 	str	r3, [fp, #-8]
20038358:	ea000001 	b	20038364 <isig_sem+0x130>
2003835c:	e3e0302a 	mvn	r3, #42	; 0x2a
20038360:	e50b3008 	str	r3, [fp, #-8]
20038364:	ebfffeb4 	bl	20037e3c <x_unlock_cpu>
20038368:	e51b3008 	ldr	r3, [fp, #-8]
2003836c:	e1a00003 	mov	r0, r3
20038370:	e24bd004 	sub	sp, fp, #4
20038374:	e8bd8800 	pop	{fp, pc}

20038378 <wai_sem>:
20038378:	e92d4800 	push	{fp, lr}
2003837c:	e28db004 	add	fp, sp, #4
20038380:	e24dd018 	sub	sp, sp, #24
20038384:	e50b0018 	str	r0, [fp, #-24]	; 0xffffffe8
20038388:	ebfffe97 	bl	20037dec <sense_context>
2003838c:	e1a03000 	mov	r3, r0
20038390:	e3530000 	cmp	r3, #0
20038394:	1a000008 	bne	200383bc <wai_sem+0x44>
20038398:	ebfffeb0 	bl	20037e60 <x_sense_lock>
2003839c:	e1a03000 	mov	r3, r0
200383a0:	e3530000 	cmp	r3, #0
200383a4:	1a000004 	bne	200383bc <wai_sem+0x44>
200383a8:	e304308c 	movw	r3, #16524	; 0x408c
200383ac:	e3423005 	movt	r3, #8197	; 0x2005
200383b0:	e5933000 	ldr	r3, [r3]
200383b4:	e3530000 	cmp	r3, #0
200383b8:	1a000002 	bne	200383c8 <wai_sem+0x50>
200383bc:	e3e03018 	mvn	r3, #24
200383c0:	e50b3008 	str	r3, [fp, #-8]
200383c4:	ea00002e 	b	20038484 <wai_sem+0x10c>
200383c8:	e51b3018 	ldr	r3, [fp, #-24]	; 0xffffffe8
200383cc:	e3530000 	cmp	r3, #0
200383d0:	da000005 	ble	200383ec <wai_sem+0x74>
200383d4:	e30a3e84 	movw	r3, #44676	; 0xae84
200383d8:	e3423003 	movt	r3, #8195	; 0x2003
200383dc:	e5933000 	ldr	r3, [r3]
200383e0:	e51b2018 	ldr	r2, [fp, #-24]	; 0xffffffe8
200383e4:	e1520003 	cmp	r2, r3
200383e8:	da000002 	ble	200383f8 <wai_sem+0x80>
200383ec:	e3e03011 	mvn	r3, #17
200383f0:	e50b3008 	str	r3, [fp, #-8]
200383f4:	ea000022 	b	20038484 <wai_sem+0x10c>
200383f8:	e51b3018 	ldr	r3, [fp, #-24]	; 0xffffffe8
200383fc:	e2433001 	sub	r3, r3, #1
20038400:	e1a03203 	lsl	r3, r3, #4
20038404:	e1a02003 	mov	r2, r3
20038408:	e3013eac 	movw	r3, #7852	; 0x1eac
2003840c:	e3423004 	movt	r3, #8196	; 0x2004
20038410:	e0823003 	add	r3, r2, r3
20038414:	e50b300c 	str	r3, [fp, #-12]
20038418:	ebfffe7f 	bl	20037e1c <x_lock_cpu>
2003841c:	e51b300c 	ldr	r3, [fp, #-12]
20038420:	e593300c 	ldr	r3, [r3, #12]
20038424:	e3530000 	cmp	r3, #0
20038428:	0a000007 	beq	2003844c <wai_sem+0xd4>
2003842c:	e51b300c 	ldr	r3, [fp, #-12]
20038430:	e593300c 	ldr	r3, [r3, #12]
20038434:	e2432001 	sub	r2, r3, #1
20038438:	e51b300c 	ldr	r3, [fp, #-12]
2003843c:	e583200c 	str	r2, [r3, #12]
20038440:	e3a03000 	mov	r3, #0
20038444:	e50b3008 	str	r3, [fp, #-8]
20038448:	ea00000c 	b	20038480 <wai_sem+0x108>
2003844c:	e3043098 	movw	r3, #16536	; 0x4098
20038450:	e3423005 	movt	r3, #8197	; 0x2005
20038454:	e5933000 	ldr	r3, [r3]
20038458:	e3a02022 	mov	r2, #34	; 0x22
2003845c:	e5c3200c 	strb	r2, [r3, #12]
20038460:	e51b200c 	ldr	r2, [fp, #-12]
20038464:	e24b3014 	sub	r3, fp, #20
20038468:	e1a00002 	mov	r0, r2
2003846c:	e1a01003 	mov	r1, r3
20038470:	eb0008a7 	bl	2003a714 <_kernel_wobj_make_wait>
20038474:	ebffeb03 	bl	20033088 <_kernel_dispatch>
20038478:	e51b3014 	ldr	r3, [fp, #-20]	; 0xffffffec
2003847c:	e50b3008 	str	r3, [fp, #-8]
20038480:	ebfffe6d 	bl	20037e3c <x_unlock_cpu>
20038484:	e51b3008 	ldr	r3, [fp, #-8]
20038488:	e1a00003 	mov	r0, r3
2003848c:	e24bd004 	sub	sp, fp, #4
20038490:	e8bd8800 	pop	{fp, pc}

20038494 <pol_sem>:
20038494:	e92d4800 	push	{fp, lr}
20038498:	e28db004 	add	fp, sp, #4
2003849c:	e24dd010 	sub	sp, sp, #16
200384a0:	e50b0010 	str	r0, [fp, #-16]
200384a4:	ebfffe50 	bl	20037dec <sense_context>
200384a8:	e1a03000 	mov	r3, r0
200384ac:	e3530000 	cmp	r3, #0
200384b0:	1a000003 	bne	200384c4 <pol_sem+0x30>
200384b4:	ebfffe69 	bl	20037e60 <x_sense_lock>
200384b8:	e1a03000 	mov	r3, r0
200384bc:	e3530000 	cmp	r3, #0
200384c0:	0a000002 	beq	200384d0 <pol_sem+0x3c>
200384c4:	e3e03018 	mvn	r3, #24
200384c8:	e50b3008 	str	r3, [fp, #-8]
200384cc:	ea000023 	b	20038560 <pol_sem+0xcc>
200384d0:	e51b3010 	ldr	r3, [fp, #-16]
200384d4:	e3530000 	cmp	r3, #0
200384d8:	da000005 	ble	200384f4 <pol_sem+0x60>
200384dc:	e30a3e84 	movw	r3, #44676	; 0xae84
200384e0:	e3423003 	movt	r3, #8195	; 0x2003
200384e4:	e5933000 	ldr	r3, [r3]
200384e8:	e51b2010 	ldr	r2, [fp, #-16]
200384ec:	e1520003 	cmp	r2, r3
200384f0:	da000002 	ble	20038500 <pol_sem+0x6c>
200384f4:	e3e03011 	mvn	r3, #17
200384f8:	e50b3008 	str	r3, [fp, #-8]
200384fc:	ea000017 	b	20038560 <pol_sem+0xcc>
20038500:	e51b3010 	ldr	r3, [fp, #-16]
20038504:	e2433001 	sub	r3, r3, #1
20038508:	e1a03203 	lsl	r3, r3, #4
2003850c:	e1a02003 	mov	r2, r3
20038510:	e3013eac 	movw	r3, #7852	; 0x1eac
20038514:	e3423004 	movt	r3, #8196	; 0x2004
20038518:	e0823003 	add	r3, r2, r3
2003851c:	e50b300c 	str	r3, [fp, #-12]
20038520:	ebfffe3d 	bl	20037e1c <x_lock_cpu>
20038524:	e51b300c 	ldr	r3, [fp, #-12]
20038528:	e593300c 	ldr	r3, [r3, #12]
2003852c:	e3530000 	cmp	r3, #0
20038530:	0a000007 	beq	20038554 <pol_sem+0xc0>
20038534:	e51b300c 	ldr	r3, [fp, #-12]
20038538:	e593300c 	ldr	r3, [r3, #12]
2003853c:	e2432001 	sub	r2, r3, #1
20038540:	e51b300c 	ldr	r3, [fp, #-12]
20038544:	e583200c 	str	r2, [r3, #12]
20038548:	e3a03000 	mov	r3, #0
2003854c:	e50b3008 	str	r3, [fp, #-8]
20038550:	ea000001 	b	2003855c <pol_sem+0xc8>
20038554:	e3e03031 	mvn	r3, #49	; 0x31
20038558:	e50b3008 	str	r3, [fp, #-8]
2003855c:	ebfffe36 	bl	20037e3c <x_unlock_cpu>
20038560:	e51b3008 	ldr	r3, [fp, #-8]
20038564:	e1a00003 	mov	r0, r3
20038568:	e24bd004 	sub	sp, fp, #4
2003856c:	e8bd8800 	pop	{fp, pc}

20038570 <twai_sem>:
20038570:	e92d4800 	push	{fp, lr}
20038574:	e28db004 	add	fp, sp, #4
20038578:	e24dd028 	sub	sp, sp, #40	; 0x28
2003857c:	e50b0028 	str	r0, [fp, #-40]	; 0xffffffd8
20038580:	e50b102c 	str	r1, [fp, #-44]	; 0xffffffd4
20038584:	ebfffe18 	bl	20037dec <sense_context>
20038588:	e1a03000 	mov	r3, r0
2003858c:	e3530000 	cmp	r3, #0
20038590:	1a000008 	bne	200385b8 <twai_sem+0x48>
20038594:	ebfffe31 	bl	20037e60 <x_sense_lock>
20038598:	e1a03000 	mov	r3, r0
2003859c:	e3530000 	cmp	r3, #0
200385a0:	1a000004 	bne	200385b8 <twai_sem+0x48>
200385a4:	e304308c 	movw	r3, #16524	; 0x408c
200385a8:	e3423005 	movt	r3, #8197	; 0x2005
200385ac:	e5933000 	ldr	r3, [r3]
200385b0:	e3530000 	cmp	r3, #0
200385b4:	1a000002 	bne	200385c4 <twai_sem+0x54>
200385b8:	e3e03018 	mvn	r3, #24
200385bc:	e50b3008 	str	r3, [fp, #-8]
200385c0:	ea00003d 	b	200386bc <twai_sem+0x14c>
200385c4:	e51b3028 	ldr	r3, [fp, #-40]	; 0xffffffd8
200385c8:	e3530000 	cmp	r3, #0
200385cc:	da000005 	ble	200385e8 <twai_sem+0x78>
200385d0:	e30a3e84 	movw	r3, #44676	; 0xae84
200385d4:	e3423003 	movt	r3, #8195	; 0x2003
200385d8:	e5933000 	ldr	r3, [r3]
200385dc:	e51b2028 	ldr	r2, [fp, #-40]	; 0xffffffd8
200385e0:	e1520003 	cmp	r2, r3
200385e4:	da000002 	ble	200385f4 <twai_sem+0x84>
200385e8:	e3e03011 	mvn	r3, #17
200385ec:	e50b3008 	str	r3, [fp, #-8]
200385f0:	ea000031 	b	200386bc <twai_sem+0x14c>
200385f4:	e51b302c 	ldr	r3, [fp, #-44]	; 0xffffffd4
200385f8:	e3730001 	cmn	r3, #1
200385fc:	aa000002 	bge	2003860c <twai_sem+0x9c>
20038600:	e3e03010 	mvn	r3, #16
20038604:	e50b3008 	str	r3, [fp, #-8]
20038608:	ea00002b 	b	200386bc <twai_sem+0x14c>
2003860c:	e51b3028 	ldr	r3, [fp, #-40]	; 0xffffffd8
20038610:	e2433001 	sub	r3, r3, #1
20038614:	e1a03203 	lsl	r3, r3, #4
20038618:	e1a02003 	mov	r2, r3
2003861c:	e3013eac 	movw	r3, #7852	; 0x1eac
20038620:	e3423004 	movt	r3, #8196	; 0x2004
20038624:	e0823003 	add	r3, r2, r3
20038628:	e50b300c 	str	r3, [fp, #-12]
2003862c:	ebfffdfa 	bl	20037e1c <x_lock_cpu>
20038630:	e51b300c 	ldr	r3, [fp, #-12]
20038634:	e593300c 	ldr	r3, [r3, #12]
20038638:	e3530000 	cmp	r3, #0
2003863c:	0a000007 	beq	20038660 <twai_sem+0xf0>
20038640:	e51b300c 	ldr	r3, [fp, #-12]
20038644:	e593300c 	ldr	r3, [r3, #12]
20038648:	e2432001 	sub	r2, r3, #1
2003864c:	e51b300c 	ldr	r3, [fp, #-12]
20038650:	e583200c 	str	r2, [r3, #12]
20038654:	e3a03000 	mov	r3, #0
20038658:	e50b3008 	str	r3, [fp, #-8]
2003865c:	ea000015 	b	200386b8 <twai_sem+0x148>
20038660:	e51b302c 	ldr	r3, [fp, #-44]	; 0xffffffd4
20038664:	e3530000 	cmp	r3, #0
20038668:	1a000002 	bne	20038678 <twai_sem+0x108>
2003866c:	e3e03031 	mvn	r3, #49	; 0x31
20038670:	e50b3008 	str	r3, [fp, #-8]
20038674:	ea00000f 	b	200386b8 <twai_sem+0x148>
20038678:	e3043098 	movw	r3, #16536	; 0x4098
2003867c:	e3423005 	movt	r3, #8197	; 0x2005
20038680:	e5933000 	ldr	r3, [r3]
20038684:	e3a02022 	mov	r2, #34	; 0x22
20038688:	e5c3200c 	strb	r2, [r3, #12]
2003868c:	e51b100c 	ldr	r1, [fp, #-12]
20038690:	e24b2014 	sub	r2, fp, #20
20038694:	e24b3020 	sub	r3, fp, #32
20038698:	e1a00001 	mov	r0, r1
2003869c:	e1a01002 	mov	r1, r2
200386a0:	e1a02003 	mov	r2, r3
200386a4:	e51b302c 	ldr	r3, [fp, #-44]	; 0xffffffd4
200386a8:	eb000828 	bl	2003a750 <_kernel_wobj_make_wait_tmout>
200386ac:	ebffea75 	bl	20033088 <_kernel_dispatch>
200386b0:	e51b3014 	ldr	r3, [fp, #-20]	; 0xffffffec
200386b4:	e50b3008 	str	r3, [fp, #-8]
200386b8:	ebfffddf 	bl	20037e3c <x_unlock_cpu>
200386bc:	e51b3008 	ldr	r3, [fp, #-8]
200386c0:	e1a00003 	mov	r0, r3
200386c4:	e24bd004 	sub	sp, fp, #4
200386c8:	e8bd8800 	pop	{fp, pc}

200386cc <ini_sem>:
200386cc:	e92d4800 	push	{fp, lr}
200386d0:	e28db004 	add	fp, sp, #4
200386d4:	e24dd018 	sub	sp, sp, #24
200386d8:	e50b0018 	str	r0, [fp, #-24]	; 0xffffffe8
200386dc:	ebfffdc2 	bl	20037dec <sense_context>
200386e0:	e1a03000 	mov	r3, r0
200386e4:	e3530000 	cmp	r3, #0
200386e8:	1a000003 	bne	200386fc <ini_sem+0x30>
200386ec:	ebfffddb 	bl	20037e60 <x_sense_lock>
200386f0:	e1a03000 	mov	r3, r0
200386f4:	e3530000 	cmp	r3, #0
200386f8:	0a000002 	beq	20038708 <ini_sem+0x3c>
200386fc:	e3e03018 	mvn	r3, #24
20038700:	e50b3008 	str	r3, [fp, #-8]
20038704:	ea000024 	b	2003879c <ini_sem+0xd0>
20038708:	e51b3018 	ldr	r3, [fp, #-24]	; 0xffffffe8
2003870c:	e3530000 	cmp	r3, #0
20038710:	da000005 	ble	2003872c <ini_sem+0x60>
20038714:	e30a3e84 	movw	r3, #44676	; 0xae84
20038718:	e3423003 	movt	r3, #8195	; 0x2003
2003871c:	e5933000 	ldr	r3, [r3]
20038720:	e51b2018 	ldr	r2, [fp, #-24]	; 0xffffffe8
20038724:	e1520003 	cmp	r2, r3
20038728:	da000002 	ble	20038738 <ini_sem+0x6c>
2003872c:	e3e03011 	mvn	r3, #17
20038730:	e50b3008 	str	r3, [fp, #-8]
20038734:	ea000018 	b	2003879c <ini_sem+0xd0>
20038738:	e51b3018 	ldr	r3, [fp, #-24]	; 0xffffffe8
2003873c:	e2433001 	sub	r3, r3, #1
20038740:	e1a03203 	lsl	r3, r3, #4
20038744:	e1a02003 	mov	r2, r3
20038748:	e3013eac 	movw	r3, #7852	; 0x1eac
2003874c:	e3423004 	movt	r3, #8196	; 0x2004
20038750:	e0823003 	add	r3, r2, r3
20038754:	e50b300c 	str	r3, [fp, #-12]
20038758:	ebfffdaf 	bl	20037e1c <x_lock_cpu>
2003875c:	e51b300c 	ldr	r3, [fp, #-12]
20038760:	e1a00003 	mov	r0, r3
20038764:	eb00080c 	bl	2003a79c <_kernel_init_wait_queue>
20038768:	e50b0010 	str	r0, [fp, #-16]
2003876c:	e51b300c 	ldr	r3, [fp, #-12]
20038770:	e5933008 	ldr	r3, [r3, #8]
20038774:	e5932004 	ldr	r2, [r3, #4]
20038778:	e51b300c 	ldr	r3, [fp, #-12]
2003877c:	e583200c 	str	r2, [r3, #12]
20038780:	e51b3010 	ldr	r3, [fp, #-16]
20038784:	e3530000 	cmp	r3, #0
20038788:	0a000000 	beq	20038790 <ini_sem+0xc4>
2003878c:	ebffea3d 	bl	20033088 <_kernel_dispatch>
20038790:	e3a03000 	mov	r3, #0
20038794:	e50b3008 	str	r3, [fp, #-8]
20038798:	ebfffda7 	bl	20037e3c <x_unlock_cpu>
2003879c:	e51b3008 	ldr	r3, [fp, #-8]
200387a0:	e1a00003 	mov	r0, r3
200387a4:	e24bd004 	sub	sp, fp, #4
200387a8:	e8bd8800 	pop	{fp, pc}

200387ac <ref_sem>:
200387ac:	e92d4800 	push	{fp, lr}
200387b0:	e28db004 	add	fp, sp, #4
200387b4:	e24dd010 	sub	sp, sp, #16
200387b8:	e50b0010 	str	r0, [fp, #-16]
200387bc:	e50b1014 	str	r1, [fp, #-20]	; 0xffffffec
200387c0:	ebfffd89 	bl	20037dec <sense_context>
200387c4:	e1a03000 	mov	r3, r0
200387c8:	e3530000 	cmp	r3, #0
200387cc:	1a000003 	bne	200387e0 <ref_sem+0x34>
200387d0:	ebfffda2 	bl	20037e60 <x_sense_lock>
200387d4:	e1a03000 	mov	r3, r0
200387d8:	e3530000 	cmp	r3, #0
200387dc:	0a000002 	beq	200387ec <ref_sem+0x40>
200387e0:	e3e03018 	mvn	r3, #24
200387e4:	e50b3008 	str	r3, [fp, #-8]
200387e8:	ea000021 	b	20038874 <ref_sem+0xc8>
200387ec:	e51b3010 	ldr	r3, [fp, #-16]
200387f0:	e3530000 	cmp	r3, #0
200387f4:	da000005 	ble	20038810 <ref_sem+0x64>
200387f8:	e30a3e84 	movw	r3, #44676	; 0xae84
200387fc:	e3423003 	movt	r3, #8195	; 0x2003
20038800:	e5933000 	ldr	r3, [r3]
20038804:	e51b2010 	ldr	r2, [fp, #-16]
20038808:	e1520003 	cmp	r2, r3
2003880c:	da000002 	ble	2003881c <ref_sem+0x70>
20038810:	e3e03011 	mvn	r3, #17
20038814:	e50b3008 	str	r3, [fp, #-8]
20038818:	ea000015 	b	20038874 <ref_sem+0xc8>
2003881c:	e51b3010 	ldr	r3, [fp, #-16]
20038820:	e2433001 	sub	r3, r3, #1
20038824:	e1a03203 	lsl	r3, r3, #4
20038828:	e1a02003 	mov	r2, r3
2003882c:	e3013eac 	movw	r3, #7852	; 0x1eac
20038830:	e3423004 	movt	r3, #8196	; 0x2004
20038834:	e0823003 	add	r3, r2, r3
20038838:	e50b300c 	str	r3, [fp, #-12]
2003883c:	ebfffd76 	bl	20037e1c <x_lock_cpu>
20038840:	e51b300c 	ldr	r3, [fp, #-12]
20038844:	e1a00003 	mov	r0, r3
20038848:	ebfffdde 	bl	20037fc8 <wait_tskid>
2003884c:	e1a02000 	mov	r2, r0
20038850:	e51b3014 	ldr	r3, [fp, #-20]	; 0xffffffec
20038854:	e5832000 	str	r2, [r3]
20038858:	e51b300c 	ldr	r3, [fp, #-12]
2003885c:	e593200c 	ldr	r2, [r3, #12]
20038860:	e51b3014 	ldr	r3, [fp, #-20]	; 0xffffffec
20038864:	e5832004 	str	r2, [r3, #4]
20038868:	e3a03000 	mov	r3, #0
2003886c:	e50b3008 	str	r3, [fp, #-8]
20038870:	ebfffd71 	bl	20037e3c <x_unlock_cpu>
20038874:	e51b3008 	ldr	r3, [fp, #-8]
20038878:	e1a00003 	mov	r0, r3
2003887c:	e24bd004 	sub	sp, fp, #4
20038880:	e8bd8800 	pop	{fp, pc}

20038884 <sil_rew_mem>:
20038884:	e52db004 	push	{fp}		; (str fp, [sp, #-4]!)
20038888:	e28db000 	add	fp, sp, #0
2003888c:	e24dd014 	sub	sp, sp, #20
20038890:	e50b0010 	str	r0, [fp, #-16]
20038894:	e51b3010 	ldr	r3, [fp, #-16]
20038898:	e5933000 	ldr	r3, [r3]
2003889c:	e50b3008 	str	r3, [fp, #-8]
200388a0:	e51b3008 	ldr	r3, [fp, #-8]
200388a4:	e1a00003 	mov	r0, r3
200388a8:	e28bd000 	add	sp, fp, #0
200388ac:	e49db004 	pop	{fp}		; (ldr fp, [sp], #4)
200388b0:	e12fff1e 	bx	lr

200388b4 <sil_wrw_mem>:
200388b4:	e52db004 	push	{fp}		; (str fp, [sp, #-4]!)
200388b8:	e28db000 	add	fp, sp, #0
200388bc:	e24dd00c 	sub	sp, sp, #12
200388c0:	e50b0008 	str	r0, [fp, #-8]
200388c4:	e50b100c 	str	r1, [fp, #-12]
200388c8:	e51b3008 	ldr	r3, [fp, #-8]
200388cc:	e51b200c 	ldr	r2, [fp, #-12]
200388d0:	e5832000 	str	r2, [r3]
200388d4:	e28bd000 	add	sp, fp, #0
200388d8:	e49db004 	pop	{fp}		; (ldr fp, [sp], #4)
200388dc:	e12fff1e 	bx	lr

200388e0 <tzic_unlock>:
200388e0:	e92d4800 	push	{fp, lr}
200388e4:	e28db004 	add	fp, sp, #4
200388e8:	e30f001c 	movw	r0, #61468	; 0xf01c
200388ec:	e3410011 	movt	r0, #4113	; 0x1011
200388f0:	e30e1550 	movw	r1, #58704	; 0xe550
200388f4:	e3401acc 	movt	r1, #2764	; 0xacc
200388f8:	ebffffed 	bl	200388b4 <sil_wrw_mem>
200388fc:	e8bd8800 	pop	{fp, pc}

20038900 <tzic_lock>:
20038900:	e92d4800 	push	{fp, lr}
20038904:	e28db004 	add	fp, sp, #4
20038908:	e30f001c 	movw	r0, #61468	; 0xf01c
2003890c:	e3410011 	movt	r0, #4113	; 0x1011
20038910:	e3a01000 	mov	r1, #0
20038914:	ebffffe6 	bl	200388b4 <sil_wrw_mem>
20038918:	e8bd8800 	pop	{fp, pc}

2003891c <tzic_disable_int>:
2003891c:	e92d4800 	push	{fp, lr}
20038920:	e28db004 	add	fp, sp, #4
20038924:	e24dd008 	sub	sp, sp, #8
20038928:	e50b0008 	str	r0, [fp, #-8]
2003892c:	ebffffeb 	bl	200388e0 <tzic_unlock>
20038930:	e30f0010 	movw	r0, #61456	; 0xf010
20038934:	e3410011 	movt	r0, #4113	; 0x1011
20038938:	ebffffd1 	bl	20038884 <sil_rew_mem>
2003893c:	e1a02000 	mov	r2, r0
20038940:	e51b3008 	ldr	r3, [fp, #-8]
20038944:	e1823003 	orr	r3, r2, r3
20038948:	e30f0010 	movw	r0, #61456	; 0xf010
2003894c:	e3410011 	movt	r0, #4113	; 0x1011
20038950:	e1a01003 	mov	r1, r3
20038954:	ebffffd6 	bl	200388b4 <sil_wrw_mem>
20038958:	ebffffe8 	bl	20038900 <tzic_lock>
2003895c:	e24bd004 	sub	sp, fp, #4
20038960:	e8bd8800 	pop	{fp, pc}

20038964 <tzic_enable_int>:
20038964:	e92d4800 	push	{fp, lr}
20038968:	e28db004 	add	fp, sp, #4
2003896c:	e24dd008 	sub	sp, sp, #8
20038970:	e50b0008 	str	r0, [fp, #-8]
20038974:	ebffffd9 	bl	200388e0 <tzic_unlock>
20038978:	e30f000c 	movw	r0, #61452	; 0xf00c
2003897c:	e3410011 	movt	r0, #4113	; 0x1011
20038980:	ebffffbf 	bl	20038884 <sil_rew_mem>
20038984:	e1a02000 	mov	r2, r0
20038988:	e51b3008 	ldr	r3, [fp, #-8]
2003898c:	e1823003 	orr	r3, r2, r3
20038990:	e30f000c 	movw	r0, #61452	; 0xf00c
20038994:	e3410011 	movt	r0, #4113	; 0x1011
20038998:	e1a01003 	mov	r1, r3
2003899c:	ebffffc4 	bl	200388b4 <sil_wrw_mem>
200389a0:	ebffffd6 	bl	20038900 <tzic_lock>
200389a4:	e24bd004 	sub	sp, fp, #4
200389a8:	e8bd8800 	pop	{fp, pc}

200389ac <x_set_ipm>:
200389ac:	e92d4800 	push	{fp, lr}
200389b0:	e28db004 	add	fp, sp, #4
200389b4:	e24dd010 	sub	sp, sp, #16
200389b8:	e50b0010 	str	r0, [fp, #-16]
200389bc:	e51b3010 	ldr	r3, [fp, #-16]
200389c0:	e3530000 	cmp	r3, #0
200389c4:	1a000002 	bne	200389d4 <x_set_ipm+0x28>
200389c8:	e3a03000 	mov	r3, #0
200389cc:	e50b3008 	str	r3, [fp, #-8]
200389d0:	ea000005 	b	200389ec <x_set_ipm+0x40>
200389d4:	e51b3010 	ldr	r3, [fp, #-16]
200389d8:	e1e02003 	mvn	r2, r3
200389dc:	e30a3fec 	movw	r3, #45036	; 0xafec
200389e0:	e3423003 	movt	r3, #8195	; 0x2003
200389e4:	e7933102 	ldr	r3, [r3, r2, lsl #2]
200389e8:	e50b3008 	str	r3, [fp, #-8]
200389ec:	e3e00000 	mvn	r0, #0
200389f0:	ebffffc9 	bl	2003891c <tzic_disable_int>
200389f4:	e3013fac 	movw	r3, #8108	; 0x1fac
200389f8:	e3423004 	movt	r3, #8196	; 0x2004
200389fc:	e5932000 	ldr	r2, [r3]
20038a00:	e51b3008 	ldr	r3, [fp, #-8]
20038a04:	e1823003 	orr	r3, r2, r3
20038a08:	e1e03003 	mvn	r3, r3
20038a0c:	e1a00003 	mov	r0, r3
20038a10:	ebffffd3 	bl	20038964 <tzic_enable_int>
20038a14:	e3013fa8 	movw	r3, #8104	; 0x1fa8
20038a18:	e3423004 	movt	r3, #8196	; 0x2004
20038a1c:	e51b2010 	ldr	r2, [fp, #-16]
20038a20:	e5832000 	str	r2, [r3]
20038a24:	e24bd004 	sub	sp, fp, #4
20038a28:	e8bd8800 	pop	{fp, pc}

20038a2c <x_get_ipm>:
20038a2c:	e52db004 	push	{fp}		; (str fp, [sp, #-4]!)
20038a30:	e28db000 	add	fp, sp, #0
20038a34:	e3013fa8 	movw	r3, #8104	; 0x1fa8
20038a38:	e3423004 	movt	r3, #8196	; 0x2004
20038a3c:	e5933000 	ldr	r3, [r3]
20038a40:	e1a00003 	mov	r0, r3
20038a44:	e28bd000 	add	sp, fp, #0
20038a48:	e49db004 	pop	{fp}		; (ldr fp, [sp], #4)
20038a4c:	e12fff1e 	bx	lr

20038a50 <current_sr>:
20038a50:	e92d0810 	push	{r4, fp}
20038a54:	e28db004 	add	fp, sp, #4
20038a58:	e24dd008 	sub	sp, sp, #8
20038a5c:	e10f4000 	mrs	r4, CPSR
20038a60:	e50b4008 	str	r4, [fp, #-8]
20038a64:	e51b3008 	ldr	r3, [fp, #-8]
20038a68:	e1a00003 	mov	r0, r3
20038a6c:	e24bd004 	sub	sp, fp, #4
20038a70:	e8bd0810 	pop	{r4, fp}
20038a74:	e12fff1e 	bx	lr

20038a78 <set_sr>:
20038a78:	e52db004 	push	{fp}		; (str fp, [sp, #-4]!)
20038a7c:	e28db000 	add	fp, sp, #0
20038a80:	e24dd00c 	sub	sp, sp, #12
20038a84:	e50b0008 	str	r0, [fp, #-8]
20038a88:	e51b3008 	ldr	r3, [fp, #-8]
20038a8c:	e129f003 	msr	CPSR_fc, r3
20038a90:	e28bd000 	add	sp, fp, #0
20038a94:	e49db004 	pop	{fp}		; (ldr fp, [sp], #4)
20038a98:	e12fff1e 	bx	lr

20038a9c <sense_context>:
20038a9c:	e52db004 	push	{fp}		; (str fp, [sp, #-4]!)
20038aa0:	e28db000 	add	fp, sp, #0
20038aa4:	e3043000 	movw	r3, #16384	; 0x4000
20038aa8:	e3423005 	movt	r3, #8197	; 0x2005
20038aac:	e5933000 	ldr	r3, [r3]
20038ab0:	e3530000 	cmp	r3, #0
20038ab4:	03a03000 	moveq	r3, #0
20038ab8:	13a03001 	movne	r3, #1
20038abc:	e1a00003 	mov	r0, r3
20038ac0:	e28bd000 	add	sp, fp, #0
20038ac4:	e49db004 	pop	{fp}		; (ldr fp, [sp], #4)
20038ac8:	e12fff1e 	bx	lr

20038acc <x_lock_cpu>:
20038acc:	e92d4800 	push	{fp, lr}
20038ad0:	e28db004 	add	fp, sp, #4
20038ad4:	ebffffdd 	bl	20038a50 <current_sr>
20038ad8:	e1a03000 	mov	r3, r0
20038adc:	e38330c0 	orr	r3, r3, #192	; 0xc0
20038ae0:	e1a00003 	mov	r0, r3
20038ae4:	ebffffe3 	bl	20038a78 <set_sr>
20038ae8:	e8bd8800 	pop	{fp, pc}

20038aec <x_unlock_cpu>:
20038aec:	e92d4800 	push	{fp, lr}
20038af0:	e28db004 	add	fp, sp, #4
20038af4:	ebffffd5 	bl	20038a50 <current_sr>
20038af8:	e1a03000 	mov	r3, r0
20038afc:	e3c330c0 	bic	r3, r3, #192	; 0xc0
20038b00:	e3833080 	orr	r3, r3, #128	; 0x80
20038b04:	e1a00003 	mov	r0, r3
20038b08:	ebffffda 	bl	20038a78 <set_sr>
20038b0c:	e8bd8800 	pop	{fp, pc}

20038b10 <x_sense_lock>:
20038b10:	e92d4800 	push	{fp, lr}
20038b14:	e28db004 	add	fp, sp, #4
20038b18:	ebffffcc 	bl	20038a50 <current_sr>
20038b1c:	e1a03000 	mov	r3, r0
20038b20:	e20330c0 	and	r3, r3, #192	; 0xc0
20038b24:	e35300c0 	cmp	r3, #192	; 0xc0
20038b28:	13a03000 	movne	r3, #0
20038b2c:	03a03001 	moveq	r3, #1
20038b30:	e1a00003 	mov	r0, r3
20038b34:	e8bd8800 	pop	{fp, pc}

20038b38 <tmevtb_enqueue_evttim>:
20038b38:	e92d4800 	push	{fp, lr}
20038b3c:	e28db004 	add	fp, sp, #4
20038b40:	e24dd010 	sub	sp, sp, #16
20038b44:	e50b0008 	str	r0, [fp, #-8]
20038b48:	e50b100c 	str	r1, [fp, #-12]
20038b4c:	e50b2010 	str	r2, [fp, #-16]
20038b50:	e50b3014 	str	r3, [fp, #-20]	; 0xffffffec
20038b54:	e51b3008 	ldr	r3, [fp, #-8]
20038b58:	e51b2010 	ldr	r2, [fp, #-16]
20038b5c:	e5832004 	str	r2, [r3, #4]
20038b60:	e51b3008 	ldr	r3, [fp, #-8]
20038b64:	e51b2014 	ldr	r2, [fp, #-20]	; 0xffffffec
20038b68:	e5832008 	str	r2, [r3, #8]
20038b6c:	e51b0008 	ldr	r0, [fp, #-8]
20038b70:	e51b100c 	ldr	r1, [fp, #-12]
20038b74:	ebfff48c 	bl	20035dac <_kernel_tmevtb_insert>
20038b78:	e24bd004 	sub	sp, fp, #4
20038b7c:	e8bd8800 	pop	{fp, pc}

20038b80 <tmevtb_dequeue>:
20038b80:	e92d4800 	push	{fp, lr}
20038b84:	e28db004 	add	fp, sp, #4
20038b88:	e24dd008 	sub	sp, sp, #8
20038b8c:	e50b0008 	str	r0, [fp, #-8]
20038b90:	e51b0008 	ldr	r0, [fp, #-8]
20038b94:	ebfff4ac 	bl	20035e4c <_kernel_tmevtb_delete>
20038b98:	e24bd004 	sub	sp, fp, #4
20038b9c:	e8bd8800 	pop	{fp, pc}

20038ba0 <tmevtb_enqueue_cyc>:
20038ba0:	e92d4800 	push	{fp, lr}
20038ba4:	e28db004 	add	fp, sp, #4
20038ba8:	e24dd008 	sub	sp, sp, #8
20038bac:	e50b0008 	str	r0, [fp, #-8]
20038bb0:	e50b100c 	str	r1, [fp, #-12]
20038bb4:	e51b3008 	ldr	r3, [fp, #-8]
20038bb8:	e283200c 	add	r2, r3, #12
20038bbc:	e3083fbc 	movw	r3, #36796	; 0x8fbc
20038bc0:	e3423003 	movt	r3, #8195	; 0x2003
20038bc4:	e1a00002 	mov	r0, r2
20038bc8:	e51b100c 	ldr	r1, [fp, #-12]
20038bcc:	e1a02003 	mov	r2, r3
20038bd0:	e51b3008 	ldr	r3, [fp, #-8]
20038bd4:	ebffffd7 	bl	20038b38 <tmevtb_enqueue_evttim>
20038bd8:	e51b3008 	ldr	r3, [fp, #-8]
20038bdc:	e51b200c 	ldr	r2, [fp, #-12]
20038be0:	e5832008 	str	r2, [r3, #8]
20038be4:	e24bd004 	sub	sp, fp, #4
20038be8:	e8bd8800 	pop	{fp, pc}

20038bec <_kernel_initialize_cyclic>:
20038bec:	e92d4800 	push	{fp, lr}
20038bf0:	e28db004 	add	fp, sp, #4
20038bf4:	e24dd008 	sub	sp, sp, #8
20038bf8:	e3013e94 	movw	r3, #7828	; 0x1e94
20038bfc:	e3423004 	movt	r3, #8196	; 0x2004
20038c00:	e50b300c 	str	r3, [fp, #-12]
20038c04:	e3a03000 	mov	r3, #0
20038c08:	e50b3008 	str	r3, [fp, #-8]
20038c0c:	ea000023 	b	20038ca0 <_kernel_initialize_cyclic+0xb4>
20038c10:	e51b2008 	ldr	r2, [fp, #-8]
20038c14:	e1a03002 	mov	r3, r2
20038c18:	e1a03103 	lsl	r3, r3, #2
20038c1c:	e0833002 	add	r3, r3, r2
20038c20:	e1a03103 	lsl	r3, r3, #2
20038c24:	e1a02003 	mov	r2, r3
20038c28:	e30a3ed8 	movw	r3, #44760	; 0xaed8
20038c2c:	e3423003 	movt	r3, #8195	; 0x2003
20038c30:	e0822003 	add	r2, r2, r3
20038c34:	e51b300c 	ldr	r3, [fp, #-12]
20038c38:	e5832000 	str	r2, [r3]
20038c3c:	e51b300c 	ldr	r3, [fp, #-12]
20038c40:	e5933000 	ldr	r3, [r3]
20038c44:	e5933000 	ldr	r3, [r3]
20038c48:	e2033002 	and	r3, r3, #2
20038c4c:	e3530000 	cmp	r3, #0
20038c50:	0a000009 	beq	20038c7c <_kernel_initialize_cyclic+0x90>
20038c54:	e51b300c 	ldr	r3, [fp, #-12]
20038c58:	e3a02001 	mov	r2, #1
20038c5c:	e5832004 	str	r2, [r3, #4]
20038c60:	e51b300c 	ldr	r3, [fp, #-12]
20038c64:	e5933000 	ldr	r3, [r3]
20038c68:	e5933010 	ldr	r3, [r3, #16]
20038c6c:	e51b000c 	ldr	r0, [fp, #-12]
20038c70:	e1a01003 	mov	r1, r3
20038c74:	ebffffc9 	bl	20038ba0 <tmevtb_enqueue_cyc>
20038c78:	ea000002 	b	20038c88 <_kernel_initialize_cyclic+0x9c>
20038c7c:	e51b300c 	ldr	r3, [fp, #-12]
20038c80:	e3a02000 	mov	r2, #0
20038c84:	e5832004 	str	r2, [r3, #4]
20038c88:	e51b300c 	ldr	r3, [fp, #-12]
20038c8c:	e2833018 	add	r3, r3, #24
20038c90:	e50b300c 	str	r3, [fp, #-12]
20038c94:	e51b3008 	ldr	r3, [fp, #-8]
20038c98:	e2833001 	add	r3, r3, #1
20038c9c:	e50b3008 	str	r3, [fp, #-8]
20038ca0:	e30a3ed4 	movw	r3, #44756	; 0xaed4
20038ca4:	e3423003 	movt	r3, #8195	; 0x2003
20038ca8:	e5933000 	ldr	r3, [r3]
20038cac:	e1a02003 	mov	r2, r3
20038cb0:	e51b3008 	ldr	r3, [fp, #-8]
20038cb4:	e1520003 	cmp	r2, r3
20038cb8:	8affffd4 	bhi	20038c10 <_kernel_initialize_cyclic+0x24>
20038cbc:	e24bd004 	sub	sp, fp, #4
20038cc0:	e8bd8800 	pop	{fp, pc}

20038cc4 <sta_cyc>:
20038cc4:	e92d4800 	push	{fp, lr}
20038cc8:	e28db004 	add	fp, sp, #4
20038ccc:	e24dd010 	sub	sp, sp, #16
20038cd0:	e50b0010 	str	r0, [fp, #-16]
20038cd4:	ebffff70 	bl	20038a9c <sense_context>
20038cd8:	e1a03000 	mov	r3, r0
20038cdc:	e3530000 	cmp	r3, #0
20038ce0:	1a000003 	bne	20038cf4 <sta_cyc+0x30>
20038ce4:	ebffff89 	bl	20038b10 <x_sense_lock>
20038ce8:	e1a03000 	mov	r3, r0
20038cec:	e3530000 	cmp	r3, #0
20038cf0:	0a000002 	beq	20038d00 <sta_cyc+0x3c>
20038cf4:	e3e03018 	mvn	r3, #24
20038cf8:	e50b3008 	str	r3, [fp, #-8]
20038cfc:	ea000030 	b	20038dc4 <sta_cyc+0x100>
20038d00:	e51b3010 	ldr	r3, [fp, #-16]
20038d04:	e3530000 	cmp	r3, #0
20038d08:	da000005 	ble	20038d24 <sta_cyc+0x60>
20038d0c:	e30a3ed4 	movw	r3, #44756	; 0xaed4
20038d10:	e3423003 	movt	r3, #8195	; 0x2003
20038d14:	e5933000 	ldr	r3, [r3]
20038d18:	e51b2010 	ldr	r2, [fp, #-16]
20038d1c:	e1520003 	cmp	r2, r3
20038d20:	da000002 	ble	20038d30 <sta_cyc+0x6c>
20038d24:	e3e03011 	mvn	r3, #17
20038d28:	e50b3008 	str	r3, [fp, #-8]
20038d2c:	ea000024 	b	20038dc4 <sta_cyc+0x100>
20038d30:	e51b3010 	ldr	r3, [fp, #-16]
20038d34:	e2432001 	sub	r2, r3, #1
20038d38:	e1a03002 	mov	r3, r2
20038d3c:	e1a03083 	lsl	r3, r3, #1
20038d40:	e0833002 	add	r3, r3, r2
20038d44:	e1a03183 	lsl	r3, r3, #3
20038d48:	e1a02003 	mov	r2, r3
20038d4c:	e3013e94 	movw	r3, #7828	; 0x1e94
20038d50:	e3423004 	movt	r3, #8196	; 0x2004
20038d54:	e0823003 	add	r3, r2, r3
20038d58:	e50b300c 	str	r3, [fp, #-12]
20038d5c:	ebffff5a 	bl	20038acc <x_lock_cpu>
20038d60:	e51b300c 	ldr	r3, [fp, #-12]
20038d64:	e5933004 	ldr	r3, [r3, #4]
20038d68:	e3530000 	cmp	r3, #0
20038d6c:	0a000004 	beq	20038d84 <sta_cyc+0xc0>
20038d70:	e51b300c 	ldr	r3, [fp, #-12]
20038d74:	e283300c 	add	r3, r3, #12
20038d78:	e1a00003 	mov	r0, r3
20038d7c:	ebffff7f 	bl	20038b80 <tmevtb_dequeue>
20038d80:	ea000002 	b	20038d90 <sta_cyc+0xcc>
20038d84:	e51b300c 	ldr	r3, [fp, #-12]
20038d88:	e3a02001 	mov	r2, #1
20038d8c:	e5832004 	str	r2, [r3, #4]
20038d90:	e51b300c 	ldr	r3, [fp, #-12]
20038d94:	e5933000 	ldr	r3, [r3]
20038d98:	e5932010 	ldr	r2, [r3, #16]
20038d9c:	e30430a4 	movw	r3, #16548	; 0x40a4
20038da0:	e3423005 	movt	r3, #8197	; 0x2005
20038da4:	e5933000 	ldr	r3, [r3]
20038da8:	e0823003 	add	r3, r2, r3
20038dac:	e51b000c 	ldr	r0, [fp, #-12]
20038db0:	e1a01003 	mov	r1, r3
20038db4:	ebffff79 	bl	20038ba0 <tmevtb_enqueue_cyc>
20038db8:	e3a03000 	mov	r3, #0
20038dbc:	e50b3008 	str	r3, [fp, #-8]
20038dc0:	ebffff49 	bl	20038aec <x_unlock_cpu>
20038dc4:	e51b3008 	ldr	r3, [fp, #-8]
20038dc8:	e1a00003 	mov	r0, r3
20038dcc:	e24bd004 	sub	sp, fp, #4
20038dd0:	e8bd8800 	pop	{fp, pc}

20038dd4 <stp_cyc>:
20038dd4:	e92d4800 	push	{fp, lr}
20038dd8:	e28db004 	add	fp, sp, #4
20038ddc:	e24dd010 	sub	sp, sp, #16
20038de0:	e50b0010 	str	r0, [fp, #-16]
20038de4:	ebffff2c 	bl	20038a9c <sense_context>
20038de8:	e1a03000 	mov	r3, r0
20038dec:	e3530000 	cmp	r3, #0
20038df0:	1a000003 	bne	20038e04 <stp_cyc+0x30>
20038df4:	ebffff45 	bl	20038b10 <x_sense_lock>
20038df8:	e1a03000 	mov	r3, r0
20038dfc:	e3530000 	cmp	r3, #0
20038e00:	0a000002 	beq	20038e10 <stp_cyc+0x3c>
20038e04:	e3e03018 	mvn	r3, #24
20038e08:	e50b3008 	str	r3, [fp, #-8]
20038e0c:	ea000025 	b	20038ea8 <stp_cyc+0xd4>
20038e10:	e51b3010 	ldr	r3, [fp, #-16]
20038e14:	e3530000 	cmp	r3, #0
20038e18:	da000005 	ble	20038e34 <stp_cyc+0x60>
20038e1c:	e30a3ed4 	movw	r3, #44756	; 0xaed4
20038e20:	e3423003 	movt	r3, #8195	; 0x2003
20038e24:	e5933000 	ldr	r3, [r3]
20038e28:	e51b2010 	ldr	r2, [fp, #-16]
20038e2c:	e1520003 	cmp	r2, r3
20038e30:	da000002 	ble	20038e40 <stp_cyc+0x6c>
20038e34:	e3e03011 	mvn	r3, #17
20038e38:	e50b3008 	str	r3, [fp, #-8]
20038e3c:	ea000019 	b	20038ea8 <stp_cyc+0xd4>
20038e40:	e51b3010 	ldr	r3, [fp, #-16]
20038e44:	e2432001 	sub	r2, r3, #1
20038e48:	e1a03002 	mov	r3, r2
20038e4c:	e1a03083 	lsl	r3, r3, #1
20038e50:	e0833002 	add	r3, r3, r2
20038e54:	e1a03183 	lsl	r3, r3, #3
20038e58:	e1a02003 	mov	r2, r3
20038e5c:	e3013e94 	movw	r3, #7828	; 0x1e94
20038e60:	e3423004 	movt	r3, #8196	; 0x2004
20038e64:	e0823003 	add	r3, r2, r3
20038e68:	e50b300c 	str	r3, [fp, #-12]
20038e6c:	ebffff16 	bl	20038acc <x_lock_cpu>
20038e70:	e51b300c 	ldr	r3, [fp, #-12]
20038e74:	e5933004 	ldr	r3, [r3, #4]
20038e78:	e3530000 	cmp	r3, #0
20038e7c:	0a000006 	beq	20038e9c <stp_cyc+0xc8>
20038e80:	e51b300c 	ldr	r3, [fp, #-12]
20038e84:	e3a02000 	mov	r2, #0
20038e88:	e5832004 	str	r2, [r3, #4]
20038e8c:	e51b300c 	ldr	r3, [fp, #-12]
20038e90:	e283300c 	add	r3, r3, #12
20038e94:	e1a00003 	mov	r0, r3
20038e98:	ebffff38 	bl	20038b80 <tmevtb_dequeue>
20038e9c:	e3a03000 	mov	r3, #0
20038ea0:	e50b3008 	str	r3, [fp, #-8]
20038ea4:	ebffff10 	bl	20038aec <x_unlock_cpu>
20038ea8:	e51b3008 	ldr	r3, [fp, #-8]
20038eac:	e1a00003 	mov	r0, r3
20038eb0:	e24bd004 	sub	sp, fp, #4
20038eb4:	e8bd8800 	pop	{fp, pc}

20038eb8 <ref_cyc>:
20038eb8:	e92d4800 	push	{fp, lr}
20038ebc:	e28db004 	add	fp, sp, #4
20038ec0:	e24dd010 	sub	sp, sp, #16
20038ec4:	e50b0010 	str	r0, [fp, #-16]
20038ec8:	e50b1014 	str	r1, [fp, #-20]	; 0xffffffec
20038ecc:	ebfffef2 	bl	20038a9c <sense_context>
20038ed0:	e1a03000 	mov	r3, r0
20038ed4:	e3530000 	cmp	r3, #0
20038ed8:	1a000003 	bne	20038eec <ref_cyc+0x34>
20038edc:	ebffff0b 	bl	20038b10 <x_sense_lock>
20038ee0:	e1a03000 	mov	r3, r0
20038ee4:	e3530000 	cmp	r3, #0
20038ee8:	0a000002 	beq	20038ef8 <ref_cyc+0x40>
20038eec:	e3e03018 	mvn	r3, #24
20038ef0:	e50b3008 	str	r3, [fp, #-8]
20038ef4:	ea00002c 	b	20038fac <ref_cyc+0xf4>
20038ef8:	e51b3010 	ldr	r3, [fp, #-16]
20038efc:	e3530000 	cmp	r3, #0
20038f00:	da000005 	ble	20038f1c <ref_cyc+0x64>
20038f04:	e30a3ed4 	movw	r3, #44756	; 0xaed4
20038f08:	e3423003 	movt	r3, #8195	; 0x2003
20038f0c:	e5933000 	ldr	r3, [r3]
20038f10:	e51b2010 	ldr	r2, [fp, #-16]
20038f14:	e1520003 	cmp	r2, r3
20038f18:	da000002 	ble	20038f28 <ref_cyc+0x70>
20038f1c:	e3e03011 	mvn	r3, #17
20038f20:	e50b3008 	str	r3, [fp, #-8]
20038f24:	ea000020 	b	20038fac <ref_cyc+0xf4>
20038f28:	e51b3010 	ldr	r3, [fp, #-16]
20038f2c:	e2432001 	sub	r2, r3, #1
20038f30:	e1a03002 	mov	r3, r2
20038f34:	e1a03083 	lsl	r3, r3, #1
20038f38:	e0833002 	add	r3, r3, r2
20038f3c:	e1a03183 	lsl	r3, r3, #3
20038f40:	e1a02003 	mov	r2, r3
20038f44:	e3013e94 	movw	r3, #7828	; 0x1e94
20038f48:	e3423004 	movt	r3, #8196	; 0x2004
20038f4c:	e0823003 	add	r3, r2, r3
20038f50:	e50b300c 	str	r3, [fp, #-12]
20038f54:	ebfffedc 	bl	20038acc <x_lock_cpu>
20038f58:	e51b300c 	ldr	r3, [fp, #-12]
20038f5c:	e5933004 	ldr	r3, [r3, #4]
20038f60:	e3530000 	cmp	r3, #0
20038f64:	0a00000a 	beq	20038f94 <ref_cyc+0xdc>
20038f68:	e51b3014 	ldr	r3, [fp, #-20]	; 0xffffffec
20038f6c:	e3a02002 	mov	r2, #2
20038f70:	e5832000 	str	r2, [r3]
20038f74:	e51b300c 	ldr	r3, [fp, #-12]
20038f78:	e283300c 	add	r3, r3, #12
20038f7c:	e1a00003 	mov	r0, r3
20038f80:	ebfff45b 	bl	200360f4 <_kernel_tmevt_lefttim>
20038f84:	e1a02000 	mov	r2, r0
20038f88:	e51b3014 	ldr	r3, [fp, #-20]	; 0xffffffec
20038f8c:	e5832004 	str	r2, [r3, #4]
20038f90:	ea000002 	b	20038fa0 <ref_cyc+0xe8>
20038f94:	e51b3014 	ldr	r3, [fp, #-20]	; 0xffffffec
20038f98:	e3a02001 	mov	r2, #1
20038f9c:	e5832000 	str	r2, [r3]
20038fa0:	e3a03000 	mov	r3, #0
20038fa4:	e50b3008 	str	r3, [fp, #-8]
20038fa8:	ebfffecf 	bl	20038aec <x_unlock_cpu>
20038fac:	e51b3008 	ldr	r3, [fp, #-8]
20038fb0:	e1a00003 	mov	r0, r3
20038fb4:	e24bd004 	sub	sp, fp, #4
20038fb8:	e8bd8800 	pop	{fp, pc}

20038fbc <_kernel_call_cychdr>:
20038fbc:	e92d4800 	push	{fp, lr}
20038fc0:	e28db004 	add	fp, sp, #4
20038fc4:	e24dd010 	sub	sp, sp, #16
20038fc8:	e50b0010 	str	r0, [fp, #-16]
20038fcc:	e51b3010 	ldr	r3, [fp, #-16]
20038fd0:	e5932008 	ldr	r2, [r3, #8]
20038fd4:	e51b3010 	ldr	r3, [fp, #-16]
20038fd8:	e5933000 	ldr	r3, [r3]
20038fdc:	e593300c 	ldr	r3, [r3, #12]
20038fe0:	e0823003 	add	r3, r2, r3
20038fe4:	e51b0010 	ldr	r0, [fp, #-16]
20038fe8:	e1a01003 	mov	r1, r3
20038fec:	ebfffeeb 	bl	20038ba0 <tmevtb_enqueue_cyc>
20038ff0:	ebfffe8d 	bl	20038a2c <x_get_ipm>
20038ff4:	e50b0008 	str	r0, [fp, #-8]
20038ff8:	ebfffebb 	bl	20038aec <x_unlock_cpu>
20038ffc:	e51b3010 	ldr	r3, [fp, #-16]
20039000:	e5933000 	ldr	r3, [r3]
20039004:	e5933008 	ldr	r3, [r3, #8]
20039008:	e51b2010 	ldr	r2, [fp, #-16]
2003900c:	e5922000 	ldr	r2, [r2]
20039010:	e5922004 	ldr	r2, [r2, #4]
20039014:	e1a00002 	mov	r0, r2
20039018:	e12fff33 	blx	r3
2003901c:	ebfffebb 	bl	20038b10 <x_sense_lock>
20039020:	e1a03000 	mov	r3, r0
20039024:	e3530000 	cmp	r3, #0
20039028:	1a000000 	bne	20039030 <_kernel_call_cychdr+0x74>
2003902c:	ebfffea6 	bl	20038acc <x_lock_cpu>
20039030:	e51b0008 	ldr	r0, [fp, #-8]
20039034:	ebfffe5c 	bl	200389ac <x_set_ipm>
20039038:	e24bd004 	sub	sp, fp, #4
2003903c:	e8bd8800 	pop	{fp, pc}

20039040 <x_get_ipm>:
20039040:	e52db004 	push	{fp}		; (str fp, [sp, #-4]!)
20039044:	e28db000 	add	fp, sp, #0
20039048:	e3013fa8 	movw	r3, #8104	; 0x1fa8
2003904c:	e3423004 	movt	r3, #8196	; 0x2004
20039050:	e5933000 	ldr	r3, [r3]
20039054:	e1a00003 	mov	r0, r3
20039058:	e28bd000 	add	sp, fp, #0
2003905c:	e49db004 	pop	{fp}		; (ldr fp, [sp], #4)
20039060:	e12fff1e 	bx	lr

20039064 <current_sr>:
20039064:	e92d0810 	push	{r4, fp}
20039068:	e28db004 	add	fp, sp, #4
2003906c:	e24dd008 	sub	sp, sp, #8
20039070:	e10f4000 	mrs	r4, CPSR
20039074:	e50b4008 	str	r4, [fp, #-8]
20039078:	e51b3008 	ldr	r3, [fp, #-8]
2003907c:	e1a00003 	mov	r0, r3
20039080:	e24bd004 	sub	sp, fp, #4
20039084:	e8bd0810 	pop	{r4, fp}
20039088:	e12fff1e 	bx	lr

2003908c <set_sr>:
2003908c:	e52db004 	push	{fp}		; (str fp, [sp, #-4]!)
20039090:	e28db000 	add	fp, sp, #0
20039094:	e24dd00c 	sub	sp, sp, #12
20039098:	e50b0008 	str	r0, [fp, #-8]
2003909c:	e51b3008 	ldr	r3, [fp, #-8]
200390a0:	e129f003 	msr	CPSR_fc, r3
200390a4:	e28bd000 	add	sp, fp, #0
200390a8:	e49db004 	pop	{fp}		; (ldr fp, [sp], #4)
200390ac:	e12fff1e 	bx	lr

200390b0 <sense_context>:
200390b0:	e52db004 	push	{fp}		; (str fp, [sp, #-4]!)
200390b4:	e28db000 	add	fp, sp, #0
200390b8:	e3043000 	movw	r3, #16384	; 0x4000
200390bc:	e3423005 	movt	r3, #8197	; 0x2005
200390c0:	e5933000 	ldr	r3, [r3]
200390c4:	e3530000 	cmp	r3, #0
200390c8:	03a03000 	moveq	r3, #0
200390cc:	13a03001 	movne	r3, #1
200390d0:	e1a00003 	mov	r0, r3
200390d4:	e28bd000 	add	sp, fp, #0
200390d8:	e49db004 	pop	{fp}		; (ldr fp, [sp], #4)
200390dc:	e12fff1e 	bx	lr

200390e0 <x_lock_cpu>:
200390e0:	e92d4800 	push	{fp, lr}
200390e4:	e28db004 	add	fp, sp, #4
200390e8:	ebffffdd 	bl	20039064 <current_sr>
200390ec:	e1a03000 	mov	r3, r0
200390f0:	e38330c0 	orr	r3, r3, #192	; 0xc0
200390f4:	e1a00003 	mov	r0, r3
200390f8:	ebffffe3 	bl	2003908c <set_sr>
200390fc:	e8bd8800 	pop	{fp, pc}

20039100 <x_unlock_cpu>:
20039100:	e92d4800 	push	{fp, lr}
20039104:	e28db004 	add	fp, sp, #4
20039108:	ebffffd5 	bl	20039064 <current_sr>
2003910c:	e1a03000 	mov	r3, r0
20039110:	e3c330c0 	bic	r3, r3, #192	; 0xc0
20039114:	e3833080 	orr	r3, r3, #128	; 0x80
20039118:	e1a00003 	mov	r0, r3
2003911c:	ebffffda 	bl	2003908c <set_sr>
20039120:	e8bd8800 	pop	{fp, pc}

20039124 <x_sense_lock>:
20039124:	e92d4800 	push	{fp, lr}
20039128:	e28db004 	add	fp, sp, #4
2003912c:	ebffffcc 	bl	20039064 <current_sr>
20039130:	e1a03000 	mov	r3, r0
20039134:	e20330c0 	and	r3, r3, #192	; 0xc0
20039138:	e35300c0 	cmp	r3, #192	; 0xc0
2003913c:	13a03000 	movne	r3, #0
20039140:	03a03001 	moveq	r3, #1
20039144:	e1a00003 	mov	r0, r3
20039148:	e8bd8800 	pop	{fp, pc}

2003914c <rot_rdq>:
2003914c:	e92d4800 	push	{fp, lr}
20039150:	e28db004 	add	fp, sp, #4
20039154:	e24dd010 	sub	sp, sp, #16
20039158:	e50b0010 	str	r0, [fp, #-16]
2003915c:	ebffffd3 	bl	200390b0 <sense_context>
20039160:	e1a03000 	mov	r3, r0
20039164:	e3530000 	cmp	r3, #0
20039168:	1a000003 	bne	2003917c <rot_rdq+0x30>
2003916c:	ebffffec 	bl	20039124 <x_sense_lock>
20039170:	e1a03000 	mov	r3, r0
20039174:	e3530000 	cmp	r3, #0
20039178:	0a000002 	beq	20039188 <rot_rdq+0x3c>
2003917c:	e3e03018 	mvn	r3, #24
20039180:	e50b3008 	str	r3, [fp, #-8]
20039184:	ea000020 	b	2003920c <rot_rdq+0xc0>
20039188:	e51b3010 	ldr	r3, [fp, #-16]
2003918c:	e3530000 	cmp	r3, #0
20039190:	da000002 	ble	200391a0 <rot_rdq+0x54>
20039194:	e51b3010 	ldr	r3, [fp, #-16]
20039198:	e3530010 	cmp	r3, #16
2003919c:	da000005 	ble	200391b8 <rot_rdq+0x6c>
200391a0:	e51b3010 	ldr	r3, [fp, #-16]
200391a4:	e3530000 	cmp	r3, #0
200391a8:	0a000002 	beq	200391b8 <rot_rdq+0x6c>
200391ac:	e3e03010 	mvn	r3, #16
200391b0:	e50b3008 	str	r3, [fp, #-8]
200391b4:	ea000014 	b	2003920c <rot_rdq+0xc0>
200391b8:	ebffffc8 	bl	200390e0 <x_lock_cpu>
200391bc:	e51b3010 	ldr	r3, [fp, #-16]
200391c0:	e3530000 	cmp	r3, #0
200391c4:	1a000004 	bne	200391dc <rot_rdq+0x90>
200391c8:	e3043098 	movw	r3, #16536	; 0x4098
200391cc:	e3423005 	movt	r3, #8197	; 0x2005
200391d0:	e5933000 	ldr	r3, [r3]
200391d4:	e5d3300d 	ldrb	r3, [r3, #13]
200391d8:	ea000001 	b	200391e4 <rot_rdq+0x98>
200391dc:	e51b3010 	ldr	r3, [fp, #-16]
200391e0:	e2433001 	sub	r3, r3, #1
200391e4:	e50b300c 	str	r3, [fp, #-12]
200391e8:	e51b000c 	ldr	r0, [fp, #-12]
200391ec:	ebfff15b 	bl	20035760 <_kernel_rotate_ready_queue>
200391f0:	e1a03000 	mov	r3, r0
200391f4:	e3530000 	cmp	r3, #0
200391f8:	0a000000 	beq	20039200 <rot_rdq+0xb4>
200391fc:	ebffe7a1 	bl	20033088 <_kernel_dispatch>
20039200:	e3a03000 	mov	r3, #0
20039204:	e50b3008 	str	r3, [fp, #-8]
20039208:	ebffffbc 	bl	20039100 <x_unlock_cpu>
2003920c:	e51b3008 	ldr	r3, [fp, #-8]
20039210:	e1a00003 	mov	r0, r3
20039214:	e24bd004 	sub	sp, fp, #4
20039218:	e8bd8800 	pop	{fp, pc}

2003921c <irot_rdq>:
2003921c:	e92d4800 	push	{fp, lr}
20039220:	e28db004 	add	fp, sp, #4
20039224:	e24dd010 	sub	sp, sp, #16
20039228:	e50b0010 	str	r0, [fp, #-16]
2003922c:	ebffff9f 	bl	200390b0 <sense_context>
20039230:	e1a03000 	mov	r3, r0
20039234:	e3530000 	cmp	r3, #0
20039238:	0a000003 	beq	2003924c <irot_rdq+0x30>
2003923c:	ebffffb8 	bl	20039124 <x_sense_lock>
20039240:	e1a03000 	mov	r3, r0
20039244:	e3530000 	cmp	r3, #0
20039248:	0a000002 	beq	20039258 <irot_rdq+0x3c>
2003924c:	e3e03018 	mvn	r3, #24
20039250:	e50b3008 	str	r3, [fp, #-8]
20039254:	ea000017 	b	200392b8 <irot_rdq+0x9c>
20039258:	e51b3010 	ldr	r3, [fp, #-16]
2003925c:	e3530000 	cmp	r3, #0
20039260:	da000002 	ble	20039270 <irot_rdq+0x54>
20039264:	e51b3010 	ldr	r3, [fp, #-16]
20039268:	e3530010 	cmp	r3, #16
2003926c:	da000002 	ble	2003927c <irot_rdq+0x60>
20039270:	e3e03010 	mvn	r3, #16
20039274:	e50b3008 	str	r3, [fp, #-8]
20039278:	ea00000e 	b	200392b8 <irot_rdq+0x9c>
2003927c:	ebffff97 	bl	200390e0 <x_lock_cpu>
20039280:	e51b3010 	ldr	r3, [fp, #-16]
20039284:	e2433001 	sub	r3, r3, #1
20039288:	e1a00003 	mov	r0, r3
2003928c:	ebfff133 	bl	20035760 <_kernel_rotate_ready_queue>
20039290:	e1a03000 	mov	r3, r0
20039294:	e3530000 	cmp	r3, #0
20039298:	0a000003 	beq	200392ac <irot_rdq+0x90>
2003929c:	e3043008 	movw	r3, #16392	; 0x4008
200392a0:	e3423005 	movt	r3, #8197	; 0x2005
200392a4:	e3a02001 	mov	r2, #1
200392a8:	e5832000 	str	r2, [r3]
200392ac:	e3a03000 	mov	r3, #0
200392b0:	e50b3008 	str	r3, [fp, #-8]
200392b4:	ebffff91 	bl	20039100 <x_unlock_cpu>
200392b8:	e51b3008 	ldr	r3, [fp, #-8]
200392bc:	e1a00003 	mov	r0, r3
200392c0:	e24bd004 	sub	sp, fp, #4
200392c4:	e8bd8800 	pop	{fp, pc}

200392c8 <get_tid>:
200392c8:	e92d4800 	push	{fp, lr}
200392cc:	e28db004 	add	fp, sp, #4
200392d0:	e24dd010 	sub	sp, sp, #16
200392d4:	e50b0010 	str	r0, [fp, #-16]
200392d8:	ebffff74 	bl	200390b0 <sense_context>
200392dc:	e1a03000 	mov	r3, r0
200392e0:	e3530000 	cmp	r3, #0
200392e4:	1a000003 	bne	200392f8 <get_tid+0x30>
200392e8:	ebffff8d 	bl	20039124 <x_sense_lock>
200392ec:	e1a03000 	mov	r3, r0
200392f0:	e3530000 	cmp	r3, #0
200392f4:	0a000002 	beq	20039304 <get_tid+0x3c>
200392f8:	e3e03018 	mvn	r3, #24
200392fc:	e50b3008 	str	r3, [fp, #-8]
20039300:	ea00001a 	b	20039370 <get_tid+0xa8>
20039304:	ebffff75 	bl	200390e0 <x_lock_cpu>
20039308:	e3043098 	movw	r3, #16536	; 0x4098
2003930c:	e3423005 	movt	r3, #8197	; 0x2005
20039310:	e5933000 	ldr	r3, [r3]
20039314:	e1a02003 	mov	r2, r3
20039318:	e3013f14 	movw	r3, #7956	; 0x1f14
2003931c:	e3423004 	movt	r3, #8196	; 0x2004
20039320:	e0633002 	rsb	r3, r3, r2
20039324:	e1a01143 	asr	r1, r3, #2
20039328:	e1a03001 	mov	r3, r1
2003932c:	e1a03183 	lsl	r3, r3, #3
20039330:	e0613003 	rsb	r3, r1, r3
20039334:	e1a02303 	lsl	r2, r3, #6
20039338:	e0833002 	add	r3, r3, r2
2003933c:	e1a03183 	lsl	r3, r3, #3
20039340:	e0833001 	add	r3, r3, r1
20039344:	e1a02783 	lsl	r2, r3, #15
20039348:	e0632002 	rsb	r2, r3, r2
2003934c:	e1a02182 	lsl	r2, r2, #3
20039350:	e0822001 	add	r2, r2, r1
20039354:	e1a03002 	mov	r3, r2
20039358:	e2832001 	add	r2, r3, #1
2003935c:	e51b3010 	ldr	r3, [fp, #-16]
20039360:	e5832000 	str	r2, [r3]
20039364:	e3a03000 	mov	r3, #0
20039368:	e50b3008 	str	r3, [fp, #-8]
2003936c:	ebffff63 	bl	20039100 <x_unlock_cpu>
20039370:	e51b3008 	ldr	r3, [fp, #-8]
20039374:	e1a00003 	mov	r0, r3
20039378:	e24bd004 	sub	sp, fp, #4
2003937c:	e8bd8800 	pop	{fp, pc}

20039380 <iget_tid>:
20039380:	e92d4800 	push	{fp, lr}
20039384:	e28db004 	add	fp, sp, #4
20039388:	e24dd010 	sub	sp, sp, #16
2003938c:	e50b0010 	str	r0, [fp, #-16]
20039390:	ebffff46 	bl	200390b0 <sense_context>
20039394:	e1a03000 	mov	r3, r0
20039398:	e3530000 	cmp	r3, #0
2003939c:	0a000003 	beq	200393b0 <iget_tid+0x30>
200393a0:	ebffff5f 	bl	20039124 <x_sense_lock>
200393a4:	e1a03000 	mov	r3, r0
200393a8:	e3530000 	cmp	r3, #0
200393ac:	0a000002 	beq	200393bc <iget_tid+0x3c>
200393b0:	e3e03018 	mvn	r3, #24
200393b4:	e50b3008 	str	r3, [fp, #-8]
200393b8:	ea000021 	b	20039444 <iget_tid+0xc4>
200393bc:	ebffff47 	bl	200390e0 <x_lock_cpu>
200393c0:	e3043098 	movw	r3, #16536	; 0x4098
200393c4:	e3423005 	movt	r3, #8197	; 0x2005
200393c8:	e5933000 	ldr	r3, [r3]
200393cc:	e3530000 	cmp	r3, #0
200393d0:	0a000015 	beq	2003942c <iget_tid+0xac>
200393d4:	e3043098 	movw	r3, #16536	; 0x4098
200393d8:	e3423005 	movt	r3, #8197	; 0x2005
200393dc:	e5933000 	ldr	r3, [r3]
200393e0:	e1a02003 	mov	r2, r3
200393e4:	e3013f14 	movw	r3, #7956	; 0x1f14
200393e8:	e3423004 	movt	r3, #8196	; 0x2004
200393ec:	e0633002 	rsb	r3, r3, r2
200393f0:	e1a01143 	asr	r1, r3, #2
200393f4:	e1a03001 	mov	r3, r1
200393f8:	e1a03183 	lsl	r3, r3, #3
200393fc:	e0613003 	rsb	r3, r1, r3
20039400:	e1a02303 	lsl	r2, r3, #6
20039404:	e0833002 	add	r3, r3, r2
20039408:	e1a03183 	lsl	r3, r3, #3
2003940c:	e0833001 	add	r3, r3, r1
20039410:	e1a02783 	lsl	r2, r3, #15
20039414:	e0632002 	rsb	r2, r3, r2
20039418:	e1a02182 	lsl	r2, r2, #3
2003941c:	e0822001 	add	r2, r2, r1
20039420:	e1a03002 	mov	r3, r2
20039424:	e2833001 	add	r3, r3, #1
20039428:	ea000000 	b	20039430 <iget_tid+0xb0>
2003942c:	e3a03000 	mov	r3, #0
20039430:	e51b2010 	ldr	r2, [fp, #-16]
20039434:	e5823000 	str	r3, [r2]
20039438:	e3a03000 	mov	r3, #0
2003943c:	e50b3008 	str	r3, [fp, #-8]
20039440:	ebffff2e 	bl	20039100 <x_unlock_cpu>
20039444:	e51b3008 	ldr	r3, [fp, #-8]
20039448:	e1a00003 	mov	r0, r3
2003944c:	e24bd004 	sub	sp, fp, #4
20039450:	e8bd8800 	pop	{fp, pc}

20039454 <loc_cpu>:
20039454:	e92d4800 	push	{fp, lr}
20039458:	e28db004 	add	fp, sp, #4
2003945c:	e24dd008 	sub	sp, sp, #8
20039460:	ebffff12 	bl	200390b0 <sense_context>
20039464:	e1a03000 	mov	r3, r0
20039468:	e3530000 	cmp	r3, #0
2003946c:	0a000002 	beq	2003947c <loc_cpu+0x28>
20039470:	e3e03018 	mvn	r3, #24
20039474:	e50b3008 	str	r3, [fp, #-8]
20039478:	ea000006 	b	20039498 <loc_cpu+0x44>
2003947c:	ebffff28 	bl	20039124 <x_sense_lock>
20039480:	e1a03000 	mov	r3, r0
20039484:	e3530000 	cmp	r3, #0
20039488:	1a000000 	bne	20039490 <loc_cpu+0x3c>
2003948c:	ebffff13 	bl	200390e0 <x_lock_cpu>
20039490:	e3a03000 	mov	r3, #0
20039494:	e50b3008 	str	r3, [fp, #-8]
20039498:	e51b3008 	ldr	r3, [fp, #-8]
2003949c:	e1a00003 	mov	r0, r3
200394a0:	e24bd004 	sub	sp, fp, #4
200394a4:	e8bd8800 	pop	{fp, pc}

200394a8 <iloc_cpu>:
200394a8:	e92d4800 	push	{fp, lr}
200394ac:	e28db004 	add	fp, sp, #4
200394b0:	e24dd008 	sub	sp, sp, #8
200394b4:	ebfffefd 	bl	200390b0 <sense_context>
200394b8:	e1a03000 	mov	r3, r0
200394bc:	e3530000 	cmp	r3, #0
200394c0:	1a000002 	bne	200394d0 <iloc_cpu+0x28>
200394c4:	e3e03018 	mvn	r3, #24
200394c8:	e50b3008 	str	r3, [fp, #-8]
200394cc:	ea000006 	b	200394ec <iloc_cpu+0x44>
200394d0:	ebffff13 	bl	20039124 <x_sense_lock>
200394d4:	e1a03000 	mov	r3, r0
200394d8:	e3530000 	cmp	r3, #0
200394dc:	1a000000 	bne	200394e4 <iloc_cpu+0x3c>
200394e0:	ebfffefe 	bl	200390e0 <x_lock_cpu>
200394e4:	e3a03000 	mov	r3, #0
200394e8:	e50b3008 	str	r3, [fp, #-8]
200394ec:	e51b3008 	ldr	r3, [fp, #-8]
200394f0:	e1a00003 	mov	r0, r3
200394f4:	e24bd004 	sub	sp, fp, #4
200394f8:	e8bd8800 	pop	{fp, pc}

200394fc <unl_cpu>:
200394fc:	e92d4800 	push	{fp, lr}
20039500:	e28db004 	add	fp, sp, #4
20039504:	e24dd008 	sub	sp, sp, #8
20039508:	ebfffee8 	bl	200390b0 <sense_context>
2003950c:	e1a03000 	mov	r3, r0
20039510:	e3530000 	cmp	r3, #0
20039514:	0a000002 	beq	20039524 <unl_cpu+0x28>
20039518:	e3e03018 	mvn	r3, #24
2003951c:	e50b3008 	str	r3, [fp, #-8]
20039520:	ea000006 	b	20039540 <unl_cpu+0x44>
20039524:	ebfffefe 	bl	20039124 <x_sense_lock>
20039528:	e1a03000 	mov	r3, r0
2003952c:	e3530000 	cmp	r3, #0
20039530:	0a000000 	beq	20039538 <unl_cpu+0x3c>
20039534:	ebfffef1 	bl	20039100 <x_unlock_cpu>
20039538:	e3a03000 	mov	r3, #0
2003953c:	e50b3008 	str	r3, [fp, #-8]
20039540:	e51b3008 	ldr	r3, [fp, #-8]
20039544:	e1a00003 	mov	r0, r3
20039548:	e24bd004 	sub	sp, fp, #4
2003954c:	e8bd8800 	pop	{fp, pc}

20039550 <iunl_cpu>:
20039550:	e92d4800 	push	{fp, lr}
20039554:	e28db004 	add	fp, sp, #4
20039558:	e24dd008 	sub	sp, sp, #8
2003955c:	ebfffed3 	bl	200390b0 <sense_context>
20039560:	e1a03000 	mov	r3, r0
20039564:	e3530000 	cmp	r3, #0
20039568:	1a000002 	bne	20039578 <iunl_cpu+0x28>
2003956c:	e3e03018 	mvn	r3, #24
20039570:	e50b3008 	str	r3, [fp, #-8]
20039574:	ea000006 	b	20039594 <iunl_cpu+0x44>
20039578:	ebfffee9 	bl	20039124 <x_sense_lock>
2003957c:	e1a03000 	mov	r3, r0
20039580:	e3530000 	cmp	r3, #0
20039584:	0a000000 	beq	2003958c <iunl_cpu+0x3c>
20039588:	ebfffedc 	bl	20039100 <x_unlock_cpu>
2003958c:	e3a03000 	mov	r3, #0
20039590:	e50b3008 	str	r3, [fp, #-8]
20039594:	e51b3008 	ldr	r3, [fp, #-8]
20039598:	e1a00003 	mov	r0, r3
2003959c:	e24bd004 	sub	sp, fp, #4
200395a0:	e8bd8800 	pop	{fp, pc}

200395a4 <dis_dsp>:
200395a4:	e92d4800 	push	{fp, lr}
200395a8:	e28db004 	add	fp, sp, #4
200395ac:	e24dd008 	sub	sp, sp, #8
200395b0:	ebfffebe 	bl	200390b0 <sense_context>
200395b4:	e1a03000 	mov	r3, r0
200395b8:	e3530000 	cmp	r3, #0
200395bc:	1a000003 	bne	200395d0 <dis_dsp+0x2c>
200395c0:	ebfffed7 	bl	20039124 <x_sense_lock>
200395c4:	e1a03000 	mov	r3, r0
200395c8:	e3530000 	cmp	r3, #0
200395cc:	0a000002 	beq	200395dc <dis_dsp+0x38>
200395d0:	e3e03018 	mvn	r3, #24
200395d4:	e50b3008 	str	r3, [fp, #-8]
200395d8:	ea00000b 	b	2003960c <dis_dsp+0x68>
200395dc:	ebfffebf 	bl	200390e0 <x_lock_cpu>
200395e0:	e3043094 	movw	r3, #16532	; 0x4094
200395e4:	e3423005 	movt	r3, #8197	; 0x2005
200395e8:	e3a02001 	mov	r2, #1
200395ec:	e5832000 	str	r2, [r3]
200395f0:	e304308c 	movw	r3, #16524	; 0x408c
200395f4:	e3423005 	movt	r3, #8197	; 0x2005
200395f8:	e3a02000 	mov	r2, #0
200395fc:	e5832000 	str	r2, [r3]
20039600:	e3a03000 	mov	r3, #0
20039604:	e50b3008 	str	r3, [fp, #-8]
20039608:	ebfffebc 	bl	20039100 <x_unlock_cpu>
2003960c:	e51b3008 	ldr	r3, [fp, #-8]
20039610:	e1a00003 	mov	r0, r3
20039614:	e24bd004 	sub	sp, fp, #4
20039618:	e8bd8800 	pop	{fp, pc}

2003961c <ena_dsp>:
2003961c:	e92d4800 	push	{fp, lr}
20039620:	e28db004 	add	fp, sp, #4
20039624:	e24dd008 	sub	sp, sp, #8
20039628:	ebfffea0 	bl	200390b0 <sense_context>
2003962c:	e1a03000 	mov	r3, r0
20039630:	e3530000 	cmp	r3, #0
20039634:	1a000003 	bne	20039648 <ena_dsp+0x2c>
20039638:	ebfffeb9 	bl	20039124 <x_sense_lock>
2003963c:	e1a03000 	mov	r3, r0
20039640:	e3530000 	cmp	r3, #0
20039644:	0a000002 	beq	20039654 <ena_dsp+0x38>
20039648:	e3e03018 	mvn	r3, #24
2003964c:	e50b3008 	str	r3, [fp, #-8]
20039650:	ea000018 	b	200396b8 <ena_dsp+0x9c>
20039654:	ebfffea1 	bl	200390e0 <x_lock_cpu>
20039658:	e3043094 	movw	r3, #16532	; 0x4094
2003965c:	e3423005 	movt	r3, #8197	; 0x2005
20039660:	e3a02000 	mov	r2, #0
20039664:	e5832000 	str	r2, [r3]
20039668:	ebfffe74 	bl	20039040 <x_get_ipm>
2003966c:	e1a03000 	mov	r3, r0
20039670:	e3530000 	cmp	r3, #0
20039674:	1a00000c 	bne	200396ac <ena_dsp+0x90>
20039678:	e304308c 	movw	r3, #16524	; 0x408c
2003967c:	e3423005 	movt	r3, #8197	; 0x2005
20039680:	e3a02001 	mov	r2, #1
20039684:	e5832000 	str	r2, [r3]
20039688:	e3043098 	movw	r3, #16536	; 0x4098
2003968c:	e3423005 	movt	r3, #8197	; 0x2005
20039690:	e5932000 	ldr	r2, [r3]
20039694:	e3043004 	movw	r3, #16388	; 0x4004
20039698:	e3423005 	movt	r3, #8197	; 0x2005
2003969c:	e5933000 	ldr	r3, [r3]
200396a0:	e1520003 	cmp	r2, r3
200396a4:	0a000000 	beq	200396ac <ena_dsp+0x90>
200396a8:	ebffe676 	bl	20033088 <_kernel_dispatch>
200396ac:	e3a03000 	mov	r3, #0
200396b0:	e50b3008 	str	r3, [fp, #-8]
200396b4:	ebfffe91 	bl	20039100 <x_unlock_cpu>
200396b8:	e51b3008 	ldr	r3, [fp, #-8]
200396bc:	e1a00003 	mov	r0, r3
200396c0:	e24bd004 	sub	sp, fp, #4
200396c4:	e8bd8800 	pop	{fp, pc}

200396c8 <sns_ctx>:
200396c8:	e92d4800 	push	{fp, lr}
200396cc:	e28db004 	add	fp, sp, #4
200396d0:	e24dd008 	sub	sp, sp, #8
200396d4:	ebfffe75 	bl	200390b0 <sense_context>
200396d8:	e1a03000 	mov	r3, r0
200396dc:	e3530000 	cmp	r3, #0
200396e0:	03a03000 	moveq	r3, #0
200396e4:	13a03001 	movne	r3, #1
200396e8:	e50b3008 	str	r3, [fp, #-8]
200396ec:	e51b3008 	ldr	r3, [fp, #-8]
200396f0:	e1a00003 	mov	r0, r3
200396f4:	e24bd004 	sub	sp, fp, #4
200396f8:	e8bd8800 	pop	{fp, pc}

200396fc <sns_loc>:
200396fc:	e92d4800 	push	{fp, lr}
20039700:	e28db004 	add	fp, sp, #4
20039704:	e24dd008 	sub	sp, sp, #8
20039708:	ebfffe85 	bl	20039124 <x_sense_lock>
2003970c:	e1a03000 	mov	r3, r0
20039710:	e3530000 	cmp	r3, #0
20039714:	03a03000 	moveq	r3, #0
20039718:	13a03001 	movne	r3, #1
2003971c:	e50b3008 	str	r3, [fp, #-8]
20039720:	e51b3008 	ldr	r3, [fp, #-8]
20039724:	e1a00003 	mov	r0, r3
20039728:	e24bd004 	sub	sp, fp, #4
2003972c:	e8bd8800 	pop	{fp, pc}

20039730 <sns_dsp>:
20039730:	e52db004 	push	{fp}		; (str fp, [sp, #-4]!)
20039734:	e28db000 	add	fp, sp, #0
20039738:	e24dd00c 	sub	sp, sp, #12
2003973c:	e3043094 	movw	r3, #16532	; 0x4094
20039740:	e3423005 	movt	r3, #8197	; 0x2005
20039744:	e5933000 	ldr	r3, [r3]
20039748:	e50b3008 	str	r3, [fp, #-8]
2003974c:	e51b3008 	ldr	r3, [fp, #-8]
20039750:	e1a00003 	mov	r0, r3
20039754:	e28bd000 	add	sp, fp, #0
20039758:	e49db004 	pop	{fp}		; (ldr fp, [sp], #4)
2003975c:	e12fff1e 	bx	lr

20039760 <sns_dpn>:
20039760:	e92d4800 	push	{fp, lr}
20039764:	e28db004 	add	fp, sp, #4
20039768:	e24dd008 	sub	sp, sp, #8
2003976c:	ebfffe4f 	bl	200390b0 <sense_context>
20039770:	e1a03000 	mov	r3, r0
20039774:	e3530000 	cmp	r3, #0
20039778:	1a000008 	bne	200397a0 <sns_dpn+0x40>
2003977c:	ebfffe68 	bl	20039124 <x_sense_lock>
20039780:	e1a03000 	mov	r3, r0
20039784:	e3530000 	cmp	r3, #0
20039788:	1a000004 	bne	200397a0 <sns_dpn+0x40>
2003978c:	e304308c 	movw	r3, #16524	; 0x408c
20039790:	e3423005 	movt	r3, #8197	; 0x2005
20039794:	e5933000 	ldr	r3, [r3]
20039798:	e3530000 	cmp	r3, #0
2003979c:	1a000001 	bne	200397a8 <sns_dpn+0x48>
200397a0:	e3a03001 	mov	r3, #1
200397a4:	ea000000 	b	200397ac <sns_dpn+0x4c>
200397a8:	e3a03000 	mov	r3, #0
200397ac:	e50b3008 	str	r3, [fp, #-8]
200397b0:	e51b3008 	ldr	r3, [fp, #-8]
200397b4:	e1a00003 	mov	r0, r3
200397b8:	e24bd004 	sub	sp, fp, #4
200397bc:	e8bd8800 	pop	{fp, pc}

200397c0 <sns_ker>:
200397c0:	e52db004 	push	{fp}		; (str fp, [sp, #-4]!)
200397c4:	e28db000 	add	fp, sp, #0
200397c8:	e24dd00c 	sub	sp, sp, #12
200397cc:	e3013e90 	movw	r3, #7824	; 0x1e90
200397d0:	e3423004 	movt	r3, #8196	; 0x2004
200397d4:	e5933000 	ldr	r3, [r3]
200397d8:	e3530000 	cmp	r3, #0
200397dc:	13a03000 	movne	r3, #0
200397e0:	03a03001 	moveq	r3, #1
200397e4:	e50b3008 	str	r3, [fp, #-8]
200397e8:	e51b3008 	ldr	r3, [fp, #-8]
200397ec:	e1a00003 	mov	r0, r3
200397f0:	e28bd000 	add	sp, fp, #0
200397f4:	e49db004 	pop	{fp}		; (ldr fp, [sp], #4)
200397f8:	e12fff1e 	bx	lr

200397fc <sil_rew_mem>:
200397fc:	e52db004 	push	{fp}		; (str fp, [sp, #-4]!)
20039800:	e28db000 	add	fp, sp, #0
20039804:	e24dd014 	sub	sp, sp, #20
20039808:	e50b0010 	str	r0, [fp, #-16]
2003980c:	e51b3010 	ldr	r3, [fp, #-16]
20039810:	e5933000 	ldr	r3, [r3]
20039814:	e50b3008 	str	r3, [fp, #-8]
20039818:	e51b3008 	ldr	r3, [fp, #-8]
2003981c:	e1a00003 	mov	r0, r3
20039820:	e28bd000 	add	sp, fp, #0
20039824:	e49db004 	pop	{fp}		; (ldr fp, [sp], #4)
20039828:	e12fff1e 	bx	lr

2003982c <sil_wrw_mem>:
2003982c:	e52db004 	push	{fp}		; (str fp, [sp, #-4]!)
20039830:	e28db000 	add	fp, sp, #0
20039834:	e24dd00c 	sub	sp, sp, #12
20039838:	e50b0008 	str	r0, [fp, #-8]
2003983c:	e50b100c 	str	r1, [fp, #-12]
20039840:	e51b3008 	ldr	r3, [fp, #-8]
20039844:	e51b200c 	ldr	r2, [fp, #-12]
20039848:	e5832000 	str	r2, [r3]
2003984c:	e28bd000 	add	sp, fp, #0
20039850:	e49db004 	pop	{fp}		; (ldr fp, [sp], #4)
20039854:	e12fff1e 	bx	lr

20039858 <tzic_unlock>:
20039858:	e92d4800 	push	{fp, lr}
2003985c:	e28db004 	add	fp, sp, #4
20039860:	e30f001c 	movw	r0, #61468	; 0xf01c
20039864:	e3410011 	movt	r0, #4113	; 0x1011
20039868:	e30e1550 	movw	r1, #58704	; 0xe550
2003986c:	e3401acc 	movt	r1, #2764	; 0xacc
20039870:	ebffffed 	bl	2003982c <sil_wrw_mem>
20039874:	e8bd8800 	pop	{fp, pc}

20039878 <tzic_lock>:
20039878:	e92d4800 	push	{fp, lr}
2003987c:	e28db004 	add	fp, sp, #4
20039880:	e30f001c 	movw	r0, #61468	; 0xf01c
20039884:	e3410011 	movt	r0, #4113	; 0x1011
20039888:	e3a01000 	mov	r1, #0
2003988c:	ebffffe6 	bl	2003982c <sil_wrw_mem>
20039890:	e8bd8800 	pop	{fp, pc}

20039894 <tzic_disable_int>:
20039894:	e92d4800 	push	{fp, lr}
20039898:	e28db004 	add	fp, sp, #4
2003989c:	e24dd008 	sub	sp, sp, #8
200398a0:	e50b0008 	str	r0, [fp, #-8]
200398a4:	ebffffeb 	bl	20039858 <tzic_unlock>
200398a8:	e30f0010 	movw	r0, #61456	; 0xf010
200398ac:	e3410011 	movt	r0, #4113	; 0x1011
200398b0:	ebffffd1 	bl	200397fc <sil_rew_mem>
200398b4:	e1a02000 	mov	r2, r0
200398b8:	e51b3008 	ldr	r3, [fp, #-8]
200398bc:	e1823003 	orr	r3, r2, r3
200398c0:	e30f0010 	movw	r0, #61456	; 0xf010
200398c4:	e3410011 	movt	r0, #4113	; 0x1011
200398c8:	e1a01003 	mov	r1, r3
200398cc:	ebffffd6 	bl	2003982c <sil_wrw_mem>
200398d0:	ebffffe8 	bl	20039878 <tzic_lock>
200398d4:	e24bd004 	sub	sp, fp, #4
200398d8:	e8bd8800 	pop	{fp, pc}

200398dc <tzic_enable_int>:
200398dc:	e92d4800 	push	{fp, lr}
200398e0:	e28db004 	add	fp, sp, #4
200398e4:	e24dd008 	sub	sp, sp, #8
200398e8:	e50b0008 	str	r0, [fp, #-8]
200398ec:	ebffffd9 	bl	20039858 <tzic_unlock>
200398f0:	e30f000c 	movw	r0, #61452	; 0xf00c
200398f4:	e3410011 	movt	r0, #4113	; 0x1011
200398f8:	ebffffbf 	bl	200397fc <sil_rew_mem>
200398fc:	e1a02000 	mov	r2, r0
20039900:	e51b3008 	ldr	r3, [fp, #-8]
20039904:	e1823003 	orr	r3, r2, r3
20039908:	e30f000c 	movw	r0, #61452	; 0xf00c
2003990c:	e3410011 	movt	r0, #4113	; 0x1011
20039910:	e1a01003 	mov	r1, r3
20039914:	ebffffc4 	bl	2003982c <sil_wrw_mem>
20039918:	ebffffd6 	bl	20039878 <tzic_lock>
2003991c:	e24bd004 	sub	sp, fp, #4
20039920:	e8bd8800 	pop	{fp, pc}

20039924 <x_define_inh>:
20039924:	e52db004 	push	{fp}		; (str fp, [sp, #-4]!)
20039928:	e28db000 	add	fp, sp, #0
2003992c:	e24dd00c 	sub	sp, sp, #12
20039930:	e50b0008 	str	r0, [fp, #-8]
20039934:	e50b100c 	str	r1, [fp, #-12]
20039938:	e28bd000 	add	sp, fp, #0
2003993c:	e49db004 	pop	{fp}		; (ldr fp, [sp], #4)
20039940:	e12fff1e 	bx	lr

20039944 <x_set_ipm>:
20039944:	e92d4800 	push	{fp, lr}
20039948:	e28db004 	add	fp, sp, #4
2003994c:	e24dd010 	sub	sp, sp, #16
20039950:	e50b0010 	str	r0, [fp, #-16]
20039954:	e51b3010 	ldr	r3, [fp, #-16]
20039958:	e3530000 	cmp	r3, #0
2003995c:	1a000002 	bne	2003996c <x_set_ipm+0x28>
20039960:	e3a03000 	mov	r3, #0
20039964:	e50b3008 	str	r3, [fp, #-8]
20039968:	ea000005 	b	20039984 <x_set_ipm+0x40>
2003996c:	e51b3010 	ldr	r3, [fp, #-16]
20039970:	e1e02003 	mvn	r2, r3
20039974:	e30a3fec 	movw	r3, #45036	; 0xafec
20039978:	e3423003 	movt	r3, #8195	; 0x2003
2003997c:	e7933102 	ldr	r3, [r3, r2, lsl #2]
20039980:	e50b3008 	str	r3, [fp, #-8]
20039984:	e3e00000 	mvn	r0, #0
20039988:	ebffffc1 	bl	20039894 <tzic_disable_int>
2003998c:	e3013fac 	movw	r3, #8108	; 0x1fac
20039990:	e3423004 	movt	r3, #8196	; 0x2004
20039994:	e5932000 	ldr	r2, [r3]
20039998:	e51b3008 	ldr	r3, [fp, #-8]
2003999c:	e1823003 	orr	r3, r2, r3
200399a0:	e1e03003 	mvn	r3, r3
200399a4:	e1a00003 	mov	r0, r3
200399a8:	ebffffcb 	bl	200398dc <tzic_enable_int>
200399ac:	e3013fa8 	movw	r3, #8104	; 0x1fa8
200399b0:	e3423004 	movt	r3, #8196	; 0x2004
200399b4:	e51b2010 	ldr	r2, [fp, #-16]
200399b8:	e5832000 	str	r2, [r3]
200399bc:	e24bd004 	sub	sp, fp, #4
200399c0:	e8bd8800 	pop	{fp, pc}

200399c4 <x_get_ipm>:
200399c4:	e52db004 	push	{fp}		; (str fp, [sp, #-4]!)
200399c8:	e28db000 	add	fp, sp, #0
200399cc:	e3013fa8 	movw	r3, #8104	; 0x1fa8
200399d0:	e3423004 	movt	r3, #8196	; 0x2004
200399d4:	e5933000 	ldr	r3, [r3]
200399d8:	e1a00003 	mov	r0, r3
200399dc:	e28bd000 	add	sp, fp, #0
200399e0:	e49db004 	pop	{fp}		; (ldr fp, [sp], #4)
200399e4:	e12fff1e 	bx	lr

200399e8 <x_disable_int>:
200399e8:	e92d4800 	push	{fp, lr}
200399ec:	e28db004 	add	fp, sp, #4
200399f0:	e24dd008 	sub	sp, sp, #8
200399f4:	e50b0008 	str	r0, [fp, #-8]
200399f8:	e51b3008 	ldr	r3, [fp, #-8]
200399fc:	e3a02001 	mov	r2, #1
20039a00:	e1a02312 	lsl	r2, r2, r3
20039a04:	e3013fa4 	movw	r3, #8100	; 0x1fa4
20039a08:	e3423004 	movt	r3, #8196	; 0x2004
20039a0c:	e5933000 	ldr	r3, [r3]
20039a10:	e0023003 	and	r3, r2, r3
20039a14:	e3530000 	cmp	r3, #0
20039a18:	1a000001 	bne	20039a24 <x_disable_int+0x3c>
20039a1c:	e3a03000 	mov	r3, #0
20039a20:	ea00000f 	b	20039a64 <x_disable_int+0x7c>
20039a24:	e51b3008 	ldr	r3, [fp, #-8]
20039a28:	e3a02001 	mov	r2, #1
20039a2c:	e1a03312 	lsl	r3, r2, r3
20039a30:	e1a00003 	mov	r0, r3
20039a34:	ebffff96 	bl	20039894 <tzic_disable_int>
20039a38:	e51b3008 	ldr	r3, [fp, #-8]
20039a3c:	e3a02001 	mov	r2, #1
20039a40:	e1a02312 	lsl	r2, r2, r3
20039a44:	e3013fac 	movw	r3, #8108	; 0x1fac
20039a48:	e3423004 	movt	r3, #8196	; 0x2004
20039a4c:	e5933000 	ldr	r3, [r3]
20039a50:	e1822003 	orr	r2, r2, r3
20039a54:	e3013fac 	movw	r3, #8108	; 0x1fac
20039a58:	e3423004 	movt	r3, #8196	; 0x2004
20039a5c:	e5832000 	str	r2, [r3]
20039a60:	e3a03001 	mov	r3, #1
20039a64:	e1a00003 	mov	r0, r3
20039a68:	e24bd004 	sub	sp, fp, #4
20039a6c:	e8bd8800 	pop	{fp, pc}

20039a70 <x_enable_int>:
20039a70:	e92d4800 	push	{fp, lr}
20039a74:	e28db004 	add	fp, sp, #4
20039a78:	e24dd008 	sub	sp, sp, #8
20039a7c:	e50b0008 	str	r0, [fp, #-8]
20039a80:	e51b3008 	ldr	r3, [fp, #-8]
20039a84:	e3a02001 	mov	r2, #1
20039a88:	e1a02312 	lsl	r2, r2, r3
20039a8c:	e3013fa4 	movw	r3, #8100	; 0x1fa4
20039a90:	e3423004 	movt	r3, #8196	; 0x2004
20039a94:	e5933000 	ldr	r3, [r3]
20039a98:	e0023003 	and	r3, r2, r3
20039a9c:	e3530000 	cmp	r3, #0
20039aa0:	1a000001 	bne	20039aac <x_enable_int+0x3c>
20039aa4:	e3a03000 	mov	r3, #0
20039aa8:	ea000010 	b	20039af0 <x_enable_int+0x80>
20039aac:	e51b3008 	ldr	r3, [fp, #-8]
20039ab0:	e3a02001 	mov	r2, #1
20039ab4:	e1a03312 	lsl	r3, r2, r3
20039ab8:	e1a00003 	mov	r0, r3
20039abc:	ebffff86 	bl	200398dc <tzic_enable_int>
20039ac0:	e51b3008 	ldr	r3, [fp, #-8]
20039ac4:	e3a02001 	mov	r2, #1
20039ac8:	e1a03312 	lsl	r3, r2, r3
20039acc:	e1e02003 	mvn	r2, r3
20039ad0:	e3013fac 	movw	r3, #8108	; 0x1fac
20039ad4:	e3423004 	movt	r3, #8196	; 0x2004
20039ad8:	e5933000 	ldr	r3, [r3]
20039adc:	e0022003 	and	r2, r2, r3
20039ae0:	e3013fac 	movw	r3, #8108	; 0x1fac
20039ae4:	e3423004 	movt	r3, #8196	; 0x2004
20039ae8:	e5832000 	str	r2, [r3]
20039aec:	e3a03001 	mov	r3, #1
20039af0:	e1a00003 	mov	r0, r3
20039af4:	e24bd004 	sub	sp, fp, #4
20039af8:	e8bd8800 	pop	{fp, pc}

20039afc <current_sr>:
20039afc:	e92d0810 	push	{r4, fp}
20039b00:	e28db004 	add	fp, sp, #4
20039b04:	e24dd008 	sub	sp, sp, #8
20039b08:	e10f4000 	mrs	r4, CPSR
20039b0c:	e50b4008 	str	r4, [fp, #-8]
20039b10:	e51b3008 	ldr	r3, [fp, #-8]
20039b14:	e1a00003 	mov	r0, r3
20039b18:	e24bd004 	sub	sp, fp, #4
20039b1c:	e8bd0810 	pop	{r4, fp}
20039b20:	e12fff1e 	bx	lr

20039b24 <set_sr>:
20039b24:	e52db004 	push	{fp}		; (str fp, [sp, #-4]!)
20039b28:	e28db000 	add	fp, sp, #0
20039b2c:	e24dd00c 	sub	sp, sp, #12
20039b30:	e50b0008 	str	r0, [fp, #-8]
20039b34:	e51b3008 	ldr	r3, [fp, #-8]
20039b38:	e129f003 	msr	CPSR_fc, r3
20039b3c:	e28bd000 	add	sp, fp, #0
20039b40:	e49db004 	pop	{fp}		; (ldr fp, [sp], #4)
20039b44:	e12fff1e 	bx	lr

20039b48 <sense_context>:
20039b48:	e52db004 	push	{fp}		; (str fp, [sp, #-4]!)
20039b4c:	e28db000 	add	fp, sp, #0
20039b50:	e3043000 	movw	r3, #16384	; 0x4000
20039b54:	e3423005 	movt	r3, #8197	; 0x2005
20039b58:	e5933000 	ldr	r3, [r3]
20039b5c:	e3530000 	cmp	r3, #0
20039b60:	03a03000 	moveq	r3, #0
20039b64:	13a03001 	movne	r3, #1
20039b68:	e1a00003 	mov	r0, r3
20039b6c:	e28bd000 	add	sp, fp, #0
20039b70:	e49db004 	pop	{fp}		; (ldr fp, [sp], #4)
20039b74:	e12fff1e 	bx	lr

20039b78 <x_lock_cpu>:
20039b78:	e92d4800 	push	{fp, lr}
20039b7c:	e28db004 	add	fp, sp, #4
20039b80:	ebffffdd 	bl	20039afc <current_sr>
20039b84:	e1a03000 	mov	r3, r0
20039b88:	e38330c0 	orr	r3, r3, #192	; 0xc0
20039b8c:	e1a00003 	mov	r0, r3
20039b90:	ebffffe3 	bl	20039b24 <set_sr>
20039b94:	e8bd8800 	pop	{fp, pc}

20039b98 <x_unlock_cpu>:
20039b98:	e92d4800 	push	{fp, lr}
20039b9c:	e28db004 	add	fp, sp, #4
20039ba0:	ebffffd5 	bl	20039afc <current_sr>
20039ba4:	e1a03000 	mov	r3, r0
20039ba8:	e3c330c0 	bic	r3, r3, #192	; 0xc0
20039bac:	e3833080 	orr	r3, r3, #128	; 0x80
20039bb0:	e1a00003 	mov	r0, r3
20039bb4:	ebffffda 	bl	20039b24 <set_sr>
20039bb8:	e8bd8800 	pop	{fp, pc}

20039bbc <x_sense_lock>:
20039bbc:	e92d4800 	push	{fp, lr}
20039bc0:	e28db004 	add	fp, sp, #4
20039bc4:	ebffffcc 	bl	20039afc <current_sr>
20039bc8:	e1a03000 	mov	r3, r0
20039bcc:	e20330c0 	and	r3, r3, #192	; 0xc0
20039bd0:	e35300c0 	cmp	r3, #192	; 0xc0
20039bd4:	13a03000 	movne	r3, #0
20039bd8:	03a03001 	moveq	r3, #1
20039bdc:	e1a00003 	mov	r0, r3
20039be0:	e8bd8800 	pop	{fp, pc}

20039be4 <_kernel_initialize_interrupt>:
20039be4:	e92d4800 	push	{fp, lr}
20039be8:	e28db004 	add	fp, sp, #4
20039bec:	e24dd010 	sub	sp, sp, #16
20039bf0:	e30a3ef4 	movw	r3, #44788	; 0xaef4
20039bf4:	e3423003 	movt	r3, #8195	; 0x2003
20039bf8:	e50b300c 	str	r3, [fp, #-12]
20039bfc:	e3a03000 	mov	r3, #0
20039c00:	e50b3008 	str	r3, [fp, #-8]
20039c04:	ea00000c 	b	20039c3c <_kernel_initialize_interrupt+0x58>
20039c08:	e51b300c 	ldr	r3, [fp, #-12]
20039c0c:	e5932000 	ldr	r2, [r3]
20039c10:	e51b300c 	ldr	r3, [fp, #-12]
20039c14:	e5933008 	ldr	r3, [r3, #8]
20039c18:	e1a00002 	mov	r0, r2
20039c1c:	e1a01003 	mov	r1, r3
20039c20:	ebffff3f 	bl	20039924 <x_define_inh>
20039c24:	e51b300c 	ldr	r3, [fp, #-12]
20039c28:	e283300c 	add	r3, r3, #12
20039c2c:	e50b300c 	str	r3, [fp, #-12]
20039c30:	e51b3008 	ldr	r3, [fp, #-8]
20039c34:	e2833001 	add	r3, r3, #1
20039c38:	e50b3008 	str	r3, [fp, #-8]
20039c3c:	e30a3ef0 	movw	r3, #44784	; 0xaef0
20039c40:	e3423003 	movt	r3, #8195	; 0x2003
20039c44:	e5933000 	ldr	r3, [r3]
20039c48:	e51b2008 	ldr	r2, [fp, #-8]
20039c4c:	e1520003 	cmp	r2, r3
20039c50:	3affffec 	bcc	20039c08 <_kernel_initialize_interrupt+0x24>
20039c54:	e30a3f1c 	movw	r3, #44828	; 0xaf1c
20039c58:	e3423003 	movt	r3, #8195	; 0x2003
20039c5c:	e50b3010 	str	r3, [fp, #-16]
20039c60:	e3a03000 	mov	r3, #0
20039c64:	e50b3008 	str	r3, [fp, #-8]
20039c68:	ea00000f 	b	20039cac <_kernel_initialize_interrupt+0xc8>
20039c6c:	e51b3010 	ldr	r3, [fp, #-16]
20039c70:	e5931000 	ldr	r1, [r3]
20039c74:	e51b3010 	ldr	r3, [fp, #-16]
20039c78:	e5932004 	ldr	r2, [r3, #4]
20039c7c:	e51b3010 	ldr	r3, [fp, #-16]
20039c80:	e5933008 	ldr	r3, [r3, #8]
20039c84:	e1a00001 	mov	r0, r1
20039c88:	e1a01002 	mov	r1, r2
20039c8c:	e1a02003 	mov	r2, r3
20039c90:	ebffe6ff 	bl	20033894 <_kernel_x_config_int>
20039c94:	e51b3010 	ldr	r3, [fp, #-16]
20039c98:	e283300c 	add	r3, r3, #12
20039c9c:	e50b3010 	str	r3, [fp, #-16]
20039ca0:	e51b3008 	ldr	r3, [fp, #-8]
20039ca4:	e2833001 	add	r3, r3, #1
20039ca8:	e50b3008 	str	r3, [fp, #-8]
20039cac:	e30a3f18 	movw	r3, #44824	; 0xaf18
20039cb0:	e3423003 	movt	r3, #8195	; 0x2003
20039cb4:	e5933000 	ldr	r3, [r3]
20039cb8:	e51b2008 	ldr	r2, [fp, #-8]
20039cbc:	e1520003 	cmp	r2, r3
20039cc0:	3affffe9 	bcc	20039c6c <_kernel_initialize_interrupt+0x88>
20039cc4:	e24bd004 	sub	sp, fp, #4
20039cc8:	e8bd8800 	pop	{fp, pc}

20039ccc <dis_int>:
20039ccc:	e92d4800 	push	{fp, lr}
20039cd0:	e28db004 	add	fp, sp, #4
20039cd4:	e24dd010 	sub	sp, sp, #16
20039cd8:	e50b0010 	str	r0, [fp, #-16]
20039cdc:	ebffff99 	bl	20039b48 <sense_context>
20039ce0:	e1a03000 	mov	r3, r0
20039ce4:	e3530000 	cmp	r3, #0
20039ce8:	0a000002 	beq	20039cf8 <dis_int+0x2c>
20039cec:	e3e03018 	mvn	r3, #24
20039cf0:	e50b3008 	str	r3, [fp, #-8]
20039cf4:	ea000019 	b	20039d60 <dis_int+0x94>
20039cf8:	e51b3010 	ldr	r3, [fp, #-16]
20039cfc:	e353001f 	cmp	r3, #31
20039d00:	9a000002 	bls	20039d10 <dis_int+0x44>
20039d04:	e3e03010 	mvn	r3, #16
20039d08:	e50b3008 	str	r3, [fp, #-8]
20039d0c:	ea000013 	b	20039d60 <dis_int+0x94>
20039d10:	ebffffa9 	bl	20039bbc <x_sense_lock>
20039d14:	e50b000c 	str	r0, [fp, #-12]
20039d18:	e51b300c 	ldr	r3, [fp, #-12]
20039d1c:	e3530000 	cmp	r3, #0
20039d20:	1a000000 	bne	20039d28 <dis_int+0x5c>
20039d24:	ebffff93 	bl	20039b78 <x_lock_cpu>
20039d28:	e51b0010 	ldr	r0, [fp, #-16]
20039d2c:	ebffff2d 	bl	200399e8 <x_disable_int>
20039d30:	e1a03000 	mov	r3, r0
20039d34:	e3530000 	cmp	r3, #0
20039d38:	0a000002 	beq	20039d48 <dis_int+0x7c>
20039d3c:	e3a03000 	mov	r3, #0
20039d40:	e50b3008 	str	r3, [fp, #-8]
20039d44:	ea000001 	b	20039d50 <dis_int+0x84>
20039d48:	e3e03028 	mvn	r3, #40	; 0x28
20039d4c:	e50b3008 	str	r3, [fp, #-8]
20039d50:	e51b300c 	ldr	r3, [fp, #-12]
20039d54:	e3530000 	cmp	r3, #0
20039d58:	1a000000 	bne	20039d60 <dis_int+0x94>
20039d5c:	ebffff8d 	bl	20039b98 <x_unlock_cpu>
20039d60:	e51b3008 	ldr	r3, [fp, #-8]
20039d64:	e1a00003 	mov	r0, r3
20039d68:	e24bd004 	sub	sp, fp, #4
20039d6c:	e8bd8800 	pop	{fp, pc}

20039d70 <ena_int>:
20039d70:	e92d4800 	push	{fp, lr}
20039d74:	e28db004 	add	fp, sp, #4
20039d78:	e24dd010 	sub	sp, sp, #16
20039d7c:	e50b0010 	str	r0, [fp, #-16]
20039d80:	ebffff70 	bl	20039b48 <sense_context>
20039d84:	e1a03000 	mov	r3, r0
20039d88:	e3530000 	cmp	r3, #0
20039d8c:	0a000002 	beq	20039d9c <ena_int+0x2c>
20039d90:	e3e03018 	mvn	r3, #24
20039d94:	e50b3008 	str	r3, [fp, #-8]
20039d98:	ea000019 	b	20039e04 <ena_int+0x94>
20039d9c:	e51b3010 	ldr	r3, [fp, #-16]
20039da0:	e353001f 	cmp	r3, #31
20039da4:	9a000002 	bls	20039db4 <ena_int+0x44>
20039da8:	e3e03010 	mvn	r3, #16
20039dac:	e50b3008 	str	r3, [fp, #-8]
20039db0:	ea000013 	b	20039e04 <ena_int+0x94>
20039db4:	ebffff80 	bl	20039bbc <x_sense_lock>
20039db8:	e50b000c 	str	r0, [fp, #-12]
20039dbc:	e51b300c 	ldr	r3, [fp, #-12]
20039dc0:	e3530000 	cmp	r3, #0
20039dc4:	1a000000 	bne	20039dcc <ena_int+0x5c>
20039dc8:	ebffff6a 	bl	20039b78 <x_lock_cpu>
20039dcc:	e51b0010 	ldr	r0, [fp, #-16]
20039dd0:	ebffff26 	bl	20039a70 <x_enable_int>
20039dd4:	e1a03000 	mov	r3, r0
20039dd8:	e3530000 	cmp	r3, #0
20039ddc:	0a000002 	beq	20039dec <ena_int+0x7c>
20039de0:	e3a03000 	mov	r3, #0
20039de4:	e50b3008 	str	r3, [fp, #-8]
20039de8:	ea000001 	b	20039df4 <ena_int+0x84>
20039dec:	e3e03028 	mvn	r3, #40	; 0x28
20039df0:	e50b3008 	str	r3, [fp, #-8]
20039df4:	e51b300c 	ldr	r3, [fp, #-12]
20039df8:	e3530000 	cmp	r3, #0
20039dfc:	1a000000 	bne	20039e04 <ena_int+0x94>
20039e00:	ebffff64 	bl	20039b98 <x_unlock_cpu>
20039e04:	e51b3008 	ldr	r3, [fp, #-8]
20039e08:	e1a00003 	mov	r0, r3
20039e0c:	e24bd004 	sub	sp, fp, #4
20039e10:	e8bd8800 	pop	{fp, pc}

20039e14 <chg_ipm>:
20039e14:	e92d4800 	push	{fp, lr}
20039e18:	e28db004 	add	fp, sp, #4
20039e1c:	e24dd010 	sub	sp, sp, #16
20039e20:	e50b0010 	str	r0, [fp, #-16]
20039e24:	ebffff47 	bl	20039b48 <sense_context>
20039e28:	e1a03000 	mov	r3, r0
20039e2c:	e3530000 	cmp	r3, #0
20039e30:	1a000003 	bne	20039e44 <chg_ipm+0x30>
20039e34:	ebffff60 	bl	20039bbc <x_sense_lock>
20039e38:	e1a03000 	mov	r3, r0
20039e3c:	e3530000 	cmp	r3, #0
20039e40:	0a000002 	beq	20039e50 <chg_ipm+0x3c>
20039e44:	e3e03018 	mvn	r3, #24
20039e48:	e50b3008 	str	r3, [fp, #-8]
20039e4c:	ea000028 	b	20039ef4 <chg_ipm+0xe0>
20039e50:	e51b3010 	ldr	r3, [fp, #-16]
20039e54:	e3730020 	cmn	r3, #32
20039e58:	ba000002 	blt	20039e68 <chg_ipm+0x54>
20039e5c:	e51b3010 	ldr	r3, [fp, #-16]
20039e60:	e3530000 	cmp	r3, #0
20039e64:	da000002 	ble	20039e74 <chg_ipm+0x60>
20039e68:	e3e03010 	mvn	r3, #16
20039e6c:	e50b3008 	str	r3, [fp, #-8]
20039e70:	ea00001f 	b	20039ef4 <chg_ipm+0xe0>
20039e74:	ebffff3f 	bl	20039b78 <x_lock_cpu>
20039e78:	e51b0010 	ldr	r0, [fp, #-16]
20039e7c:	ebfffeb0 	bl	20039944 <x_set_ipm>
20039e80:	e51b3010 	ldr	r3, [fp, #-16]
20039e84:	e3530000 	cmp	r3, #0
20039e88:	0a000004 	beq	20039ea0 <chg_ipm+0x8c>
20039e8c:	e304308c 	movw	r3, #16524	; 0x408c
20039e90:	e3423005 	movt	r3, #8197	; 0x2005
20039e94:	e3a02000 	mov	r2, #0
20039e98:	e5832000 	str	r2, [r3]
20039e9c:	ea000011 	b	20039ee8 <chg_ipm+0xd4>
20039ea0:	e3043094 	movw	r3, #16532	; 0x4094
20039ea4:	e3423005 	movt	r3, #8197	; 0x2005
20039ea8:	e5933000 	ldr	r3, [r3]
20039eac:	e3530000 	cmp	r3, #0
20039eb0:	1a00000c 	bne	20039ee8 <chg_ipm+0xd4>
20039eb4:	e304308c 	movw	r3, #16524	; 0x408c
20039eb8:	e3423005 	movt	r3, #8197	; 0x2005
20039ebc:	e3a02001 	mov	r2, #1
20039ec0:	e5832000 	str	r2, [r3]
20039ec4:	e3043098 	movw	r3, #16536	; 0x4098
20039ec8:	e3423005 	movt	r3, #8197	; 0x2005
20039ecc:	e5932000 	ldr	r2, [r3]
20039ed0:	e3043004 	movw	r3, #16388	; 0x4004
20039ed4:	e3423005 	movt	r3, #8197	; 0x2005
20039ed8:	e5933000 	ldr	r3, [r3]
20039edc:	e1520003 	cmp	r2, r3
20039ee0:	0a000000 	beq	20039ee8 <chg_ipm+0xd4>
20039ee4:	ebffe467 	bl	20033088 <_kernel_dispatch>
20039ee8:	e3a03000 	mov	r3, #0
20039eec:	e50b3008 	str	r3, [fp, #-8]
20039ef0:	ebffff28 	bl	20039b98 <x_unlock_cpu>
20039ef4:	e51b3008 	ldr	r3, [fp, #-8]
20039ef8:	e1a00003 	mov	r0, r3
20039efc:	e24bd004 	sub	sp, fp, #4
20039f00:	e8bd8800 	pop	{fp, pc}

20039f04 <get_ipm>:
20039f04:	e92d4800 	push	{fp, lr}
20039f08:	e28db004 	add	fp, sp, #4
20039f0c:	e24dd010 	sub	sp, sp, #16
20039f10:	e50b0010 	str	r0, [fp, #-16]
20039f14:	ebffff0b 	bl	20039b48 <sense_context>
20039f18:	e1a03000 	mov	r3, r0
20039f1c:	e3530000 	cmp	r3, #0
20039f20:	1a000003 	bne	20039f34 <get_ipm+0x30>
20039f24:	ebffff24 	bl	20039bbc <x_sense_lock>
20039f28:	e1a03000 	mov	r3, r0
20039f2c:	e3530000 	cmp	r3, #0
20039f30:	0a000002 	beq	20039f40 <get_ipm+0x3c>
20039f34:	e3e03018 	mvn	r3, #24
20039f38:	e50b3008 	str	r3, [fp, #-8]
20039f3c:	ea000007 	b	20039f60 <get_ipm+0x5c>
20039f40:	ebffff0c 	bl	20039b78 <x_lock_cpu>
20039f44:	ebfffe9e 	bl	200399c4 <x_get_ipm>
20039f48:	e1a02000 	mov	r2, r0
20039f4c:	e51b3010 	ldr	r3, [fp, #-16]
20039f50:	e5832000 	str	r2, [r3]
20039f54:	e3a03000 	mov	r3, #0
20039f58:	e50b3008 	str	r3, [fp, #-8]
20039f5c:	ebffff0d 	bl	20039b98 <x_unlock_cpu>
20039f60:	e51b3008 	ldr	r3, [fp, #-8]
20039f64:	e1a00003 	mov	r0, r3
20039f68:	e24bd004 	sub	sp, fp, #4
20039f6c:	e8bd8800 	pop	{fp, pc}

20039f70 <TOPPERS_assert_abort>:
20039f70:	e52db004 	push	{fp}		; (str fp, [sp, #-4]!)
20039f74:	e28db000 	add	fp, sp, #0
20039f78:	eafffffe 	b	20039f78 <TOPPERS_assert_abort+0x8>

20039f7c <_syslog_3>:
20039f7c:	e92d4800 	push	{fp, lr}
20039f80:	e28db004 	add	fp, sp, #4
20039f84:	e24dd040 	sub	sp, sp, #64	; 0x40
20039f88:	e50b0038 	str	r0, [fp, #-56]	; 0xffffffc8
20039f8c:	e50b103c 	str	r1, [fp, #-60]	; 0xffffffc4
20039f90:	e50b2040 	str	r2, [fp, #-64]	; 0xffffffc0
20039f94:	e50b3044 	str	r3, [fp, #-68]	; 0xffffffbc
20039f98:	e51b303c 	ldr	r3, [fp, #-60]	; 0xffffffc4
20039f9c:	e50b3034 	str	r3, [fp, #-52]	; 0xffffffcc
20039fa0:	e51b3040 	ldr	r3, [fp, #-64]	; 0xffffffc0
20039fa4:	e50b302c 	str	r3, [fp, #-44]	; 0xffffffd4
20039fa8:	e51b3044 	ldr	r3, [fp, #-68]	; 0xffffffbc
20039fac:	e50b3028 	str	r3, [fp, #-40]	; 0xffffffd8
20039fb0:	e59b3004 	ldr	r3, [fp, #4]
20039fb4:	e50b3024 	str	r3, [fp, #-36]	; 0xffffffdc
20039fb8:	e24b3034 	sub	r3, fp, #52	; 0x34
20039fbc:	e51b0038 	ldr	r0, [fp, #-56]	; 0xffffffc8
20039fc0:	e1a01003 	mov	r1, r3
20039fc4:	ebffd98e 	bl	20030604 <syslog_wri_log>
20039fc8:	e24bd004 	sub	sp, fp, #4
20039fcc:	e8bd8800 	pop	{fp, pc}

20039fd0 <current_sr>:
20039fd0:	e92d0810 	push	{r4, fp}
20039fd4:	e28db004 	add	fp, sp, #4
20039fd8:	e24dd008 	sub	sp, sp, #8
20039fdc:	e10f4000 	mrs	r4, CPSR
20039fe0:	e50b4008 	str	r4, [fp, #-8]
20039fe4:	e51b3008 	ldr	r3, [fp, #-8]
20039fe8:	e1a00003 	mov	r0, r3
20039fec:	e24bd004 	sub	sp, fp, #4
20039ff0:	e8bd0810 	pop	{r4, fp}
20039ff4:	e12fff1e 	bx	lr

20039ff8 <set_sr>:
20039ff8:	e52db004 	push	{fp}		; (str fp, [sp, #-4]!)
20039ffc:	e28db000 	add	fp, sp, #0
2003a000:	e24dd00c 	sub	sp, sp, #12
2003a004:	e50b0008 	str	r0, [fp, #-8]
2003a008:	e51b3008 	ldr	r3, [fp, #-8]
2003a00c:	e129f003 	msr	CPSR_fc, r3
2003a010:	e28bd000 	add	sp, fp, #0
2003a014:	e49db004 	pop	{fp}		; (ldr fp, [sp], #4)
2003a018:	e12fff1e 	bx	lr

2003a01c <x_lock_cpu>:
2003a01c:	e92d4800 	push	{fp, lr}
2003a020:	e28db004 	add	fp, sp, #4
2003a024:	ebffffe9 	bl	20039fd0 <current_sr>
2003a028:	e1a03000 	mov	r3, r0
2003a02c:	e38330c0 	orr	r3, r3, #192	; 0xc0
2003a030:	e1a00003 	mov	r0, r3
2003a034:	ebffffef 	bl	20039ff8 <set_sr>
2003a038:	e8bd8800 	pop	{fp, pc}

2003a03c <x_unlock_cpu>:
2003a03c:	e92d4800 	push	{fp, lr}
2003a040:	e28db004 	add	fp, sp, #4
2003a044:	ebffffe1 	bl	20039fd0 <current_sr>
2003a048:	e1a03000 	mov	r3, r0
2003a04c:	e3c330c0 	bic	r3, r3, #192	; 0xc0
2003a050:	e3833080 	orr	r3, r3, #128	; 0x80
2003a054:	e1a00003 	mov	r0, r3
2003a058:	ebffffe6 	bl	20039ff8 <set_sr>
2003a05c:	e8bd8800 	pop	{fp, pc}

2003a060 <queue_insert_prev>:
2003a060:	e52db004 	push	{fp}		; (str fp, [sp, #-4]!)
2003a064:	e28db000 	add	fp, sp, #0
2003a068:	e24dd00c 	sub	sp, sp, #12
2003a06c:	e50b0008 	str	r0, [fp, #-8]
2003a070:	e50b100c 	str	r1, [fp, #-12]
2003a074:	e51b3008 	ldr	r3, [fp, #-8]
2003a078:	e5932004 	ldr	r2, [r3, #4]
2003a07c:	e51b300c 	ldr	r3, [fp, #-12]
2003a080:	e5832004 	str	r2, [r3, #4]
2003a084:	e51b300c 	ldr	r3, [fp, #-12]
2003a088:	e51b2008 	ldr	r2, [fp, #-8]
2003a08c:	e5832000 	str	r2, [r3]
2003a090:	e51b3008 	ldr	r3, [fp, #-8]
2003a094:	e5933004 	ldr	r3, [r3, #4]
2003a098:	e51b200c 	ldr	r2, [fp, #-12]
2003a09c:	e5832000 	str	r2, [r3]
2003a0a0:	e51b3008 	ldr	r3, [fp, #-8]
2003a0a4:	e51b200c 	ldr	r2, [fp, #-12]
2003a0a8:	e5832004 	str	r2, [r3, #4]
2003a0ac:	e28bd000 	add	sp, fp, #0
2003a0b0:	e49db004 	pop	{fp}		; (ldr fp, [sp], #4)
2003a0b4:	e12fff1e 	bx	lr

2003a0b8 <queue_delete>:
2003a0b8:	e52db004 	push	{fp}		; (str fp, [sp, #-4]!)
2003a0bc:	e28db000 	add	fp, sp, #0
2003a0c0:	e24dd00c 	sub	sp, sp, #12
2003a0c4:	e50b0008 	str	r0, [fp, #-8]
2003a0c8:	e51b3008 	ldr	r3, [fp, #-8]
2003a0cc:	e5933004 	ldr	r3, [r3, #4]
2003a0d0:	e51b2008 	ldr	r2, [fp, #-8]
2003a0d4:	e5922000 	ldr	r2, [r2]
2003a0d8:	e5832000 	str	r2, [r3]
2003a0dc:	e51b3008 	ldr	r3, [fp, #-8]
2003a0e0:	e5933000 	ldr	r3, [r3]
2003a0e4:	e51b2008 	ldr	r2, [fp, #-8]
2003a0e8:	e5922004 	ldr	r2, [r2, #4]
2003a0ec:	e5832004 	str	r2, [r3, #4]
2003a0f0:	e28bd000 	add	sp, fp, #0
2003a0f4:	e49db004 	pop	{fp}		; (ldr fp, [sp], #4)
2003a0f8:	e12fff1e 	bx	lr

2003a0fc <queue_delete_next>:
2003a0fc:	e92d4800 	push	{fp, lr}
2003a100:	e28db004 	add	fp, sp, #4
2003a104:	e24dd018 	sub	sp, sp, #24
2003a108:	e50b0010 	str	r0, [fp, #-16]
2003a10c:	e51b3010 	ldr	r3, [fp, #-16]
2003a110:	e5932000 	ldr	r2, [r3]
2003a114:	e51b3010 	ldr	r3, [fp, #-16]
2003a118:	e1520003 	cmp	r2, r3
2003a11c:	1a00000a 	bne	2003a14c <queue_delete_next+0x50>
2003a120:	e30b33f0 	movw	r3, #46064	; 0xb3f0
2003a124:	e3423003 	movt	r3, #8195	; 0x2003
2003a128:	e30b240c 	movw	r2, #46092	; 0xb40c
2003a12c:	e3422003 	movt	r2, #8195	; 0x2003
2003a130:	e58d2000 	str	r2, [sp]
2003a134:	e3a00000 	mov	r0, #0
2003a138:	e3a01002 	mov	r1, #2
2003a13c:	e1a02003 	mov	r2, r3
2003a140:	e3a03086 	mov	r3, #134	; 0x86
2003a144:	ebffff8c 	bl	20039f7c <_syslog_3>
2003a148:	ebffff88 	bl	20039f70 <TOPPERS_assert_abort>
2003a14c:	e51b3010 	ldr	r3, [fp, #-16]
2003a150:	e5933000 	ldr	r3, [r3]
2003a154:	e50b3008 	str	r3, [fp, #-8]
2003a158:	e51b3008 	ldr	r3, [fp, #-8]
2003a15c:	e5932000 	ldr	r2, [r3]
2003a160:	e51b3010 	ldr	r3, [fp, #-16]
2003a164:	e5832000 	str	r2, [r3]
2003a168:	e51b3008 	ldr	r3, [fp, #-8]
2003a16c:	e5933000 	ldr	r3, [r3]
2003a170:	e51b2010 	ldr	r2, [fp, #-16]
2003a174:	e5832004 	str	r2, [r3, #4]
2003a178:	e51b3008 	ldr	r3, [fp, #-8]
2003a17c:	e1a00003 	mov	r0, r3
2003a180:	e24bd004 	sub	sp, fp, #4
2003a184:	e8bd8800 	pop	{fp, pc}

2003a188 <queue_empty>:
2003a188:	e92d4800 	push	{fp, lr}
2003a18c:	e28db004 	add	fp, sp, #4
2003a190:	e24dd010 	sub	sp, sp, #16
2003a194:	e50b0008 	str	r0, [fp, #-8]
2003a198:	e51b3008 	ldr	r3, [fp, #-8]
2003a19c:	e5932000 	ldr	r2, [r3]
2003a1a0:	e51b3008 	ldr	r3, [fp, #-8]
2003a1a4:	e1520003 	cmp	r2, r3
2003a1a8:	1a000011 	bne	2003a1f4 <queue_empty+0x6c>
2003a1ac:	e51b3008 	ldr	r3, [fp, #-8]
2003a1b0:	e5932004 	ldr	r2, [r3, #4]
2003a1b4:	e51b3008 	ldr	r3, [fp, #-8]
2003a1b8:	e1520003 	cmp	r2, r3
2003a1bc:	0a00000a 	beq	2003a1ec <queue_empty+0x64>
2003a1c0:	e30b33f0 	movw	r3, #46064	; 0xb3f0
2003a1c4:	e3423003 	movt	r3, #8195	; 0x2003
2003a1c8:	e30b2428 	movw	r2, #46120	; 0xb428
2003a1cc:	e3422003 	movt	r2, #8195	; 0x2003
2003a1d0:	e58d2000 	str	r2, [sp]
2003a1d4:	e3a00000 	mov	r0, #0
2003a1d8:	e3a01002 	mov	r1, #2
2003a1dc:	e1a02003 	mov	r2, r3
2003a1e0:	e3a03096 	mov	r3, #150	; 0x96
2003a1e4:	ebffff64 	bl	20039f7c <_syslog_3>
2003a1e8:	ebffff60 	bl	20039f70 <TOPPERS_assert_abort>
2003a1ec:	e3a03001 	mov	r3, #1
2003a1f0:	ea000000 	b	2003a1f8 <queue_empty+0x70>
2003a1f4:	e3a03000 	mov	r3, #0
2003a1f8:	e1a00003 	mov	r0, r3
2003a1fc:	e24bd004 	sub	sp, fp, #4
2003a200:	e8bd8800 	pop	{fp, pc}

2003a204 <tmevtb_enqueue>:
2003a204:	e92d4800 	push	{fp, lr}
2003a208:	e28db004 	add	fp, sp, #4
2003a20c:	e24dd018 	sub	sp, sp, #24
2003a210:	e50b0008 	str	r0, [fp, #-8]
2003a214:	e50b100c 	str	r1, [fp, #-12]
2003a218:	e50b2010 	str	r2, [fp, #-16]
2003a21c:	e50b3014 	str	r3, [fp, #-20]	; 0xffffffec
2003a220:	e51b300c 	ldr	r3, [fp, #-12]
2003a224:	e3530000 	cmp	r3, #0
2003a228:	aa00000a 	bge	2003a258 <tmevtb_enqueue+0x54>
2003a22c:	e30b3444 	movw	r3, #46148	; 0xb444
2003a230:	e3423003 	movt	r3, #8195	; 0x2003
2003a234:	e30b2464 	movw	r2, #46180	; 0xb464
2003a238:	e3422003 	movt	r2, #8195	; 0x2003
2003a23c:	e58d2000 	str	r2, [sp]
2003a240:	e3a00000 	mov	r0, #0
2003a244:	e3a01002 	mov	r1, #2
2003a248:	e1a02003 	mov	r2, r3
2003a24c:	e3a030a0 	mov	r3, #160	; 0xa0
2003a250:	ebffff49 	bl	20039f7c <_syslog_3>
2003a254:	ebffff45 	bl	20039f70 <TOPPERS_assert_abort>
2003a258:	e51b3008 	ldr	r3, [fp, #-8]
2003a25c:	e51b2010 	ldr	r2, [fp, #-16]
2003a260:	e5832004 	str	r2, [r3, #4]
2003a264:	e51b3008 	ldr	r3, [fp, #-8]
2003a268:	e51b2014 	ldr	r2, [fp, #-20]	; 0xffffffec
2003a26c:	e5832008 	str	r2, [r3, #8]
2003a270:	e30430a4 	movw	r3, #16548	; 0x40a4
2003a274:	e3423005 	movt	r3, #8197	; 0x2005
2003a278:	e5932000 	ldr	r2, [r3]
2003a27c:	e51b300c 	ldr	r3, [fp, #-12]
2003a280:	e0823003 	add	r3, r2, r3
2003a284:	e51b0008 	ldr	r0, [fp, #-8]
2003a288:	e1a01003 	mov	r1, r3
2003a28c:	ebffeec6 	bl	20035dac <_kernel_tmevtb_insert>
2003a290:	e24bd004 	sub	sp, fp, #4
2003a294:	e8bd8800 	pop	{fp, pc}

2003a298 <tmevtb_dequeue>:
2003a298:	e92d4800 	push	{fp, lr}
2003a29c:	e28db004 	add	fp, sp, #4
2003a2a0:	e24dd008 	sub	sp, sp, #8
2003a2a4:	e50b0008 	str	r0, [fp, #-8]
2003a2a8:	e51b0008 	ldr	r0, [fp, #-8]
2003a2ac:	ebffeee6 	bl	20035e4c <_kernel_tmevtb_delete>
2003a2b0:	e24bd004 	sub	sp, fp, #4
2003a2b4:	e8bd8800 	pop	{fp, pc}

2003a2b8 <queue_insert_tpri>:
2003a2b8:	e92d4800 	push	{fp, lr}
2003a2bc:	e28db004 	add	fp, sp, #4
2003a2c0:	e24dd010 	sub	sp, sp, #16
2003a2c4:	e50b0010 	str	r0, [fp, #-16]
2003a2c8:	e50b1014 	str	r1, [fp, #-20]	; 0xffffffec
2003a2cc:	e51b3014 	ldr	r3, [fp, #-20]	; 0xffffffec
2003a2d0:	e5d3300d 	ldrb	r3, [r3, #13]
2003a2d4:	e50b300c 	str	r3, [fp, #-12]
2003a2d8:	e51b3010 	ldr	r3, [fp, #-16]
2003a2dc:	e5933000 	ldr	r3, [r3]
2003a2e0:	e50b3008 	str	r3, [fp, #-8]
2003a2e4:	ea000008 	b	2003a30c <queue_insert_tpri+0x54>
2003a2e8:	e51b3008 	ldr	r3, [fp, #-8]
2003a2ec:	e5d3300d 	ldrb	r3, [r3, #13]
2003a2f0:	e1a02003 	mov	r2, r3
2003a2f4:	e51b300c 	ldr	r3, [fp, #-12]
2003a2f8:	e1520003 	cmp	r2, r3
2003a2fc:	8a000007 	bhi	2003a320 <queue_insert_tpri+0x68>
2003a300:	e51b3008 	ldr	r3, [fp, #-8]
2003a304:	e5933000 	ldr	r3, [r3]
2003a308:	e50b3008 	str	r3, [fp, #-8]
2003a30c:	e51b2008 	ldr	r2, [fp, #-8]
2003a310:	e51b3010 	ldr	r3, [fp, #-16]
2003a314:	e1520003 	cmp	r2, r3
2003a318:	1afffff2 	bne	2003a2e8 <queue_insert_tpri+0x30>
2003a31c:	ea000000 	b	2003a324 <queue_insert_tpri+0x6c>
2003a320:	e1a00000 	nop			; (mov r0, r0)
2003a324:	e51b3014 	ldr	r3, [fp, #-20]	; 0xffffffec
2003a328:	e51b0008 	ldr	r0, [fp, #-8]
2003a32c:	e1a01003 	mov	r1, r3
2003a330:	ebffff4a 	bl	2003a060 <queue_insert_prev>
2003a334:	e24bd004 	sub	sp, fp, #4
2003a338:	e8bd8800 	pop	{fp, pc}

2003a33c <make_wait>:
2003a33c:	e92d4800 	push	{fp, lr}
2003a340:	e28db004 	add	fp, sp, #4
2003a344:	e24dd008 	sub	sp, sp, #8
2003a348:	e50b0008 	str	r0, [fp, #-8]
2003a34c:	e3043098 	movw	r3, #16536	; 0x4098
2003a350:	e3423005 	movt	r3, #8197	; 0x2005
2003a354:	e5933000 	ldr	r3, [r3]
2003a358:	e1a00003 	mov	r0, r3
2003a35c:	ebffec1e 	bl	200353dc <_kernel_make_non_runnable>
2003a360:	e3043098 	movw	r3, #16536	; 0x4098
2003a364:	e3423005 	movt	r3, #8197	; 0x2005
2003a368:	e5933000 	ldr	r3, [r3]
2003a36c:	e51b2008 	ldr	r2, [fp, #-8]
2003a370:	e5832014 	str	r2, [r3, #20]
2003a374:	e51b3008 	ldr	r3, [fp, #-8]
2003a378:	e3a02000 	mov	r2, #0
2003a37c:	e5832000 	str	r2, [r3]
2003a380:	e24bd004 	sub	sp, fp, #4
2003a384:	e8bd8800 	pop	{fp, pc}

2003a388 <make_non_wait>:
2003a388:	e92d4800 	push	{fp, lr}
2003a38c:	e28db004 	add	fp, sp, #4
2003a390:	e24dd010 	sub	sp, sp, #16
2003a394:	e50b0008 	str	r0, [fp, #-8]
2003a398:	e51b3008 	ldr	r3, [fp, #-8]
2003a39c:	e5d3300c 	ldrb	r3, [r3, #12]
2003a3a0:	e2033002 	and	r3, r3, #2
2003a3a4:	e3530000 	cmp	r3, #0
2003a3a8:	1a00000a 	bne	2003a3d8 <make_non_wait+0x50>
2003a3ac:	e30b3478 	movw	r3, #46200	; 0xb478
2003a3b0:	e3423003 	movt	r3, #8195	; 0x2003
2003a3b4:	e30b2490 	movw	r2, #46224	; 0xb490
2003a3b8:	e3422003 	movt	r2, #8195	; 0x2003
2003a3bc:	e58d2000 	str	r2, [sp]
2003a3c0:	e3a00000 	mov	r0, #0
2003a3c4:	e3a01002 	mov	r1, #2
2003a3c8:	e1a02003 	mov	r2, r3
2003a3cc:	e3a0306d 	mov	r3, #109	; 0x6d
2003a3d0:	ebfffee9 	bl	20039f7c <_syslog_3>
2003a3d4:	ebfffee5 	bl	20039f70 <TOPPERS_assert_abort>
2003a3d8:	e51b3008 	ldr	r3, [fp, #-8]
2003a3dc:	e5d3300c 	ldrb	r3, [r3, #12]
2003a3e0:	e2033004 	and	r3, r3, #4
2003a3e4:	e3530000 	cmp	r3, #0
2003a3e8:	1a000006 	bne	2003a408 <make_non_wait+0x80>
2003a3ec:	e51b3008 	ldr	r3, [fp, #-8]
2003a3f0:	e3a02001 	mov	r2, #1
2003a3f4:	e5c3200c 	strb	r2, [r3, #12]
2003a3f8:	e51b0008 	ldr	r0, [fp, #-8]
2003a3fc:	ebffebcb 	bl	20035330 <_kernel_make_runnable>
2003a400:	e1a03000 	mov	r3, r0
2003a404:	ea000003 	b	2003a418 <make_non_wait+0x90>
2003a408:	e51b3008 	ldr	r3, [fp, #-8]
2003a40c:	e3a02004 	mov	r2, #4
2003a410:	e5c3200c 	strb	r2, [r3, #12]
2003a414:	e3a03000 	mov	r3, #0
2003a418:	e1a00003 	mov	r0, r3
2003a41c:	e24bd004 	sub	sp, fp, #4
2003a420:	e8bd8800 	pop	{fp, pc}

2003a424 <wait_dequeue_wobj>:
2003a424:	e92d4800 	push	{fp, lr}
2003a428:	e28db004 	add	fp, sp, #4
2003a42c:	e24dd008 	sub	sp, sp, #8
2003a430:	e50b0008 	str	r0, [fp, #-8]
2003a434:	e51b3008 	ldr	r3, [fp, #-8]
2003a438:	e5d3300c 	ldrb	r3, [r3, #12]
2003a43c:	e2033078 	and	r3, r3, #120	; 0x78
2003a440:	e353000f 	cmp	r3, #15
2003a444:	9a000002 	bls	2003a454 <wait_dequeue_wobj+0x30>
2003a448:	e51b3008 	ldr	r3, [fp, #-8]
2003a44c:	e1a00003 	mov	r0, r3
2003a450:	ebffff18 	bl	2003a0b8 <queue_delete>
2003a454:	e24bd004 	sub	sp, fp, #4
2003a458:	e8bd8800 	pop	{fp, pc}

2003a45c <wait_dequeue_tmevtb>:
2003a45c:	e92d4800 	push	{fp, lr}
2003a460:	e28db004 	add	fp, sp, #4
2003a464:	e24dd008 	sub	sp, sp, #8
2003a468:	e50b0008 	str	r0, [fp, #-8]
2003a46c:	e51b3008 	ldr	r3, [fp, #-8]
2003a470:	e5933014 	ldr	r3, [r3, #20]
2003a474:	e5933000 	ldr	r3, [r3]
2003a478:	e3530000 	cmp	r3, #0
2003a47c:	0a000004 	beq	2003a494 <wait_dequeue_tmevtb+0x38>
2003a480:	e51b3008 	ldr	r3, [fp, #-8]
2003a484:	e5933014 	ldr	r3, [r3, #20]
2003a488:	e5933000 	ldr	r3, [r3]
2003a48c:	e1a00003 	mov	r0, r3
2003a490:	ebffff80 	bl	2003a298 <tmevtb_dequeue>
2003a494:	e24bd004 	sub	sp, fp, #4
2003a498:	e8bd8800 	pop	{fp, pc}

2003a49c <_kernel_make_wait_tmout>:
2003a49c:	e92d4800 	push	{fp, lr}
2003a4a0:	e28db004 	add	fp, sp, #4
2003a4a4:	e24dd018 	sub	sp, sp, #24
2003a4a8:	e50b0008 	str	r0, [fp, #-8]
2003a4ac:	e50b100c 	str	r1, [fp, #-12]
2003a4b0:	e50b2010 	str	r2, [fp, #-16]
2003a4b4:	e3043098 	movw	r3, #16536	; 0x4098
2003a4b8:	e3423005 	movt	r3, #8197	; 0x2005
2003a4bc:	e5933000 	ldr	r3, [r3]
2003a4c0:	e1a00003 	mov	r0, r3
2003a4c4:	ebffebc4 	bl	200353dc <_kernel_make_non_runnable>
2003a4c8:	e3043098 	movw	r3, #16536	; 0x4098
2003a4cc:	e3423005 	movt	r3, #8197	; 0x2005
2003a4d0:	e5933000 	ldr	r3, [r3]
2003a4d4:	e51b2008 	ldr	r2, [fp, #-8]
2003a4d8:	e5832014 	str	r2, [r3, #20]
2003a4dc:	e51b3010 	ldr	r3, [fp, #-16]
2003a4e0:	e3530000 	cmp	r3, #0
2003a4e4:	da00000d 	ble	2003a520 <_kernel_make_wait_tmout+0x84>
2003a4e8:	e51b3008 	ldr	r3, [fp, #-8]
2003a4ec:	e51b200c 	ldr	r2, [fp, #-12]
2003a4f0:	e5832000 	str	r2, [r3]
2003a4f4:	e51b1010 	ldr	r1, [fp, #-16]
2003a4f8:	e30a35ac 	movw	r3, #42412	; 0xa5ac
2003a4fc:	e3423003 	movt	r3, #8195	; 0x2003
2003a500:	e3042098 	movw	r2, #16536	; 0x4098
2003a504:	e3422005 	movt	r2, #8197	; 0x2005
2003a508:	e592c000 	ldr	ip, [r2]
2003a50c:	e51b000c 	ldr	r0, [fp, #-12]
2003a510:	e1a02003 	mov	r2, r3
2003a514:	e1a0300c 	mov	r3, ip
2003a518:	ebffff39 	bl	2003a204 <tmevtb_enqueue>
2003a51c:	ea000010 	b	2003a564 <_kernel_make_wait_tmout+0xc8>
2003a520:	e51b3010 	ldr	r3, [fp, #-16]
2003a524:	e3730001 	cmn	r3, #1
2003a528:	0a00000a 	beq	2003a558 <_kernel_make_wait_tmout+0xbc>
2003a52c:	e30b34ac 	movw	r3, #46252	; 0xb4ac
2003a530:	e3423003 	movt	r3, #8195	; 0x2003
2003a534:	e30b24c4 	movw	r2, #46276	; 0xb4c4
2003a538:	e3422003 	movt	r2, #8195	; 0x2003
2003a53c:	e58d2000 	str	r2, [sp]
2003a540:	e3a00000 	mov	r0, #0
2003a544:	e3a01002 	mov	r1, #2
2003a548:	e1a02003 	mov	r2, r3
2003a54c:	e3a03042 	mov	r3, #66	; 0x42
2003a550:	ebfffe89 	bl	20039f7c <_syslog_3>
2003a554:	ebfffe85 	bl	20039f70 <TOPPERS_assert_abort>
2003a558:	e51b3008 	ldr	r3, [fp, #-8]
2003a55c:	e3a02000 	mov	r2, #0
2003a560:	e5832000 	str	r2, [r3]
2003a564:	e24bd004 	sub	sp, fp, #4
2003a568:	e8bd8800 	pop	{fp, pc}

2003a56c <_kernel_wait_complete>:
2003a56c:	e92d4800 	push	{fp, lr}
2003a570:	e28db004 	add	fp, sp, #4
2003a574:	e24dd008 	sub	sp, sp, #8
2003a578:	e50b0008 	str	r0, [fp, #-8]
2003a57c:	e51b0008 	ldr	r0, [fp, #-8]
2003a580:	ebffffb5 	bl	2003a45c <wait_dequeue_tmevtb>
2003a584:	e51b3008 	ldr	r3, [fp, #-8]
2003a588:	e5933014 	ldr	r3, [r3, #20]
2003a58c:	e3a02000 	mov	r2, #0
2003a590:	e5832000 	str	r2, [r3]
2003a594:	e51b0008 	ldr	r0, [fp, #-8]
2003a598:	ebffff7a 	bl	2003a388 <make_non_wait>
2003a59c:	e1a03000 	mov	r3, r0
2003a5a0:	e1a00003 	mov	r0, r3
2003a5a4:	e24bd004 	sub	sp, fp, #4
2003a5a8:	e8bd8800 	pop	{fp, pc}

2003a5ac <_kernel_wait_tmout>:
2003a5ac:	e92d4800 	push	{fp, lr}
2003a5b0:	e28db004 	add	fp, sp, #4
2003a5b4:	e24dd008 	sub	sp, sp, #8
2003a5b8:	e50b0008 	str	r0, [fp, #-8]
2003a5bc:	e51b0008 	ldr	r0, [fp, #-8]
2003a5c0:	ebffff97 	bl	2003a424 <wait_dequeue_wobj>
2003a5c4:	e51b3008 	ldr	r3, [fp, #-8]
2003a5c8:	e5933014 	ldr	r3, [r3, #20]
2003a5cc:	e3e02031 	mvn	r2, #49	; 0x31
2003a5d0:	e5832000 	str	r2, [r3]
2003a5d4:	e51b0008 	ldr	r0, [fp, #-8]
2003a5d8:	ebffff6a 	bl	2003a388 <make_non_wait>
2003a5dc:	e1a03000 	mov	r3, r0
2003a5e0:	e3530000 	cmp	r3, #0
2003a5e4:	0a000003 	beq	2003a5f8 <_kernel_wait_tmout+0x4c>
2003a5e8:	e3043008 	movw	r3, #16392	; 0x4008
2003a5ec:	e3423005 	movt	r3, #8197	; 0x2005
2003a5f0:	e3a02001 	mov	r2, #1
2003a5f4:	e5832000 	str	r2, [r3]
2003a5f8:	ebfffe8f 	bl	2003a03c <x_unlock_cpu>
2003a5fc:	ebfffe86 	bl	2003a01c <x_lock_cpu>
2003a600:	e24bd004 	sub	sp, fp, #4
2003a604:	e8bd8800 	pop	{fp, pc}

2003a608 <_kernel_wait_tmout_ok>:
2003a608:	e92d4800 	push	{fp, lr}
2003a60c:	e28db004 	add	fp, sp, #4
2003a610:	e24dd008 	sub	sp, sp, #8
2003a614:	e50b0008 	str	r0, [fp, #-8]
2003a618:	e51b3008 	ldr	r3, [fp, #-8]
2003a61c:	e5933014 	ldr	r3, [r3, #20]
2003a620:	e3a02000 	mov	r2, #0
2003a624:	e5832000 	str	r2, [r3]
2003a628:	e51b0008 	ldr	r0, [fp, #-8]
2003a62c:	ebffff55 	bl	2003a388 <make_non_wait>
2003a630:	e1a03000 	mov	r3, r0
2003a634:	e3530000 	cmp	r3, #0
2003a638:	0a000003 	beq	2003a64c <_kernel_wait_tmout_ok+0x44>
2003a63c:	e3043008 	movw	r3, #16392	; 0x4008
2003a640:	e3423005 	movt	r3, #8197	; 0x2005
2003a644:	e3a02001 	mov	r2, #1
2003a648:	e5832000 	str	r2, [r3]
2003a64c:	ebfffe7a 	bl	2003a03c <x_unlock_cpu>
2003a650:	ebfffe71 	bl	2003a01c <x_lock_cpu>
2003a654:	e24bd004 	sub	sp, fp, #4
2003a658:	e8bd8800 	pop	{fp, pc}

2003a65c <_kernel_wait_release>:
2003a65c:	e92d4800 	push	{fp, lr}
2003a660:	e28db004 	add	fp, sp, #4
2003a664:	e24dd008 	sub	sp, sp, #8
2003a668:	e50b0008 	str	r0, [fp, #-8]
2003a66c:	e51b0008 	ldr	r0, [fp, #-8]
2003a670:	ebffff6b 	bl	2003a424 <wait_dequeue_wobj>
2003a674:	e51b0008 	ldr	r0, [fp, #-8]
2003a678:	ebffff77 	bl	2003a45c <wait_dequeue_tmevtb>
2003a67c:	e51b3008 	ldr	r3, [fp, #-8]
2003a680:	e5933014 	ldr	r3, [r3, #20]
2003a684:	e3e02030 	mvn	r2, #48	; 0x30
2003a688:	e5832000 	str	r2, [r3]
2003a68c:	e51b0008 	ldr	r0, [fp, #-8]
2003a690:	ebffff3c 	bl	2003a388 <make_non_wait>
2003a694:	e1a03000 	mov	r3, r0
2003a698:	e1a00003 	mov	r0, r3
2003a69c:	e24bd004 	sub	sp, fp, #4
2003a6a0:	e8bd8800 	pop	{fp, pc}

2003a6a4 <wobj_queue_insert>:
2003a6a4:	e92d4800 	push	{fp, lr}
2003a6a8:	e28db004 	add	fp, sp, #4
2003a6ac:	e24dd008 	sub	sp, sp, #8
2003a6b0:	e50b0008 	str	r0, [fp, #-8]
2003a6b4:	e51b3008 	ldr	r3, [fp, #-8]
2003a6b8:	e5933008 	ldr	r3, [r3, #8]
2003a6bc:	e5933000 	ldr	r3, [r3]
2003a6c0:	e2033001 	and	r3, r3, #1
2003a6c4:	e6ef3073 	uxtb	r3, r3
2003a6c8:	e3530000 	cmp	r3, #0
2003a6cc:	0a000007 	beq	2003a6f0 <wobj_queue_insert+0x4c>
2003a6d0:	e51b2008 	ldr	r2, [fp, #-8]
2003a6d4:	e3043098 	movw	r3, #16536	; 0x4098
2003a6d8:	e3423005 	movt	r3, #8197	; 0x2005
2003a6dc:	e5933000 	ldr	r3, [r3]
2003a6e0:	e1a00002 	mov	r0, r2
2003a6e4:	e1a01003 	mov	r1, r3
2003a6e8:	ebfffef2 	bl	2003a2b8 <queue_insert_tpri>
2003a6ec:	ea000006 	b	2003a70c <wobj_queue_insert+0x68>
2003a6f0:	e51b2008 	ldr	r2, [fp, #-8]
2003a6f4:	e3043098 	movw	r3, #16536	; 0x4098
2003a6f8:	e3423005 	movt	r3, #8197	; 0x2005
2003a6fc:	e5933000 	ldr	r3, [r3]
2003a700:	e1a00002 	mov	r0, r2
2003a704:	e1a01003 	mov	r1, r3
2003a708:	ebfffe54 	bl	2003a060 <queue_insert_prev>
2003a70c:	e24bd004 	sub	sp, fp, #4
2003a710:	e8bd8800 	pop	{fp, pc}

2003a714 <_kernel_wobj_make_wait>:
2003a714:	e92d4800 	push	{fp, lr}
2003a718:	e28db004 	add	fp, sp, #4
2003a71c:	e24dd008 	sub	sp, sp, #8
2003a720:	e50b0008 	str	r0, [fp, #-8]
2003a724:	e50b100c 	str	r1, [fp, #-12]
2003a728:	e51b300c 	ldr	r3, [fp, #-12]
2003a72c:	e1a00003 	mov	r0, r3
2003a730:	ebffff01 	bl	2003a33c <make_wait>
2003a734:	e51b0008 	ldr	r0, [fp, #-8]
2003a738:	ebffffd9 	bl	2003a6a4 <wobj_queue_insert>
2003a73c:	e51b300c 	ldr	r3, [fp, #-12]
2003a740:	e51b2008 	ldr	r2, [fp, #-8]
2003a744:	e5832004 	str	r2, [r3, #4]
2003a748:	e24bd004 	sub	sp, fp, #4
2003a74c:	e8bd8800 	pop	{fp, pc}

2003a750 <_kernel_wobj_make_wait_tmout>:
2003a750:	e92d4800 	push	{fp, lr}
2003a754:	e28db004 	add	fp, sp, #4
2003a758:	e24dd010 	sub	sp, sp, #16
2003a75c:	e50b0008 	str	r0, [fp, #-8]
2003a760:	e50b100c 	str	r1, [fp, #-12]
2003a764:	e50b2010 	str	r2, [fp, #-16]
2003a768:	e50b3014 	str	r3, [fp, #-20]	; 0xffffffec
2003a76c:	e51b300c 	ldr	r3, [fp, #-12]
2003a770:	e1a00003 	mov	r0, r3
2003a774:	e51b1010 	ldr	r1, [fp, #-16]
2003a778:	e51b2014 	ldr	r2, [fp, #-20]	; 0xffffffec
2003a77c:	ebffff46 	bl	2003a49c <_kernel_make_wait_tmout>
2003a780:	e51b0008 	ldr	r0, [fp, #-8]
2003a784:	ebffffc6 	bl	2003a6a4 <wobj_queue_insert>
2003a788:	e51b300c 	ldr	r3, [fp, #-12]
2003a78c:	e51b2008 	ldr	r2, [fp, #-8]
2003a790:	e5832004 	str	r2, [r3, #4]
2003a794:	e24bd004 	sub	sp, fp, #4
2003a798:	e8bd8800 	pop	{fp, pc}

2003a79c <_kernel_init_wait_queue>:
2003a79c:	e92d4800 	push	{fp, lr}
2003a7a0:	e28db004 	add	fp, sp, #4
2003a7a4:	e24dd010 	sub	sp, sp, #16
2003a7a8:	e50b0010 	str	r0, [fp, #-16]
2003a7ac:	e3a03000 	mov	r3, #0
2003a7b0:	e50b3008 	str	r3, [fp, #-8]
2003a7b4:	ea000010 	b	2003a7fc <_kernel_init_wait_queue+0x60>
2003a7b8:	e51b0010 	ldr	r0, [fp, #-16]
2003a7bc:	ebfffe4e 	bl	2003a0fc <queue_delete_next>
2003a7c0:	e1a03000 	mov	r3, r0
2003a7c4:	e50b300c 	str	r3, [fp, #-12]
2003a7c8:	e51b000c 	ldr	r0, [fp, #-12]
2003a7cc:	ebffff22 	bl	2003a45c <wait_dequeue_tmevtb>
2003a7d0:	e51b300c 	ldr	r3, [fp, #-12]
2003a7d4:	e5933014 	ldr	r3, [r3, #20]
2003a7d8:	e3e02032 	mvn	r2, #50	; 0x32
2003a7dc:	e5832000 	str	r2, [r3]
2003a7e0:	e51b000c 	ldr	r0, [fp, #-12]
2003a7e4:	ebfffee7 	bl	2003a388 <make_non_wait>
2003a7e8:	e1a03000 	mov	r3, r0
2003a7ec:	e3530000 	cmp	r3, #0
2003a7f0:	0a000001 	beq	2003a7fc <_kernel_init_wait_queue+0x60>
2003a7f4:	e3a03001 	mov	r3, #1
2003a7f8:	e50b3008 	str	r3, [fp, #-8]
2003a7fc:	e51b0010 	ldr	r0, [fp, #-16]
2003a800:	ebfffe60 	bl	2003a188 <queue_empty>
2003a804:	e1a03000 	mov	r3, r0
2003a808:	e3530000 	cmp	r3, #0
2003a80c:	0affffe9 	beq	2003a7b8 <_kernel_init_wait_queue+0x1c>
2003a810:	e51b3008 	ldr	r3, [fp, #-8]
2003a814:	e1a00003 	mov	r0, r3
2003a818:	e24bd004 	sub	sp, fp, #4
2003a81c:	e8bd8800 	pop	{fp, pc}

2003a820 <__aeabi_uidiv>:
2003a820:	e2512001 	subs	r2, r1, #1
2003a824:	012fff1e 	bxeq	lr
2003a828:	3a000036 	bcc	2003a908 <__aeabi_uidiv+0xe8>
2003a82c:	e1500001 	cmp	r0, r1
2003a830:	9a000022 	bls	2003a8c0 <__aeabi_uidiv+0xa0>
2003a834:	e1110002 	tst	r1, r2
2003a838:	0a000023 	beq	2003a8cc <__aeabi_uidiv+0xac>
2003a83c:	e311020e 	tst	r1, #-536870912	; 0xe0000000
2003a840:	01a01181 	lsleq	r1, r1, #3
2003a844:	03a03008 	moveq	r3, #8
2003a848:	13a03001 	movne	r3, #1
2003a84c:	e3510201 	cmp	r1, #268435456	; 0x10000000
2003a850:	31510000 	cmpcc	r1, r0
2003a854:	31a01201 	lslcc	r1, r1, #4
2003a858:	31a03203 	lslcc	r3, r3, #4
2003a85c:	3afffffa 	bcc	2003a84c <__aeabi_uidiv+0x2c>
2003a860:	e3510102 	cmp	r1, #-2147483648	; 0x80000000
2003a864:	31510000 	cmpcc	r1, r0
2003a868:	31a01081 	lslcc	r1, r1, #1
2003a86c:	31a03083 	lslcc	r3, r3, #1
2003a870:	3afffffa 	bcc	2003a860 <__aeabi_uidiv+0x40>
2003a874:	e3a02000 	mov	r2, #0
2003a878:	e1500001 	cmp	r0, r1
2003a87c:	20400001 	subcs	r0, r0, r1
2003a880:	21822003 	orrcs	r2, r2, r3
2003a884:	e15000a1 	cmp	r0, r1, lsr #1
2003a888:	204000a1 	subcs	r0, r0, r1, lsr #1
2003a88c:	218220a3 	orrcs	r2, r2, r3, lsr #1
2003a890:	e1500121 	cmp	r0, r1, lsr #2
2003a894:	20400121 	subcs	r0, r0, r1, lsr #2
2003a898:	21822123 	orrcs	r2, r2, r3, lsr #2
2003a89c:	e15001a1 	cmp	r0, r1, lsr #3
2003a8a0:	204001a1 	subcs	r0, r0, r1, lsr #3
2003a8a4:	218221a3 	orrcs	r2, r2, r3, lsr #3
2003a8a8:	e3500000 	cmp	r0, #0
2003a8ac:	11b03223 	lsrsne	r3, r3, #4
2003a8b0:	11a01221 	lsrne	r1, r1, #4
2003a8b4:	1affffef 	bne	2003a878 <__aeabi_uidiv+0x58>
2003a8b8:	e1a00002 	mov	r0, r2
2003a8bc:	e12fff1e 	bx	lr
2003a8c0:	03a00001 	moveq	r0, #1
2003a8c4:	13a00000 	movne	r0, #0
2003a8c8:	e12fff1e 	bx	lr
2003a8cc:	e3510801 	cmp	r1, #65536	; 0x10000
2003a8d0:	21a01821 	lsrcs	r1, r1, #16
2003a8d4:	23a02010 	movcs	r2, #16
2003a8d8:	33a02000 	movcc	r2, #0
2003a8dc:	e3510c01 	cmp	r1, #256	; 0x100
2003a8e0:	21a01421 	lsrcs	r1, r1, #8
2003a8e4:	22822008 	addcs	r2, r2, #8
2003a8e8:	e3510010 	cmp	r1, #16
2003a8ec:	21a01221 	lsrcs	r1, r1, #4
2003a8f0:	22822004 	addcs	r2, r2, #4
2003a8f4:	e3510004 	cmp	r1, #4
2003a8f8:	82822003 	addhi	r2, r2, #3
2003a8fc:	908220a1 	addls	r2, r2, r1, lsr #1
2003a900:	e1a00230 	lsr	r0, r0, r2
2003a904:	e12fff1e 	bx	lr
2003a908:	e3500000 	cmp	r0, #0
2003a90c:	13e00000 	mvnne	r0, #0
2003a910:	ea000007 	b	2003a934 <__aeabi_idiv0>

2003a914 <__aeabi_uidivmod>:
2003a914:	e3510000 	cmp	r1, #0
2003a918:	0afffffa 	beq	2003a908 <__aeabi_uidiv+0xe8>
2003a91c:	e92d4003 	push	{r0, r1, lr}
2003a920:	ebffffbe 	bl	2003a820 <__aeabi_uidiv>
2003a924:	e8bd4006 	pop	{r1, r2, lr}
2003a928:	e0030092 	mul	r3, r2, r0
2003a92c:	e0411003 	sub	r1, r1, r3
2003a930:	e12fff1e 	bx	lr

2003a934 <__aeabi_idiv0>:
2003a934:	e12fff1e 	bx	lr
